                                      1 ;--------------------------------------------------------
                                      2 ; File Created by SDCC : free open source ANSI-C Compiler
                                      3 ; Version 3.8.0 #10562 (MINGW32)
                                      4 ;--------------------------------------------------------
                                      5 	.module unicode
                                      6 	.optsdcc -mmcs51 --model-huge
                                      7 	
                                      8 ;--------------------------------------------------------
                                      9 ; Public variables in this module
                                     10 ;--------------------------------------------------------
                                     11 	.globl _ff_convert_PARM_2
                                     12 	.globl _ff_convert
                                     13 	.globl _ff_wtoupper
                                     14 ;--------------------------------------------------------
                                     15 ; special function registers
                                     16 ;--------------------------------------------------------
                                     17 	.area RSEG    (ABS,DATA)
      000000                         18 	.org 0x0000
                                     19 ;--------------------------------------------------------
                                     20 ; special function bits
                                     21 ;--------------------------------------------------------
                                     22 	.area RSEG    (ABS,DATA)
      000000                         23 	.org 0x0000
                                     24 ;--------------------------------------------------------
                                     25 ; overlayable register banks
                                     26 ;--------------------------------------------------------
                                     27 	.area REG_BANK_0	(REL,OVR,DATA)
      000000                         28 	.ds 8
                                     29 ;--------------------------------------------------------
                                     30 ; internal ram data
                                     31 ;--------------------------------------------------------
                                     32 	.area DSEG    (DATA)
                                     33 ;--------------------------------------------------------
                                     34 ; overlayable items in internal ram 
                                     35 ;--------------------------------------------------------
                                     36 ;--------------------------------------------------------
                                     37 ; indirectly addressable internal ram data
                                     38 ;--------------------------------------------------------
                                     39 	.area ISEG    (DATA)
                                     40 ;--------------------------------------------------------
                                     41 ; absolute internal ram data
                                     42 ;--------------------------------------------------------
                                     43 	.area IABS    (ABS,DATA)
                                     44 	.area IABS    (ABS,DATA)
                                     45 ;--------------------------------------------------------
                                     46 ; bit data
                                     47 ;--------------------------------------------------------
                                     48 	.area BSEG    (BIT)
                                     49 ;--------------------------------------------------------
                                     50 ; paged external ram data
                                     51 ;--------------------------------------------------------
                                     52 	.area PSEG    (PAG,XDATA)
                                     53 ;--------------------------------------------------------
                                     54 ; external ram data
                                     55 ;--------------------------------------------------------
                                     56 	.area XSEG    (XDATA)
      000000                         57 _ff_convert_PARM_2:
      000000                         58 	.ds 2
      000002                         59 _ff_convert_chr_65536_36:
      000002                         60 	.ds 2
      000004                         61 _ff_convert_c_65536_37:
      000004                         62 	.ds 2
      000006                         63 _ff_wtoupper_chr_65536_44:
      000006                         64 	.ds 2
                                     65 ;--------------------------------------------------------
                                     66 ; absolute external ram data
                                     67 ;--------------------------------------------------------
                                     68 	.area XABS    (ABS,XDATA)
                                     69 ;--------------------------------------------------------
                                     70 ; external initialized ram data
                                     71 ;--------------------------------------------------------
                                     72 	.area XISEG   (XDATA)
                                     73 	.area HOME    (CODE)
                                     74 	.area GSINIT0 (CODE)
                                     75 	.area GSINIT1 (CODE)
                                     76 	.area GSINIT2 (CODE)
                                     77 	.area GSINIT3 (CODE)
                                     78 	.area GSINIT4 (CODE)
                                     79 	.area GSINIT5 (CODE)
                                     80 	.area GSINIT  (CODE)
                                     81 	.area GSFINAL (CODE)
                                     82 	.area CSEG    (CODE)
                                     83 ;--------------------------------------------------------
                                     84 ; global & static initialisations
                                     85 ;--------------------------------------------------------
                                     86 	.area HOME    (CODE)
                                     87 	.area GSINIT  (CODE)
                                     88 	.area GSFINAL (CODE)
                                     89 	.area GSINIT  (CODE)
                                     90 ;--------------------------------------------------------
                                     91 ; Home
                                     92 ;--------------------------------------------------------
                                     93 	.area HOME    (CODE)
                                     94 	.area HOME    (CODE)
                                     95 ;--------------------------------------------------------
                                     96 ; code
                                     97 ;--------------------------------------------------------
                                     98 	.area CSEG    (CODE)
                                     99 ;------------------------------------------------------------
                                    100 ;Allocation info for local variables in function 'ff_convert'
                                    101 ;------------------------------------------------------------
                                    102 ;dir                       Allocated with name '_ff_convert_PARM_2'
                                    103 ;chr                       Allocated with name '_ff_convert_chr_65536_36'
                                    104 ;c                         Allocated with name '_ff_convert_c_65536_37'
                                    105 ;------------------------------------------------------------
                                    106 ;	FATFS\option\/ccsbcs.c:501: WCHAR ff_convert (	/* Converted character, Returns zero on error */
                                    107 ;	-----------------------------------------
                                    108 ;	 function ff_convert
                                    109 ;	-----------------------------------------
      000000                        110 _ff_convert:
                           000007   111 	ar7 = 0x07
                           000006   112 	ar6 = 0x06
                           000005   113 	ar5 = 0x05
                           000004   114 	ar4 = 0x04
                           000003   115 	ar3 = 0x03
                           000002   116 	ar2 = 0x02
                           000001   117 	ar1 = 0x01
                           000000   118 	ar0 = 0x00
      000000 AF 83            [24]  119 	mov	r7,dph
      000002 E5 82            [12]  120 	mov	a,dpl
      000004 90r00r02         [24]  121 	mov	dptr,#_ff_convert_chr_65536_36
      000007 F0               [24]  122 	movx	@dptr,a
      000008 EF               [12]  123 	mov	a,r7
      000009 A3               [24]  124 	inc	dptr
      00000A F0               [24]  125 	movx	@dptr,a
                                    126 ;	FATFS\option\/ccsbcs.c:509: if (chr < 0x80) {	/* ASCII */
      00000B 90r00r02         [24]  127 	mov	dptr,#_ff_convert_chr_65536_36
      00000E E0               [24]  128 	movx	a,@dptr
      00000F FE               [12]  129 	mov	r6,a
      000010 A3               [24]  130 	inc	dptr
      000011 E0               [24]  131 	movx	a,@dptr
      000012 FF               [12]  132 	mov	r7,a
      000013 C3               [12]  133 	clr	c
      000014 EE               [12]  134 	mov	a,r6
      000015 94 80            [12]  135 	subb	a,#0x80
      000017 EF               [12]  136 	mov	a,r7
      000018 94 00            [12]  137 	subb	a,#0x00
      00001A 50 0B            [24]  138 	jnc	00108$
                                    139 ;	FATFS\option\/ccsbcs.c:510: c = chr;
      00001C 90r00r04         [24]  140 	mov	dptr,#_ff_convert_c_65536_37
      00001F EE               [12]  141 	mov	a,r6
      000020 F0               [24]  142 	movx	@dptr,a
      000021 EF               [12]  143 	mov	a,r7
      000022 A3               [24]  144 	inc	dptr
      000023 F0               [24]  145 	movx	@dptr,a
      000024 02r00rA9         [24]  146 	ljmp	00109$
      000027                        147 00108$:
                                    148 ;	FATFS\option\/ccsbcs.c:513: if (dir) {		/* OEMCP to Unicode */
      000027 90r00r00         [24]  149 	mov	dptr,#_ff_convert_PARM_2
      00002A E0               [24]  150 	movx	a,@dptr
      00002B F5 F0            [12]  151 	mov	b,a
      00002D A3               [24]  152 	inc	dptr
      00002E E0               [24]  153 	movx	a,@dptr
      00002F 45 F0            [12]  154 	orl	a,b
      000031 60 34            [24]  155 	jz	00120$
                                    156 ;	FATFS\option\/ccsbcs.c:514: c = (chr >= 0x100) ? 0 : Tbl[chr - 0x80];
      000033 74 FF            [12]  157 	mov	a,#0x100 - 0x01
      000035 2F               [12]  158 	add	a,r7
      000036 50 06            [24]  159 	jnc	00114$
      000038 7C 00            [12]  160 	mov	r4,#0x00
      00003A 7D 00            [12]  161 	mov	r5,#0x00
      00003C 80 1F            [24]  162 	sjmp	00115$
      00003E                        163 00114$:
      00003E EE               [12]  164 	mov	a,r6
      00003F 24 80            [12]  165 	add	a,#0x80
      000041 FA               [12]  166 	mov	r2,a
      000042 EF               [12]  167 	mov	a,r7
      000043 34 FF            [12]  168 	addc	a,#0xff
      000045 FB               [12]  169 	mov	r3,a
      000046 EA               [12]  170 	mov	a,r2
      000047 2A               [12]  171 	add	a,r2
      000048 FA               [12]  172 	mov	r2,a
      000049 EB               [12]  173 	mov	a,r3
      00004A 33               [12]  174 	rlc	a
      00004B FB               [12]  175 	mov	r3,a
      00004C EA               [12]  176 	mov	a,r2
      00004D 24r00            [12]  177 	add	a,#_Tbl
      00004F F5 82            [12]  178 	mov	dpl,a
      000051 EB               [12]  179 	mov	a,r3
      000052 34s00            [12]  180 	addc	a,#(_Tbl >> 8)
      000054 F5 83            [12]  181 	mov	dph,a
      000056 E4               [12]  182 	clr	a
      000057 93               [24]  183 	movc	a,@a+dptr
      000058 FC               [12]  184 	mov	r4,a
      000059 A3               [24]  185 	inc	dptr
      00005A E4               [12]  186 	clr	a
      00005B 93               [24]  187 	movc	a,@a+dptr
      00005C FD               [12]  188 	mov	r5,a
      00005D                        189 00115$:
      00005D 90r00r04         [24]  190 	mov	dptr,#_ff_convert_c_65536_37
      000060 EC               [12]  191 	mov	a,r4
      000061 F0               [24]  192 	movx	@dptr,a
      000062 ED               [12]  193 	mov	a,r5
      000063 A3               [24]  194 	inc	dptr
      000064 F0               [24]  195 	movx	@dptr,a
                                    196 ;	FATFS\option\/ccsbcs.c:517: for (c = 0; c < 0x80; c++) {
      000065 80 42            [24]  197 	sjmp	00109$
      000067                        198 00120$:
      000067 7C 00            [12]  199 	mov	r4,#0x00
      000069 7D 00            [12]  200 	mov	r5,#0x00
      00006B                        201 00110$:
                                    202 ;	FATFS\option\/ccsbcs.c:518: if (chr == Tbl[c]) break;
      00006B EC               [12]  203 	mov	a,r4
      00006C 2C               [12]  204 	add	a,r4
      00006D FA               [12]  205 	mov	r2,a
      00006E ED               [12]  206 	mov	a,r5
      00006F 33               [12]  207 	rlc	a
      000070 FB               [12]  208 	mov	r3,a
      000071 EA               [12]  209 	mov	a,r2
      000072 24r00            [12]  210 	add	a,#_Tbl
      000074 F5 82            [12]  211 	mov	dpl,a
      000076 EB               [12]  212 	mov	a,r3
      000077 34s00            [12]  213 	addc	a,#(_Tbl >> 8)
      000079 F5 83            [12]  214 	mov	dph,a
      00007B E4               [12]  215 	clr	a
      00007C 93               [24]  216 	movc	a,@a+dptr
      00007D FA               [12]  217 	mov	r2,a
      00007E A3               [24]  218 	inc	dptr
      00007F E4               [12]  219 	clr	a
      000080 93               [24]  220 	movc	a,@a+dptr
      000081 FB               [12]  221 	mov	r3,a
      000082 EE               [12]  222 	mov	a,r6
      000083 B5 02 06         [24]  223 	cjne	a,ar2,00140$
      000086 EF               [12]  224 	mov	a,r7
      000087 B5 03 02         [24]  225 	cjne	a,ar3,00140$
      00008A 80 0E            [24]  226 	sjmp	00103$
      00008C                        227 00140$:
                                    228 ;	FATFS\option\/ccsbcs.c:517: for (c = 0; c < 0x80; c++) {
      00008C 0C               [12]  229 	inc	r4
      00008D BC 00 01         [24]  230 	cjne	r4,#0x00,00141$
      000090 0D               [12]  231 	inc	r5
      000091                        232 00141$:
      000091 C3               [12]  233 	clr	c
      000092 EC               [12]  234 	mov	a,r4
      000093 94 80            [12]  235 	subb	a,#0x80
      000095 ED               [12]  236 	mov	a,r5
      000096 94 00            [12]  237 	subb	a,#0x00
      000098 40 D1            [24]  238 	jc	00110$
      00009A                        239 00103$:
                                    240 ;	FATFS\option\/ccsbcs.c:520: c = (c + 0x80) & 0xFF;
      00009A 74 80            [12]  241 	mov	a,#0x80
      00009C 2C               [12]  242 	add	a,r4
      00009D FC               [12]  243 	mov	r4,a
      00009E E4               [12]  244 	clr	a
      00009F 3D               [12]  245 	addc	a,r5
      0000A0 FD               [12]  246 	mov	r5,a
      0000A1 90r00r04         [24]  247 	mov	dptr,#_ff_convert_c_65536_37
      0000A4 EC               [12]  248 	mov	a,r4
      0000A5 F0               [24]  249 	movx	@dptr,a
      0000A6 E4               [12]  250 	clr	a
      0000A7 A3               [24]  251 	inc	dptr
      0000A8 F0               [24]  252 	movx	@dptr,a
      0000A9                        253 00109$:
                                    254 ;	FATFS\option\/ccsbcs.c:524: return c;
      0000A9 90r00r04         [24]  255 	mov	dptr,#_ff_convert_c_65536_37
      0000AC E0               [24]  256 	movx	a,@dptr
      0000AD FE               [12]  257 	mov	r6,a
      0000AE A3               [24]  258 	inc	dptr
      0000AF E0               [24]  259 	movx	a,@dptr
      0000B0 FF               [12]  260 	mov	r7,a
      0000B1 8E 82            [24]  261 	mov	dpl,r6
      0000B3 8F 83            [24]  262 	mov	dph,r7
                                    263 ;	FATFS\option\/ccsbcs.c:525: }
      0000B5 02r00r00         [24]  264 	ljmp	__sdcc_banked_ret
                                    265 ;------------------------------------------------------------
                                    266 ;Allocation info for local variables in function 'ff_wtoupper'
                                    267 ;------------------------------------------------------------
                                    268 ;chr                       Allocated with name '_ff_wtoupper_chr_65536_44'
                                    269 ;i                         Allocated with name '_ff_wtoupper_i_65536_45'
                                    270 ;------------------------------------------------------------
                                    271 ;	FATFS\option\/ccsbcs.c:528: WCHAR ff_wtoupper (	/* Upper converted character */
                                    272 ;	-----------------------------------------
                                    273 ;	 function ff_wtoupper
                                    274 ;	-----------------------------------------
      0000B8                        275 _ff_wtoupper:
      0000B8 AF 83            [24]  276 	mov	r7,dph
      0000BA E5 82            [12]  277 	mov	a,dpl
      0000BC 90r00r06         [24]  278 	mov	dptr,#_ff_wtoupper_chr_65536_44
      0000BF F0               [24]  279 	movx	@dptr,a
      0000C0 EF               [12]  280 	mov	a,r7
      0000C1 A3               [24]  281 	inc	dptr
      0000C2 F0               [24]  282 	movx	@dptr,a
                                    283 ;	FATFS\option\/ccsbcs.c:537: for (i = 0; tbl_lower[i] && chr != tbl_lower[i]; i++) ;
      0000C3 90r00r06         [24]  284 	mov	dptr,#_ff_wtoupper_chr_65536_44
      0000C6 E0               [24]  285 	movx	a,@dptr
      0000C7 FE               [12]  286 	mov	r6,a
      0000C8 A3               [24]  287 	inc	dptr
      0000C9 E0               [24]  288 	movx	a,@dptr
      0000CA FF               [12]  289 	mov	r7,a
      0000CB 7C 00            [12]  290 	mov	r4,#0x00
      0000CD 7D 00            [12]  291 	mov	r5,#0x00
      0000CF                        292 00104$:
      0000CF EC               [12]  293 	mov	a,r4
      0000D0 2C               [12]  294 	add	a,r4
      0000D1 FA               [12]  295 	mov	r2,a
      0000D2 ED               [12]  296 	mov	a,r5
      0000D3 33               [12]  297 	rlc	a
      0000D4 FB               [12]  298 	mov	r3,a
      0000D5 EA               [12]  299 	mov	a,r2
      0000D6 24r00            [12]  300 	add	a,#_ff_wtoupper_tbl_lower_65536_45
      0000D8 F5 82            [12]  301 	mov	dpl,a
      0000DA EB               [12]  302 	mov	a,r3
      0000DB 34s01            [12]  303 	addc	a,#(_ff_wtoupper_tbl_lower_65536_45 >> 8)
      0000DD F5 83            [12]  304 	mov	dph,a
      0000DF E4               [12]  305 	clr	a
      0000E0 93               [24]  306 	movc	a,@a+dptr
      0000E1 FA               [12]  307 	mov	r2,a
      0000E2 A3               [24]  308 	inc	dptr
      0000E3 E4               [12]  309 	clr	a
      0000E4 93               [24]  310 	movc	a,@a+dptr
      0000E5 FB               [12]  311 	mov	r3,a
      0000E6 4A               [12]  312 	orl	a,r2
      0000E7 60 11            [24]  313 	jz	00101$
      0000E9 EE               [12]  314 	mov	a,r6
      0000EA B5 02 06         [24]  315 	cjne	a,ar2,00128$
      0000ED EF               [12]  316 	mov	a,r7
      0000EE B5 03 02         [24]  317 	cjne	a,ar3,00128$
      0000F1 80 07            [24]  318 	sjmp	00101$
      0000F3                        319 00128$:
      0000F3 0C               [12]  320 	inc	r4
      0000F4 BC 00 D8         [24]  321 	cjne	r4,#0x00,00104$
      0000F7 0D               [12]  322 	inc	r5
      0000F8 80 D5            [24]  323 	sjmp	00104$
      0000FA                        324 00101$:
                                    325 ;	FATFS\option\/ccsbcs.c:539: return tbl_lower[i] ? tbl_upper[i] : chr;
      0000FA EC               [12]  326 	mov	a,r4
      0000FB 2C               [12]  327 	add	a,r4
      0000FC FE               [12]  328 	mov	r6,a
      0000FD ED               [12]  329 	mov	a,r5
      0000FE 33               [12]  330 	rlc	a
      0000FF FF               [12]  331 	mov	r7,a
      000100 EE               [12]  332 	mov	a,r6
      000101 24r00            [12]  333 	add	a,#_ff_wtoupper_tbl_lower_65536_45
      000103 F5 82            [12]  334 	mov	dpl,a
      000105 EF               [12]  335 	mov	a,r7
      000106 34s01            [12]  336 	addc	a,#(_ff_wtoupper_tbl_lower_65536_45 >> 8)
      000108 F5 83            [12]  337 	mov	dph,a
      00010A E4               [12]  338 	clr	a
      00010B 93               [24]  339 	movc	a,@a+dptr
      00010C FC               [12]  340 	mov	r4,a
      00010D A3               [24]  341 	inc	dptr
      00010E E4               [12]  342 	clr	a
      00010F 93               [24]  343 	movc	a,@a+dptr
      000110 FD               [12]  344 	mov	r5,a
      000111 4C               [12]  345 	orl	a,r4
      000112 60 13            [24]  346 	jz	00108$
      000114 EE               [12]  347 	mov	a,r6
      000115 24rE0            [12]  348 	add	a,#_ff_wtoupper_tbl_upper_65536_45
      000117 F5 82            [12]  349 	mov	dpl,a
      000119 EF               [12]  350 	mov	a,r7
      00011A 34s02            [12]  351 	addc	a,#(_ff_wtoupper_tbl_upper_65536_45 >> 8)
      00011C F5 83            [12]  352 	mov	dph,a
      00011E E4               [12]  353 	clr	a
      00011F 93               [24]  354 	movc	a,@a+dptr
      000120 FE               [12]  355 	mov	r6,a
      000121 A3               [24]  356 	inc	dptr
      000122 E4               [12]  357 	clr	a
      000123 93               [24]  358 	movc	a,@a+dptr
      000124 FF               [12]  359 	mov	r7,a
      000125 80 08            [24]  360 	sjmp	00109$
      000127                        361 00108$:
      000127 90r00r06         [24]  362 	mov	dptr,#_ff_wtoupper_chr_65536_44
      00012A E0               [24]  363 	movx	a,@dptr
      00012B FE               [12]  364 	mov	r6,a
      00012C A3               [24]  365 	inc	dptr
      00012D E0               [24]  366 	movx	a,@dptr
      00012E FF               [12]  367 	mov	r7,a
      00012F                        368 00109$:
      00012F 8E 82            [24]  369 	mov	dpl,r6
      000131 8F 83            [24]  370 	mov	dph,r7
                                    371 ;	FATFS\option\/ccsbcs.c:540: }
      000133 02r00r00         [24]  372 	ljmp	__sdcc_banked_ret
                                    373 	.area CSEG    (CODE)
                                    374 	.area CONST   (CODE)
      000000                        375 _Tbl:
      000000 C7 00                  376 	.byte #0xc7,#0x00	; 199
      000002 FC 00                  377 	.byte #0xfc,#0x00	; 252
      000004 E9 00                  378 	.byte #0xe9,#0x00	; 233
      000006 E2 00                  379 	.byte #0xe2,#0x00	; 226
      000008 E4 00                  380 	.byte #0xe4,#0x00	; 228
      00000A E0 00                  381 	.byte #0xe0,#0x00	; 224
      00000C E5 00                  382 	.byte #0xe5,#0x00	; 229
      00000E E7 00                  383 	.byte #0xe7,#0x00	; 231
      000010 EA 00                  384 	.byte #0xea,#0x00	; 234
      000012 EB 00                  385 	.byte #0xeb,#0x00	; 235
      000014 E8 00                  386 	.byte #0xe8,#0x00	; 232
      000016 EF 00                  387 	.byte #0xef,#0x00	; 239
      000018 EE 00                  388 	.byte #0xee,#0x00	; 238
      00001A EC 00                  389 	.byte #0xec,#0x00	; 236
      00001C C4 00                  390 	.byte #0xc4,#0x00	; 196
      00001E C5 00                  391 	.byte #0xc5,#0x00	; 197
      000020 C9 00                  392 	.byte #0xc9,#0x00	; 201
      000022 E6 00                  393 	.byte #0xe6,#0x00	; 230
      000024 C6 00                  394 	.byte #0xc6,#0x00	; 198
      000026 F4 00                  395 	.byte #0xf4,#0x00	; 244
      000028 F6 00                  396 	.byte #0xf6,#0x00	; 246
      00002A F2 00                  397 	.byte #0xf2,#0x00	; 242
      00002C FB 00                  398 	.byte #0xfb,#0x00	; 251
      00002E F9 00                  399 	.byte #0xf9,#0x00	; 249
      000030 FF 00                  400 	.byte #0xff,#0x00	; 255
      000032 D6 00                  401 	.byte #0xd6,#0x00	; 214
      000034 DC 00                  402 	.byte #0xdc,#0x00	; 220
      000036 A2 00                  403 	.byte #0xa2,#0x00	; 162
      000038 A3 00                  404 	.byte #0xa3,#0x00	; 163
      00003A A5 00                  405 	.byte #0xa5,#0x00	; 165
      00003C A7 20                  406 	.byte #0xa7,#0x20	; 8359
      00003E 92 01                  407 	.byte #0x92,#0x01	; 402
      000040 E1 00                  408 	.byte #0xe1,#0x00	; 225
      000042 ED 00                  409 	.byte #0xed,#0x00	; 237
      000044 F3 00                  410 	.byte #0xf3,#0x00	; 243
      000046 FA 00                  411 	.byte #0xfa,#0x00	; 250
      000048 F1 00                  412 	.byte #0xf1,#0x00	; 241
      00004A D1 00                  413 	.byte #0xd1,#0x00	; 209
      00004C AA 00                  414 	.byte #0xaa,#0x00	; 170
      00004E BA 00                  415 	.byte #0xba,#0x00	; 186
      000050 BF 00                  416 	.byte #0xbf,#0x00	; 191
      000052 10 23                  417 	.byte #0x10,#0x23	; 8976
      000054 AC 00                  418 	.byte #0xac,#0x00	; 172
      000056 BD 00                  419 	.byte #0xbd,#0x00	; 189
      000058 BC 00                  420 	.byte #0xbc,#0x00	; 188
      00005A A1 00                  421 	.byte #0xa1,#0x00	; 161
      00005C AB 00                  422 	.byte #0xab,#0x00	; 171
      00005E BB 00                  423 	.byte #0xbb,#0x00	; 187
      000060 91 25                  424 	.byte #0x91,#0x25	; 9617
      000062 92 25                  425 	.byte #0x92,#0x25	; 9618
      000064 93 25                  426 	.byte #0x93,#0x25	; 9619
      000066 02 25                  427 	.byte #0x02,#0x25	; 9474
      000068 24 25                  428 	.byte #0x24,#0x25	; 9508
      00006A 61 25                  429 	.byte #0x61,#0x25	; 9569
      00006C 62 25                  430 	.byte #0x62,#0x25	; 9570
      00006E 56 25                  431 	.byte #0x56,#0x25	; 9558
      000070 55 25                  432 	.byte #0x55,#0x25	; 9557
      000072 63 25                  433 	.byte #0x63,#0x25	; 9571
      000074 51 25                  434 	.byte #0x51,#0x25	; 9553
      000076 57 25                  435 	.byte #0x57,#0x25	; 9559
      000078 5D 25                  436 	.byte #0x5d,#0x25	; 9565
      00007A 5C 25                  437 	.byte #0x5c,#0x25	; 9564
      00007C 5B 25                  438 	.byte #0x5b,#0x25	; 9563
      00007E 10 25                  439 	.byte #0x10,#0x25	; 9488
      000080 14 25                  440 	.byte #0x14,#0x25	; 9492
      000082 34 25                  441 	.byte #0x34,#0x25	; 9524
      000084 2C 25                  442 	.byte #0x2c,#0x25	; 9516
      000086 1C 25                  443 	.byte #0x1c,#0x25	; 9500
      000088 00 25                  444 	.byte #0x00,#0x25	; 9472
      00008A 3C 25                  445 	.byte #0x3c,#0x25	; 9532
      00008C 5E 25                  446 	.byte #0x5e,#0x25	; 9566
      00008E 5F 25                  447 	.byte #0x5f,#0x25	; 9567
      000090 5A 25                  448 	.byte #0x5a,#0x25	; 9562
      000092 54 25                  449 	.byte #0x54,#0x25	; 9556
      000094 69 25                  450 	.byte #0x69,#0x25	; 9577
      000096 66 25                  451 	.byte #0x66,#0x25	; 9574
      000098 60 25                  452 	.byte #0x60,#0x25	; 9568
      00009A 50 25                  453 	.byte #0x50,#0x25	; 9552
      00009C 6C 25                  454 	.byte #0x6c,#0x25	; 9580
      00009E 67 25                  455 	.byte #0x67,#0x25	; 9575
      0000A0 68 25                  456 	.byte #0x68,#0x25	; 9576
      0000A2 64 25                  457 	.byte #0x64,#0x25	; 9572
      0000A4 65 25                  458 	.byte #0x65,#0x25	; 9573
      0000A6 59 25                  459 	.byte #0x59,#0x25	; 9561
      0000A8 58 25                  460 	.byte #0x58,#0x25	; 9560
      0000AA 52 25                  461 	.byte #0x52,#0x25	; 9554
      0000AC 53 25                  462 	.byte #0x53,#0x25	; 9555
      0000AE 6B 25                  463 	.byte #0x6b,#0x25	; 9579
      0000B0 6A 25                  464 	.byte #0x6a,#0x25	; 9578
      0000B2 18 25                  465 	.byte #0x18,#0x25	; 9496
      0000B4 0C 25                  466 	.byte #0x0c,#0x25	; 9484
      0000B6 88 25                  467 	.byte #0x88,#0x25	; 9608
      0000B8 84 25                  468 	.byte #0x84,#0x25	; 9604
      0000BA 8C 25                  469 	.byte #0x8c,#0x25	; 9612
      0000BC 90 25                  470 	.byte #0x90,#0x25	; 9616
      0000BE 80 25                  471 	.byte #0x80,#0x25	; 9600
      0000C0 B1 03                  472 	.byte #0xb1,#0x03	; 945
      0000C2 DF 00                  473 	.byte #0xdf,#0x00	; 223
      0000C4 93 03                  474 	.byte #0x93,#0x03	; 915
      0000C6 C0 03                  475 	.byte #0xc0,#0x03	; 960
      0000C8 A3 03                  476 	.byte #0xa3,#0x03	; 931
      0000CA C3 03                  477 	.byte #0xc3,#0x03	; 963
      0000CC B5 00                  478 	.byte #0xb5,#0x00	; 181
      0000CE C4 03                  479 	.byte #0xc4,#0x03	; 964
      0000D0 A6 03                  480 	.byte #0xa6,#0x03	; 934
      0000D2 98 03                  481 	.byte #0x98,#0x03	; 920
      0000D4 A9 03                  482 	.byte #0xa9,#0x03	; 937
      0000D6 B4 03                  483 	.byte #0xb4,#0x03	; 948
      0000D8 1E 22                  484 	.byte #0x1e,#0x22	; 8734
      0000DA C6 03                  485 	.byte #0xc6,#0x03	; 966
      0000DC B5 03                  486 	.byte #0xb5,#0x03	; 949
      0000DE 29 22                  487 	.byte #0x29,#0x22	; 8745
      0000E0 61 22                  488 	.byte #0x61,#0x22	; 8801
      0000E2 B1 00                  489 	.byte #0xb1,#0x00	; 177
      0000E4 65 22                  490 	.byte #0x65,#0x22	; 8805
      0000E6 64 22                  491 	.byte #0x64,#0x22	; 8804
      0000E8 20 23                  492 	.byte #0x20,#0x23	; 8992
      0000EA 21 23                  493 	.byte #0x21,#0x23	; 8993
      0000EC F7 00                  494 	.byte #0xf7,#0x00	; 247
      0000EE 48 22                  495 	.byte #0x48,#0x22	; 8776
      0000F0 B0 00                  496 	.byte #0xb0,#0x00	; 176
      0000F2 19 22                  497 	.byte #0x19,#0x22	; 8729
      0000F4 B7 00                  498 	.byte #0xb7,#0x00	; 183
      0000F6 1A 22                  499 	.byte #0x1a,#0x22	; 8730
      0000F8 7F 20                  500 	.byte #0x7f,#0x20	; 8319
      0000FA B2 00                  501 	.byte #0xb2,#0x00	; 178
      0000FC A0 25                  502 	.byte #0xa0,#0x25	; 9632
      0000FE A0 00                  503 	.byte #0xa0,#0x00	; 160
      000100                        504 _ff_wtoupper_tbl_lower_65536_45:
      000100 61 00                  505 	.byte #0x61,#0x00	; 97
      000102 62 00                  506 	.byte #0x62,#0x00	; 98
      000104 63 00                  507 	.byte #0x63,#0x00	; 99
      000106 64 00                  508 	.byte #0x64,#0x00	; 100
      000108 65 00                  509 	.byte #0x65,#0x00	; 101
      00010A 66 00                  510 	.byte #0x66,#0x00	; 102
      00010C 67 00                  511 	.byte #0x67,#0x00	; 103
      00010E 68 00                  512 	.byte #0x68,#0x00	; 104
      000110 69 00                  513 	.byte #0x69,#0x00	; 105
      000112 6A 00                  514 	.byte #0x6a,#0x00	; 106
      000114 6B 00                  515 	.byte #0x6b,#0x00	; 107
      000116 6C 00                  516 	.byte #0x6c,#0x00	; 108
      000118 6D 00                  517 	.byte #0x6d,#0x00	; 109
      00011A 6E 00                  518 	.byte #0x6e,#0x00	; 110
      00011C 6F 00                  519 	.byte #0x6f,#0x00	; 111
      00011E 70 00                  520 	.byte #0x70,#0x00	; 112
      000120 71 00                  521 	.byte #0x71,#0x00	; 113
      000122 72 00                  522 	.byte #0x72,#0x00	; 114
      000124 73 00                  523 	.byte #0x73,#0x00	; 115
      000126 74 00                  524 	.byte #0x74,#0x00	; 116
      000128 75 00                  525 	.byte #0x75,#0x00	; 117
      00012A 76 00                  526 	.byte #0x76,#0x00	; 118
      00012C 77 00                  527 	.byte #0x77,#0x00	; 119
      00012E 78 00                  528 	.byte #0x78,#0x00	; 120
      000130 79 00                  529 	.byte #0x79,#0x00	; 121
      000132 7A 00                  530 	.byte #0x7a,#0x00	; 122
      000134 A1 00                  531 	.byte #0xa1,#0x00	; 161
      000136 A2 00                  532 	.byte #0xa2,#0x00	; 162
      000138 A3 00                  533 	.byte #0xa3,#0x00	; 163
      00013A A5 00                  534 	.byte #0xa5,#0x00	; 165
      00013C AC 00                  535 	.byte #0xac,#0x00	; 172
      00013E AF 00                  536 	.byte #0xaf,#0x00	; 175
      000140 E0 00                  537 	.byte #0xe0,#0x00	; 224
      000142 E1 00                  538 	.byte #0xe1,#0x00	; 225
      000144 E2 00                  539 	.byte #0xe2,#0x00	; 226
      000146 E3 00                  540 	.byte #0xe3,#0x00	; 227
      000148 E4 00                  541 	.byte #0xe4,#0x00	; 228
      00014A E5 00                  542 	.byte #0xe5,#0x00	; 229
      00014C E6 00                  543 	.byte #0xe6,#0x00	; 230
      00014E E7 00                  544 	.byte #0xe7,#0x00	; 231
      000150 E8 00                  545 	.byte #0xe8,#0x00	; 232
      000152 E9 00                  546 	.byte #0xe9,#0x00	; 233
      000154 EA 00                  547 	.byte #0xea,#0x00	; 234
      000156 EB 00                  548 	.byte #0xeb,#0x00	; 235
      000158 EC 00                  549 	.byte #0xec,#0x00	; 236
      00015A ED 00                  550 	.byte #0xed,#0x00	; 237
      00015C EE 00                  551 	.byte #0xee,#0x00	; 238
      00015E EF 00                  552 	.byte #0xef,#0x00	; 239
      000160 F0 00                  553 	.byte #0xf0,#0x00	; 240
      000162 F1 00                  554 	.byte #0xf1,#0x00	; 241
      000164 F2 00                  555 	.byte #0xf2,#0x00	; 242
      000166 F3 00                  556 	.byte #0xf3,#0x00	; 243
      000168 F4 00                  557 	.byte #0xf4,#0x00	; 244
      00016A F5 00                  558 	.byte #0xf5,#0x00	; 245
      00016C F6 00                  559 	.byte #0xf6,#0x00	; 246
      00016E F8 00                  560 	.byte #0xf8,#0x00	; 248
      000170 F9 00                  561 	.byte #0xf9,#0x00	; 249
      000172 FA 00                  562 	.byte #0xfa,#0x00	; 250
      000174 FB 00                  563 	.byte #0xfb,#0x00	; 251
      000176 FC 00                  564 	.byte #0xfc,#0x00	; 252
      000178 FD 00                  565 	.byte #0xfd,#0x00	; 253
      00017A FE 00                  566 	.byte #0xfe,#0x00	; 254
      00017C FF 00                  567 	.byte #0xff,#0x00	; 255
      00017E 01 01                  568 	.byte #0x01,#0x01	; 257
      000180 03 01                  569 	.byte #0x03,#0x01	; 259
      000182 05 01                  570 	.byte #0x05,#0x01	; 261
      000184 07 01                  571 	.byte #0x07,#0x01	; 263
      000186 09 01                  572 	.byte #0x09,#0x01	; 265
      000188 0B 01                  573 	.byte #0x0b,#0x01	; 267
      00018A 0D 01                  574 	.byte #0x0d,#0x01	; 269
      00018C 0F 01                  575 	.byte #0x0f,#0x01	; 271
      00018E 11 01                  576 	.byte #0x11,#0x01	; 273
      000190 13 01                  577 	.byte #0x13,#0x01	; 275
      000192 15 01                  578 	.byte #0x15,#0x01	; 277
      000194 17 01                  579 	.byte #0x17,#0x01	; 279
      000196 19 01                  580 	.byte #0x19,#0x01	; 281
      000198 1B 01                  581 	.byte #0x1b,#0x01	; 283
      00019A 1D 01                  582 	.byte #0x1d,#0x01	; 285
      00019C 1F 01                  583 	.byte #0x1f,#0x01	; 287
      00019E 21 01                  584 	.byte #0x21,#0x01	; 289
      0001A0 23 01                  585 	.byte #0x23,#0x01	; 291
      0001A2 25 01                  586 	.byte #0x25,#0x01	; 293
      0001A4 27 01                  587 	.byte #0x27,#0x01	; 295
      0001A6 29 01                  588 	.byte #0x29,#0x01	; 297
      0001A8 2B 01                  589 	.byte #0x2b,#0x01	; 299
      0001AA 2D 01                  590 	.byte #0x2d,#0x01	; 301
      0001AC 2F 01                  591 	.byte #0x2f,#0x01	; 303
      0001AE 31 01                  592 	.byte #0x31,#0x01	; 305
      0001B0 33 01                  593 	.byte #0x33,#0x01	; 307
      0001B2 35 01                  594 	.byte #0x35,#0x01	; 309
      0001B4 37 01                  595 	.byte #0x37,#0x01	; 311
      0001B6 3A 01                  596 	.byte #0x3a,#0x01	; 314
      0001B8 3C 01                  597 	.byte #0x3c,#0x01	; 316
      0001BA 3E 01                  598 	.byte #0x3e,#0x01	; 318
      0001BC 40 01                  599 	.byte #0x40,#0x01	; 320
      0001BE 42 01                  600 	.byte #0x42,#0x01	; 322
      0001C0 44 01                  601 	.byte #0x44,#0x01	; 324
      0001C2 46 01                  602 	.byte #0x46,#0x01	; 326
      0001C4 48 01                  603 	.byte #0x48,#0x01	; 328
      0001C6 4B 01                  604 	.byte #0x4b,#0x01	; 331
      0001C8 4D 01                  605 	.byte #0x4d,#0x01	; 333
      0001CA 4F 01                  606 	.byte #0x4f,#0x01	; 335
      0001CC 51 01                  607 	.byte #0x51,#0x01	; 337
      0001CE 53 01                  608 	.byte #0x53,#0x01	; 339
      0001D0 55 01                  609 	.byte #0x55,#0x01	; 341
      0001D2 57 01                  610 	.byte #0x57,#0x01	; 343
      0001D4 59 01                  611 	.byte #0x59,#0x01	; 345
      0001D6 5B 01                  612 	.byte #0x5b,#0x01	; 347
      0001D8 5D 01                  613 	.byte #0x5d,#0x01	; 349
      0001DA 5F 01                  614 	.byte #0x5f,#0x01	; 351
      0001DC 61 01                  615 	.byte #0x61,#0x01	; 353
      0001DE 63 01                  616 	.byte #0x63,#0x01	; 355
      0001E0 65 01                  617 	.byte #0x65,#0x01	; 357
      0001E2 67 01                  618 	.byte #0x67,#0x01	; 359
      0001E4 69 01                  619 	.byte #0x69,#0x01	; 361
      0001E6 6B 01                  620 	.byte #0x6b,#0x01	; 363
      0001E8 6D 01                  621 	.byte #0x6d,#0x01	; 365
      0001EA 6F 01                  622 	.byte #0x6f,#0x01	; 367
      0001EC 71 01                  623 	.byte #0x71,#0x01	; 369
      0001EE 73 01                  624 	.byte #0x73,#0x01	; 371
      0001F0 75 01                  625 	.byte #0x75,#0x01	; 373
      0001F2 77 01                  626 	.byte #0x77,#0x01	; 375
      0001F4 7A 01                  627 	.byte #0x7a,#0x01	; 378
      0001F6 7C 01                  628 	.byte #0x7c,#0x01	; 380
      0001F8 7E 01                  629 	.byte #0x7e,#0x01	; 382
      0001FA 92 01                  630 	.byte #0x92,#0x01	; 402
      0001FC B1 03                  631 	.byte #0xb1,#0x03	; 945
      0001FE B2 03                  632 	.byte #0xb2,#0x03	; 946
      000200 B3 03                  633 	.byte #0xb3,#0x03	; 947
      000202 B4 03                  634 	.byte #0xb4,#0x03	; 948
      000204 B5 03                  635 	.byte #0xb5,#0x03	; 949
      000206 B6 03                  636 	.byte #0xb6,#0x03	; 950
      000208 B7 03                  637 	.byte #0xb7,#0x03	; 951
      00020A B8 03                  638 	.byte #0xb8,#0x03	; 952
      00020C B9 03                  639 	.byte #0xb9,#0x03	; 953
      00020E BA 03                  640 	.byte #0xba,#0x03	; 954
      000210 BB 03                  641 	.byte #0xbb,#0x03	; 955
      000212 BC 03                  642 	.byte #0xbc,#0x03	; 956
      000214 BD 03                  643 	.byte #0xbd,#0x03	; 957
      000216 BE 03                  644 	.byte #0xbe,#0x03	; 958
      000218 BF 03                  645 	.byte #0xbf,#0x03	; 959
      00021A C0 03                  646 	.byte #0xc0,#0x03	; 960
      00021C C1 03                  647 	.byte #0xc1,#0x03	; 961
      00021E C3 03                  648 	.byte #0xc3,#0x03	; 963
      000220 C4 03                  649 	.byte #0xc4,#0x03	; 964
      000222 C5 03                  650 	.byte #0xc5,#0x03	; 965
      000224 C6 03                  651 	.byte #0xc6,#0x03	; 966
      000226 C7 03                  652 	.byte #0xc7,#0x03	; 967
      000228 C8 03                  653 	.byte #0xc8,#0x03	; 968
      00022A C9 03                  654 	.byte #0xc9,#0x03	; 969
      00022C CA 03                  655 	.byte #0xca,#0x03	; 970
      00022E 30 04                  656 	.byte #0x30,#0x04	; 1072
      000230 31 04                  657 	.byte #0x31,#0x04	; 1073
      000232 32 04                  658 	.byte #0x32,#0x04	; 1074
      000234 33 04                  659 	.byte #0x33,#0x04	; 1075
      000236 34 04                  660 	.byte #0x34,#0x04	; 1076
      000238 35 04                  661 	.byte #0x35,#0x04	; 1077
      00023A 36 04                  662 	.byte #0x36,#0x04	; 1078
      00023C 37 04                  663 	.byte #0x37,#0x04	; 1079
      00023E 38 04                  664 	.byte #0x38,#0x04	; 1080
      000240 39 04                  665 	.byte #0x39,#0x04	; 1081
      000242 3A 04                  666 	.byte #0x3a,#0x04	; 1082
      000244 3B 04                  667 	.byte #0x3b,#0x04	; 1083
      000246 3C 04                  668 	.byte #0x3c,#0x04	; 1084
      000248 3D 04                  669 	.byte #0x3d,#0x04	; 1085
      00024A 3E 04                  670 	.byte #0x3e,#0x04	; 1086
      00024C 3F 04                  671 	.byte #0x3f,#0x04	; 1087
      00024E 40 04                  672 	.byte #0x40,#0x04	; 1088
      000250 41 04                  673 	.byte #0x41,#0x04	; 1089
      000252 42 04                  674 	.byte #0x42,#0x04	; 1090
      000254 43 04                  675 	.byte #0x43,#0x04	; 1091
      000256 44 04                  676 	.byte #0x44,#0x04	; 1092
      000258 45 04                  677 	.byte #0x45,#0x04	; 1093
      00025A 46 04                  678 	.byte #0x46,#0x04	; 1094
      00025C 47 04                  679 	.byte #0x47,#0x04	; 1095
      00025E 48 04                  680 	.byte #0x48,#0x04	; 1096
      000260 49 04                  681 	.byte #0x49,#0x04	; 1097
      000262 4A 04                  682 	.byte #0x4a,#0x04	; 1098
      000264 4B 04                  683 	.byte #0x4b,#0x04	; 1099
      000266 4C 04                  684 	.byte #0x4c,#0x04	; 1100
      000268 4D 04                  685 	.byte #0x4d,#0x04	; 1101
      00026A 4E 04                  686 	.byte #0x4e,#0x04	; 1102
      00026C 4F 04                  687 	.byte #0x4f,#0x04	; 1103
      00026E 51 04                  688 	.byte #0x51,#0x04	; 1105
      000270 52 04                  689 	.byte #0x52,#0x04	; 1106
      000272 53 04                  690 	.byte #0x53,#0x04	; 1107
      000274 54 04                  691 	.byte #0x54,#0x04	; 1108
      000276 55 04                  692 	.byte #0x55,#0x04	; 1109
      000278 56 04                  693 	.byte #0x56,#0x04	; 1110
      00027A 57 04                  694 	.byte #0x57,#0x04	; 1111
      00027C 58 04                  695 	.byte #0x58,#0x04	; 1112
      00027E 59 04                  696 	.byte #0x59,#0x04	; 1113
      000280 5A 04                  697 	.byte #0x5a,#0x04	; 1114
      000282 5B 04                  698 	.byte #0x5b,#0x04	; 1115
      000284 5C 04                  699 	.byte #0x5c,#0x04	; 1116
      000286 5E 04                  700 	.byte #0x5e,#0x04	; 1118
      000288 5F 04                  701 	.byte #0x5f,#0x04	; 1119
      00028A 70 21                  702 	.byte #0x70,#0x21	; 8560
      00028C 71 21                  703 	.byte #0x71,#0x21	; 8561
      00028E 72 21                  704 	.byte #0x72,#0x21	; 8562
      000290 73 21                  705 	.byte #0x73,#0x21	; 8563
      000292 74 21                  706 	.byte #0x74,#0x21	; 8564
      000294 75 21                  707 	.byte #0x75,#0x21	; 8565
      000296 76 21                  708 	.byte #0x76,#0x21	; 8566
      000298 77 21                  709 	.byte #0x77,#0x21	; 8567
      00029A 78 21                  710 	.byte #0x78,#0x21	; 8568
      00029C 79 21                  711 	.byte #0x79,#0x21	; 8569
      00029E 7A 21                  712 	.byte #0x7a,#0x21	; 8570
      0002A0 7B 21                  713 	.byte #0x7b,#0x21	; 8571
      0002A2 7C 21                  714 	.byte #0x7c,#0x21	; 8572
      0002A4 7D 21                  715 	.byte #0x7d,#0x21	; 8573
      0002A6 7E 21                  716 	.byte #0x7e,#0x21	; 8574
      0002A8 7F 21                  717 	.byte #0x7f,#0x21	; 8575
      0002AA 41 FF                  718 	.byte #0x41,#0xff	; 65345
      0002AC 42 FF                  719 	.byte #0x42,#0xff	; 65346
      0002AE 43 FF                  720 	.byte #0x43,#0xff	; 65347
      0002B0 44 FF                  721 	.byte #0x44,#0xff	; 65348
      0002B2 45 FF                  722 	.byte #0x45,#0xff	; 65349
      0002B4 46 FF                  723 	.byte #0x46,#0xff	; 65350
      0002B6 47 FF                  724 	.byte #0x47,#0xff	; 65351
      0002B8 48 FF                  725 	.byte #0x48,#0xff	; 65352
      0002BA 49 FF                  726 	.byte #0x49,#0xff	; 65353
      0002BC 4A FF                  727 	.byte #0x4a,#0xff	; 65354
      0002BE 4B FF                  728 	.byte #0x4b,#0xff	; 65355
      0002C0 4C FF                  729 	.byte #0x4c,#0xff	; 65356
      0002C2 4D FF                  730 	.byte #0x4d,#0xff	; 65357
      0002C4 4E FF                  731 	.byte #0x4e,#0xff	; 65358
      0002C6 4F FF                  732 	.byte #0x4f,#0xff	; 65359
      0002C8 50 FF                  733 	.byte #0x50,#0xff	; 65360
      0002CA 51 FF                  734 	.byte #0x51,#0xff	; 65361
      0002CC 52 FF                  735 	.byte #0x52,#0xff	; 65362
      0002CE 53 FF                  736 	.byte #0x53,#0xff	; 65363
      0002D0 54 FF                  737 	.byte #0x54,#0xff	; 65364
      0002D2 55 FF                  738 	.byte #0x55,#0xff	; 65365
      0002D4 56 FF                  739 	.byte #0x56,#0xff	; 65366
      0002D6 57 FF                  740 	.byte #0x57,#0xff	; 65367
      0002D8 58 FF                  741 	.byte #0x58,#0xff	; 65368
      0002DA 59 FF                  742 	.byte #0x59,#0xff	; 65369
      0002DC 5A FF                  743 	.byte #0x5a,#0xff	; 65370
      0002DE 00 00                  744 	.byte #0x00,#0x00	; 0
      0002E0                        745 _ff_wtoupper_tbl_upper_65536_45:
      0002E0 41 00                  746 	.byte #0x41,#0x00	; 65
      0002E2 42 00                  747 	.byte #0x42,#0x00	; 66
      0002E4 43 00                  748 	.byte #0x43,#0x00	; 67
      0002E6 44 00                  749 	.byte #0x44,#0x00	; 68
      0002E8 45 00                  750 	.byte #0x45,#0x00	; 69
      0002EA 46 00                  751 	.byte #0x46,#0x00	; 70
      0002EC 47 00                  752 	.byte #0x47,#0x00	; 71
      0002EE 48 00                  753 	.byte #0x48,#0x00	; 72
      0002F0 49 00                  754 	.byte #0x49,#0x00	; 73
      0002F2 4A 00                  755 	.byte #0x4a,#0x00	; 74
      0002F4 4B 00                  756 	.byte #0x4b,#0x00	; 75
      0002F6 4C 00                  757 	.byte #0x4c,#0x00	; 76
      0002F8 4D 00                  758 	.byte #0x4d,#0x00	; 77
      0002FA 4E 00                  759 	.byte #0x4e,#0x00	; 78
      0002FC 4F 00                  760 	.byte #0x4f,#0x00	; 79
      0002FE 50 00                  761 	.byte #0x50,#0x00	; 80
      000300 51 00                  762 	.byte #0x51,#0x00	; 81
      000302 52 00                  763 	.byte #0x52,#0x00	; 82
      000304 53 00                  764 	.byte #0x53,#0x00	; 83
      000306 54 00                  765 	.byte #0x54,#0x00	; 84
      000308 55 00                  766 	.byte #0x55,#0x00	; 85
      00030A 56 00                  767 	.byte #0x56,#0x00	; 86
      00030C 57 00                  768 	.byte #0x57,#0x00	; 87
      00030E 58 00                  769 	.byte #0x58,#0x00	; 88
      000310 59 00                  770 	.byte #0x59,#0x00	; 89
      000312 5A 00                  771 	.byte #0x5a,#0x00	; 90
      000314 21 00                  772 	.byte #0x21,#0x00	; 33
      000316 E0 FF                  773 	.byte #0xe0,#0xff	; 65504
      000318 E1 FF                  774 	.byte #0xe1,#0xff	; 65505
      00031A E5 FF                  775 	.byte #0xe5,#0xff	; 65509
      00031C E2 FF                  776 	.byte #0xe2,#0xff	; 65506
      00031E E3 FF                  777 	.byte #0xe3,#0xff	; 65507
      000320 C0 00                  778 	.byte #0xc0,#0x00	; 192
      000322 C1 00                  779 	.byte #0xc1,#0x00	; 193
      000324 C2 00                  780 	.byte #0xc2,#0x00	; 194
      000326 C3 00                  781 	.byte #0xc3,#0x00	; 195
      000328 C4 00                  782 	.byte #0xc4,#0x00	; 196
      00032A C5 00                  783 	.byte #0xc5,#0x00	; 197
      00032C C6 00                  784 	.byte #0xc6,#0x00	; 198
      00032E C7 00                  785 	.byte #0xc7,#0x00	; 199
      000330 C8 00                  786 	.byte #0xc8,#0x00	; 200
      000332 C9 00                  787 	.byte #0xc9,#0x00	; 201
      000334 CA 00                  788 	.byte #0xca,#0x00	; 202
      000336 CB 00                  789 	.byte #0xcb,#0x00	; 203
      000338 CC 00                  790 	.byte #0xcc,#0x00	; 204
      00033A CD 00                  791 	.byte #0xcd,#0x00	; 205
      00033C CE 00                  792 	.byte #0xce,#0x00	; 206
      00033E CF 00                  793 	.byte #0xcf,#0x00	; 207
      000340 D0 00                  794 	.byte #0xd0,#0x00	; 208
      000342 D1 00                  795 	.byte #0xd1,#0x00	; 209
      000344 D2 00                  796 	.byte #0xd2,#0x00	; 210
      000346 D3 00                  797 	.byte #0xd3,#0x00	; 211
      000348 D4 00                  798 	.byte #0xd4,#0x00	; 212
      00034A D5 00                  799 	.byte #0xd5,#0x00	; 213
      00034C D6 00                  800 	.byte #0xd6,#0x00	; 214
      00034E D8 00                  801 	.byte #0xd8,#0x00	; 216
      000350 D9 00                  802 	.byte #0xd9,#0x00	; 217
      000352 DA 00                  803 	.byte #0xda,#0x00	; 218
      000354 DB 00                  804 	.byte #0xdb,#0x00	; 219
      000356 DC 00                  805 	.byte #0xdc,#0x00	; 220
      000358 DD 00                  806 	.byte #0xdd,#0x00	; 221
      00035A DE 00                  807 	.byte #0xde,#0x00	; 222
      00035C 78 01                  808 	.byte #0x78,#0x01	; 376
      00035E 00 01                  809 	.byte #0x00,#0x01	; 256
      000360 02 01                  810 	.byte #0x02,#0x01	; 258
      000362 04 01                  811 	.byte #0x04,#0x01	; 260
      000364 06 01                  812 	.byte #0x06,#0x01	; 262
      000366 08 01                  813 	.byte #0x08,#0x01	; 264
      000368 0A 01                  814 	.byte #0x0a,#0x01	; 266
      00036A 0C 01                  815 	.byte #0x0c,#0x01	; 268
      00036C 0E 01                  816 	.byte #0x0e,#0x01	; 270
      00036E 10 01                  817 	.byte #0x10,#0x01	; 272
      000370 12 01                  818 	.byte #0x12,#0x01	; 274
      000372 14 01                  819 	.byte #0x14,#0x01	; 276
      000374 16 01                  820 	.byte #0x16,#0x01	; 278
      000376 18 01                  821 	.byte #0x18,#0x01	; 280
      000378 1A 01                  822 	.byte #0x1a,#0x01	; 282
      00037A 1C 01                  823 	.byte #0x1c,#0x01	; 284
      00037C 1E 01                  824 	.byte #0x1e,#0x01	; 286
      00037E 20 01                  825 	.byte #0x20,#0x01	; 288
      000380 22 01                  826 	.byte #0x22,#0x01	; 290
      000382 24 01                  827 	.byte #0x24,#0x01	; 292
      000384 26 01                  828 	.byte #0x26,#0x01	; 294
      000386 28 01                  829 	.byte #0x28,#0x01	; 296
      000388 2A 01                  830 	.byte #0x2a,#0x01	; 298
      00038A 2C 01                  831 	.byte #0x2c,#0x01	; 300
      00038C 2E 01                  832 	.byte #0x2e,#0x01	; 302
      00038E 30 01                  833 	.byte #0x30,#0x01	; 304
      000390 32 01                  834 	.byte #0x32,#0x01	; 306
      000392 34 01                  835 	.byte #0x34,#0x01	; 308
      000394 36 01                  836 	.byte #0x36,#0x01	; 310
      000396 39 01                  837 	.byte #0x39,#0x01	; 313
      000398 3B 01                  838 	.byte #0x3b,#0x01	; 315
      00039A 3D 01                  839 	.byte #0x3d,#0x01	; 317
      00039C 3F 01                  840 	.byte #0x3f,#0x01	; 319
      00039E 41 01                  841 	.byte #0x41,#0x01	; 321
      0003A0 43 01                  842 	.byte #0x43,#0x01	; 323
      0003A2 45 01                  843 	.byte #0x45,#0x01	; 325
      0003A4 47 01                  844 	.byte #0x47,#0x01	; 327
      0003A6 4A 01                  845 	.byte #0x4a,#0x01	; 330
      0003A8 4C 01                  846 	.byte #0x4c,#0x01	; 332
      0003AA 4E 01                  847 	.byte #0x4e,#0x01	; 334
      0003AC 50 01                  848 	.byte #0x50,#0x01	; 336
      0003AE 52 01                  849 	.byte #0x52,#0x01	; 338
      0003B0 54 01                  850 	.byte #0x54,#0x01	; 340
      0003B2 56 01                  851 	.byte #0x56,#0x01	; 342
      0003B4 58 01                  852 	.byte #0x58,#0x01	; 344
      0003B6 5A 01                  853 	.byte #0x5a,#0x01	; 346
      0003B8 5C 01                  854 	.byte #0x5c,#0x01	; 348
      0003BA 5E 01                  855 	.byte #0x5e,#0x01	; 350
      0003BC 60 01                  856 	.byte #0x60,#0x01	; 352
      0003BE 62 01                  857 	.byte #0x62,#0x01	; 354
      0003C0 64 01                  858 	.byte #0x64,#0x01	; 356
      0003C2 66 01                  859 	.byte #0x66,#0x01	; 358
      0003C4 68 01                  860 	.byte #0x68,#0x01	; 360
      0003C6 6A 01                  861 	.byte #0x6a,#0x01	; 362
      0003C8 6C 01                  862 	.byte #0x6c,#0x01	; 364
      0003CA 6E 01                  863 	.byte #0x6e,#0x01	; 366
      0003CC 70 01                  864 	.byte #0x70,#0x01	; 368
      0003CE 72 01                  865 	.byte #0x72,#0x01	; 370
      0003D0 74 01                  866 	.byte #0x74,#0x01	; 372
      0003D2 76 01                  867 	.byte #0x76,#0x01	; 374
      0003D4 79 01                  868 	.byte #0x79,#0x01	; 377
      0003D6 7B 01                  869 	.byte #0x7b,#0x01	; 379
      0003D8 7D 01                  870 	.byte #0x7d,#0x01	; 381
      0003DA 91 01                  871 	.byte #0x91,#0x01	; 401
      0003DC 91 03                  872 	.byte #0x91,#0x03	; 913
      0003DE 92 03                  873 	.byte #0x92,#0x03	; 914
      0003E0 93 03                  874 	.byte #0x93,#0x03	; 915
      0003E2 94 03                  875 	.byte #0x94,#0x03	; 916
      0003E4 95 03                  876 	.byte #0x95,#0x03	; 917
      0003E6 96 03                  877 	.byte #0x96,#0x03	; 918
      0003E8 97 03                  878 	.byte #0x97,#0x03	; 919
      0003EA 98 03                  879 	.byte #0x98,#0x03	; 920
      0003EC 99 03                  880 	.byte #0x99,#0x03	; 921
      0003EE 9A 03                  881 	.byte #0x9a,#0x03	; 922
      0003F0 9B 03                  882 	.byte #0x9b,#0x03	; 923
      0003F2 9C 03                  883 	.byte #0x9c,#0x03	; 924
      0003F4 9D 03                  884 	.byte #0x9d,#0x03	; 925
      0003F6 9E 03                  885 	.byte #0x9e,#0x03	; 926
      0003F8 9F 03                  886 	.byte #0x9f,#0x03	; 927
      0003FA A0 03                  887 	.byte #0xa0,#0x03	; 928
      0003FC A1 03                  888 	.byte #0xa1,#0x03	; 929
      0003FE A3 03                  889 	.byte #0xa3,#0x03	; 931
      000400 A4 03                  890 	.byte #0xa4,#0x03	; 932
      000402 A5 03                  891 	.byte #0xa5,#0x03	; 933
      000404 A6 03                  892 	.byte #0xa6,#0x03	; 934
      000406 A7 03                  893 	.byte #0xa7,#0x03	; 935
      000408 A8 03                  894 	.byte #0xa8,#0x03	; 936
      00040A A9 03                  895 	.byte #0xa9,#0x03	; 937
      00040C AA 03                  896 	.byte #0xaa,#0x03	; 938
      00040E 10 04                  897 	.byte #0x10,#0x04	; 1040
      000410 11 04                  898 	.byte #0x11,#0x04	; 1041
      000412 12 04                  899 	.byte #0x12,#0x04	; 1042
      000414 13 04                  900 	.byte #0x13,#0x04	; 1043
      000416 14 04                  901 	.byte #0x14,#0x04	; 1044
      000418 15 04                  902 	.byte #0x15,#0x04	; 1045
      00041A 16 04                  903 	.byte #0x16,#0x04	; 1046
      00041C 17 04                  904 	.byte #0x17,#0x04	; 1047
      00041E 18 04                  905 	.byte #0x18,#0x04	; 1048
      000420 19 04                  906 	.byte #0x19,#0x04	; 1049
      000422 1A 04                  907 	.byte #0x1a,#0x04	; 1050
      000424 1B 04                  908 	.byte #0x1b,#0x04	; 1051
      000426 1C 04                  909 	.byte #0x1c,#0x04	; 1052
      000428 1D 04                  910 	.byte #0x1d,#0x04	; 1053
      00042A 1E 04                  911 	.byte #0x1e,#0x04	; 1054
      00042C 1F 04                  912 	.byte #0x1f,#0x04	; 1055
      00042E 20 04                  913 	.byte #0x20,#0x04	; 1056
      000430 21 04                  914 	.byte #0x21,#0x04	; 1057
      000432 22 04                  915 	.byte #0x22,#0x04	; 1058
      000434 23 04                  916 	.byte #0x23,#0x04	; 1059
      000436 24 04                  917 	.byte #0x24,#0x04	; 1060
      000438 25 04                  918 	.byte #0x25,#0x04	; 1061
      00043A 26 04                  919 	.byte #0x26,#0x04	; 1062
      00043C 27 04                  920 	.byte #0x27,#0x04	; 1063
      00043E 28 04                  921 	.byte #0x28,#0x04	; 1064
      000440 29 04                  922 	.byte #0x29,#0x04	; 1065
      000442 2A 04                  923 	.byte #0x2a,#0x04	; 1066
      000444 2B 04                  924 	.byte #0x2b,#0x04	; 1067
      000446 2C 04                  925 	.byte #0x2c,#0x04	; 1068
      000448 2D 04                  926 	.byte #0x2d,#0x04	; 1069
      00044A 2E 04                  927 	.byte #0x2e,#0x04	; 1070
      00044C 2F 04                  928 	.byte #0x2f,#0x04	; 1071
      00044E 01 04                  929 	.byte #0x01,#0x04	; 1025
      000450 02 04                  930 	.byte #0x02,#0x04	; 1026
      000452 03 04                  931 	.byte #0x03,#0x04	; 1027
      000454 04 04                  932 	.byte #0x04,#0x04	; 1028
      000456 05 04                  933 	.byte #0x05,#0x04	; 1029
      000458 06 04                  934 	.byte #0x06,#0x04	; 1030
      00045A 07 04                  935 	.byte #0x07,#0x04	; 1031
      00045C 08 04                  936 	.byte #0x08,#0x04	; 1032
      00045E 09 04                  937 	.byte #0x09,#0x04	; 1033
      000460 0A 04                  938 	.byte #0x0a,#0x04	; 1034
      000462 0B 04                  939 	.byte #0x0b,#0x04	; 1035
      000464 0C 04                  940 	.byte #0x0c,#0x04	; 1036
      000466 0E 04                  941 	.byte #0x0e,#0x04	; 1038
      000468 0F 04                  942 	.byte #0x0f,#0x04	; 1039
      00046A 60 21                  943 	.byte #0x60,#0x21	; 8544
      00046C 61 21                  944 	.byte #0x61,#0x21	; 8545
      00046E 62 21                  945 	.byte #0x62,#0x21	; 8546
      000470 63 21                  946 	.byte #0x63,#0x21	; 8547
      000472 64 21                  947 	.byte #0x64,#0x21	; 8548
      000474 65 21                  948 	.byte #0x65,#0x21	; 8549
      000476 66 21                  949 	.byte #0x66,#0x21	; 8550
      000478 67 21                  950 	.byte #0x67,#0x21	; 8551
      00047A 68 21                  951 	.byte #0x68,#0x21	; 8552
      00047C 69 21                  952 	.byte #0x69,#0x21	; 8553
      00047E 6A 21                  953 	.byte #0x6a,#0x21	; 8554
      000480 6B 21                  954 	.byte #0x6b,#0x21	; 8555
      000482 6C 21                  955 	.byte #0x6c,#0x21	; 8556
      000484 6D 21                  956 	.byte #0x6d,#0x21	; 8557
      000486 6E 21                  957 	.byte #0x6e,#0x21	; 8558
      000488 6F 21                  958 	.byte #0x6f,#0x21	; 8559
      00048A 21 FF                  959 	.byte #0x21,#0xff	; 65313
      00048C 22 FF                  960 	.byte #0x22,#0xff	; 65314
      00048E 23 FF                  961 	.byte #0x23,#0xff	; 65315
      000490 24 FF                  962 	.byte #0x24,#0xff	; 65316
      000492 25 FF                  963 	.byte #0x25,#0xff	; 65317
      000494 26 FF                  964 	.byte #0x26,#0xff	; 65318
      000496 27 FF                  965 	.byte #0x27,#0xff	; 65319
      000498 28 FF                  966 	.byte #0x28,#0xff	; 65320
      00049A 29 FF                  967 	.byte #0x29,#0xff	; 65321
      00049C 2A FF                  968 	.byte #0x2a,#0xff	; 65322
      00049E 2B FF                  969 	.byte #0x2b,#0xff	; 65323
      0004A0 2C FF                  970 	.byte #0x2c,#0xff	; 65324
      0004A2 2D FF                  971 	.byte #0x2d,#0xff	; 65325
      0004A4 2E FF                  972 	.byte #0x2e,#0xff	; 65326
      0004A6 2F FF                  973 	.byte #0x2f,#0xff	; 65327
      0004A8 30 FF                  974 	.byte #0x30,#0xff	; 65328
      0004AA 31 FF                  975 	.byte #0x31,#0xff	; 65329
      0004AC 32 FF                  976 	.byte #0x32,#0xff	; 65330
      0004AE 33 FF                  977 	.byte #0x33,#0xff	; 65331
      0004B0 34 FF                  978 	.byte #0x34,#0xff	; 65332
      0004B2 35 FF                  979 	.byte #0x35,#0xff	; 65333
      0004B4 36 FF                  980 	.byte #0x36,#0xff	; 65334
      0004B6 37 FF                  981 	.byte #0x37,#0xff	; 65335
      0004B8 38 FF                  982 	.byte #0x38,#0xff	; 65336
      0004BA 39 FF                  983 	.byte #0x39,#0xff	; 65337
      0004BC 3A FF                  984 	.byte #0x3a,#0xff	; 65338
      0004BE 00 00                  985 	.byte #0x00,#0x00	; 0
                                    986 	.area XINIT   (CODE)
                                    987 	.area CABS    (ABS,CODE)
