BL51 BANKED LINKER/LOCATER V6.22                                                        04/05/2019  05:01:37  PAGE 1


BL51 BANKED LINKER/LOCATER V6.22, INVOKED BY:
C:\KEIL\C51\BIN\BL51.EXE STARTUP.obj, compactflash.obj, delay.obj, led.obj, main.obj, sysctrl.obj, test.obj, sio.obj, IS
>> D51.obj, diskio.obj, ff.obj, ffsystem.obj, cfdiskio.obj, dvddiskio.obj, ffunicode.obj, ramdiskio.obj, sddiskio.obj TO
>>  Test8051 REGFILE (.\Test8051.ORC) RAMSIZE (256) CODE (0X0000-0X7FFF) XDATA (0X8000-0XFEFF)


MEMORY MODEL: LARGE


INPUT MODULES INCLUDED:
  STARTUP.obj (?C_STARTUP)
  compactflash.obj (COMPACTFLASH)
  delay.obj (DELAY)
  led.obj (LED)
  main.obj (MAIN)
  sysctrl.obj (SYSCTRL)
  test.obj (TEST)
  sio.obj (SIO)
  ISD51.obj (ISD51_CONFIGURATION)
  diskio.obj (DISKIO)
  ff.obj (FF)
  ffsystem.obj (FFSYSTEM)
  cfdiskio.obj (CFDISKIO)
  dvddiskio.obj (DVDDISKIO)
  ffunicode.obj (FFUNICODE)
  ramdiskio.obj (RAMDISKIO)
  sddiskio.obj (SDDISKIO)
  C:\KEIL\C51\LIB\C51L.LIB (?C_INIT)
  C:\KEIL\C51\LIB\C51L.LIB (?C?CLDPTR)
  C:\KEIL\C51\LIB\C51L.LIB (?C?CLDOPTR)
  C:\KEIL\C51\LIB\C51L.LIB (?C?CSTPTR)
  C:\KEIL\C51\LIB\C51L.LIB (?C?CSTOPTR)
  C:\KEIL\C51\LIB\C51L.LIB (?C?IMUL)
  C:\KEIL\C51\LIB\C51L.LIB (?C?UIDIV)
  C:\KEIL\C51\LIB\C51L.LIB (?C?IILDX)
  C:\KEIL\C51\LIB\C51L.LIB (?C?ILDIX)
  C:\KEIL\C51\LIB\C51L.LIB (?C?ILDPTR)
  C:\KEIL\C51\LIB\C51L.LIB (?C?ILDOPTR)
  C:\KEIL\C51\LIB\C51L.LIB (?C?IILDPTR)
  C:\KEIL\C51\LIB\C51L.LIB (?C?ISTPTR)
  C:\KEIL\C51\LIB\C51L.LIB (?C?ISTOPTR)
  C:\KEIL\C51\LIB\C51L.LIB (?C?LADD)
  C:\KEIL\C51\LIB\C51L.LIB (?C?LSUB)
  C:\KEIL\C51\LIB\C51L.LIB (?C?LMUL)
  C:\KEIL\C51\LIB\C51L.LIB (?C?ULDIV)
  C:\KEIL\C51\LIB\C51L.LIB (?C?LAND)
  C:\KEIL\C51\LIB\C51L.LIB (?C?LOR)
  C:\KEIL\C51\LIB\C51L.LIB (?C?LNOT)
  C:\KEIL\C51\LIB\C51L.LIB (?C?ULCMP)
  C:\KEIL\C51\LIB\C51L.LIB (?C?ULSHR)
  C:\KEIL\C51\LIB\C51L.LIB (?C?LSHL)
  C:\KEIL\C51\LIB\C51L.LIB (?C?LLDPTR)
  C:\KEIL\C51\LIB\C51L.LIB (?C?LLDOPTR)
  C:\KEIL\C51\LIB\C51L.LIB (?C?LSTPTR)
  C:\KEIL\C51\LIB\C51L.LIB (?C?LSTOPTR)
  C:\KEIL\C51\LIB\C51L.LIB (?C?LLDXDATA)
  C:\KEIL\C51\LIB\C51L.LIB (?C?LLDXDATA0)
  C:\KEIL\C51\LIB\C51L.LIB (?C?LLDPTR0)
BL51 BANKED LINKER/LOCATER V6.22                                                      04/05/2019  05:01:37  PAGE 2


  C:\KEIL\C51\LIB\C51L.LIB (?C?LLDOPTR0)
  C:\KEIL\C51\LIB\C51L.LIB (?C?LSTXDATA)
  C:\KEIL\C51\LIB\C51L.LIB (?C?LSTKXDATA)
  C:\KEIL\C51\LIB\C51L.LIB (?C?LSTKPTR)
  C:\KEIL\C51\LIB\C51L.LIB (?C?LSTKOPTR)
  C:\KEIL\C51\LIB\C51L.LIB (?C?OFFXADD)
  C:\KEIL\C51\LIB\C51L.LIB (?C?PLDXDATA)
  C:\KEIL\C51\LIB\C51L.LIB (?C?PLDIXDATA)
  C:\KEIL\C51\LIB\C51L.LIB (?C?PSTXDATA)
  C:\KEIL\C51\LIB\C51L.LIB (?C?PLDPTR)
  C:\KEIL\C51\LIB\C51L.LIB (?C?PSTPTR)
  C:\KEIL\C51\LIB\C51L.LIB (?C?PLDOPTR)
  C:\KEIL\C51\LIB\C51L.LIB (?C?PSTOPTR)
  C:\KEIL\C51\LIB\C51L.LIB (?C?CCASE)
  C:\KEIL\C51\LIB\C51L.LIB (?C_XBP)
  C:\KEIL\C51\LIB\C51L.LIB (?C?LIMUL)
  C:\KEIL\C51\LIB\C51L.LIB (ISD_CORE_FUNCTIONS)
  C:\KEIL\C51\LIB\C51L.LIB (?C?LLDIDATA)
  C:\KEIL\C51\LIB\C51L.LIB (?C?LLDPDATA)
  C:\KEIL\C51\LIB\C51L.LIB (?C?LLDCODE)
  C:\KEIL\C51\LIB\C51L.LIB (?C?LLDIDATA0)
  C:\KEIL\C51\LIB\C51L.LIB (?C?LLDPDATA0)
  C:\KEIL\C51\LIB\C51L.LIB (?C?LLDCODE0)
  C:\KEIL\C51\LIB\C51L.LIB (?C?LSTIDATA)
  C:\KEIL\C51\LIB\C51L.LIB (?C?LSTPDATA)
  C:\KEIL\C51\LIB\C51L.LIB (?C?LSTKIDATA)
  C:\KEIL\C51\LIB\C51L.LIB (?C?LSTKPDATA)
  C:\KEIL\C51\LIB\C51L.LIB (?C?PLDIDATA)
  C:\KEIL\C51\LIB\C51L.LIB (?C?PSTIDATA)
  C:\KEIL\C51\LIB\C51L.LIB (?C?PLDPDATA)
  C:\KEIL\C51\LIB\C51L.LIB (?C?PSTPDATA)
  C:\KEIL\C51\LIB\C51L.LIB (?C?PLDCODE)


LINK MAP OF MODULE:  Test8051 (?C_STARTUP)


            TYPE    BASE      LENGTH    RELOCATION   SEGMENT NAME
            -----------------------------------------------------

            * * * * * * *   D A T A   M E M O R Y   * * * * * * *
            REG     0000H     0008H     ABSOLUTE     "REG BANK 0"
            DATA    0008H     0002H     UNIT         ?C?LIB_DATA
            DATA    000AH     0001H     UNIT         ?DT?ISD51
            IDATA   000BH     0001H     UNIT         ?STACK

            * * * * * * *  X D A T A   M E M O R Y  * * * * * * *
                    0000H     8000H                  *** GAP ***
            XDATA   8000H     047EH     UNIT         _XDATA_GROUP_
            XDATA   847EH     03AEH     UNIT         ?XD?FFUNICODE
            XDATA   882CH     02A4H     UNIT         ?XD?FF
            XDATA   8AD0H     0200H     UNIT         ?XD?TEST
            XDATA   8CD0H     0053H     UNIT         ?XD?_F_SETLABEL?FF
            XDATA   8D23H     0041H     UNIT         ?XD?_F_GETLABEL?FF
            XDATA   8D64H     001FH     UNIT         ?XD?_F_WRITE?FF
            XDATA   8D83H     0011H     UNIT         ?XD?_GET_FILEINFO?FF
            XDATA   8D94H     000EH     UNIT         ?XD?_PICK_LFN?FF
BL51 BANKED LINKER/LOCATER V6.22                                                      04/05/2019  05:01:37  PAGE 3


            XDATA   8DA2H     000DH     UNIT         ?XD?_PUT_UTF?FF
            XDATA   8DAFH     000DH     UNIT         ?XD?_DIR_READ?FF
            XDATA   8DBCH     000AH     UNIT         ?XD?_F_OPENDIR?FF
            XDATA   8DC6H     0009H     UNIT         ?XD?_F_READDIR?FF
            XDATA   8DCFH     0008H     UNIT         ?XD?_SIORXSTR?SIO
            XDATA   8DD7H     0008H     UNIT         ?XD?_SIORXBUF?SIO
            XDATA   8DDFH     0006H     UNIT         ?XD?_F_CLOSEDIR?FF
            XDATA   8DE5H     0005H     UNIT         ?XD?_RAM_DISK_IOCTL?RAMDISKIO
            XDATA   8DEAH     0005H     UNIT         ?XD?_SD_DISK_IOCTL?SDDISKIO
            XDATA   8DEFH     0004H     UNIT         ?XD?_FF_OEM2UNI?FFUNICODE
            XDATA   8DF3H     0001H     UNIT         ?XD?_CFDISKGETSECTORCOUNT?COMPACTFLASH
            XDATA   8DF4H     0001H     UNIT         ?XD?_PIOTEST?TEST
            XDATA   8DF5H     0001H     UNIT         ?XD?_CFTEST?TEST
            XDATA   8DF6H     0001H     UNIT         ?XD?_SIOCLOSE?SIO
            XDATA   8DF7H     0001H     UNIT         ?XD?_SIOWAITTXDONE?SIO
            XDATA   8DF8H     0001H     UNIT         ?XD?_SIOWAITRXDONE?SIO
            XDATA   8DF9H     0001H     UNIT         ?XD?_SIORX?SIO
            XDATA   8DFAH     0001H     UNIT         ?XD?_CF_DISK_IOCTL?CFDISKIO
            XDATA   8DFBH     0001H     UNIT         ?XD?_DVD_DISK_IOCTL?DVDDISKIO

            * * * * * * *   C O D E   M E M O R Y   * * * * * * *
            CODE    0000H     0003H     ABSOLUTE     
            CODE    0003H     001FH     UNIT         ?PR?COMPACTFLASH
            CODE    0022H     0001H     UNIT         ?PR?LEDINIT?LED
            CODE    0023H     0003H     ABSOLUTE     
            CODE    0026H     083EH     UNIT         ?PR?FF
            CODE    0864H     0747H     UNIT         ?C?LIB_CODE
            CODE    0FABH     05C1H     UNIT         ?PR?_FIND_VOLUME?FF
            CODE    156CH     0464H     UNIT         ?C_INITSEG
            CODE    19D0H     03D2H     UNIT         ?PR?_CREATE_NAME?FF
            CODE    1DA2H     034EH     UNIT         ?PR?_F_WRITE?FF
            CODE    20F0H     0321H     UNIT         ?PR?_GET_FILEINFO?FF
            CODE    2411H     031DH     UNIT         ?PR?_F_OPEN?FF
            CODE    272EH     02C5H     UNIT         ?PR?_F_LSEEK?FF
            CODE    29F3H     02B4H     UNIT         ?PR?_F_READ?FF
            CODE    2CA7H     0285H     INBLOCK      ?PR?ISD51
            CODE    2F2CH     023EH     UNIT         ?PR?_DIR_REGISTER?FF
            CODE    316AH     0218H     UNIT         ?PR?_CREATE_CHAIN?FF
            CODE    3382H     01DCH     UNIT         ?PR?_PUT_FAT?FF
            CODE    355EH     01CCH     UNIT         ?PR?_F_SETLABEL?FF
            CODE    372AH     01B4H     UNIT         ?PR?_GEN_NUMNAME?FF
            CODE    38DEH     01AEH     UNIT         ?PR?_DIR_NEXT?FF
            CODE    3A8CH     01A2H     UNIT         ?PR?_GET_FAT?FF
            CODE    3C2EH     0199H     UNIT         ?PR?_F_GETLABEL?FF
            CODE    3DC7H     0193H     UNIT         ?PR?_DIR_FIND?FF
            CODE    3F5AH     0193H     UNIT         ?PR?_FF_WTOUPPER?FFUNICODE
            CODE    40EDH     0190H     UNIT         ?PR?_DIR_SDI?FF
            CODE    427DH     0188H     UNIT         ?PR?_DIR_READ?FF
            CODE    4405H     017BH     UNIT         ?PR?_FATFSTEST?TEST
            CODE    4580H     0150H     UNIT         ?PR?_TCHAR2UNI?FF
            CODE    46D0H     014DH     UNIT         ?PR?_PUT_UTF?FF
            CODE    481DH     010EH     UNIT         ?PR?_SYNC_FS?FF
            CODE    492BH     0106H     UNIT         ?PR?_CMP_LFN?FF
            CODE    4A31H     0100H     UNIT         ?PR?_REMOVE_CHAIN?FF
            CODE    4B31H     00FCH     UNIT         ?CO?TEST
            CODE    4C2DH     00FCH     UNIT         ?PR?_F_SYNC?FF
            CODE    4D29H     00F0H     UNIT         ?PR?_PUT_LFN?FF
BL51 BANKED LINKER/LOCATER V6.22                                                      04/05/2019  05:01:37  PAGE 4


            CODE    4E19H     00E3H     UNIT         ?PR?_PICK_LFN?FF
            CODE    4EFCH     00D9H     UNIT         ?PR?_CFREADSECTOR?COMPACTFLASH
            CODE    4FD5H     00D0H     UNIT         ?PR?_F_OPENDIR?FF
            CODE    50A5H     00CEH     UNIT         ?PR?_GET_LDNUMBER?FF
            CODE    5173H     00CDH     UNIT         ?PR?_FOLLOW_PATH?FF
            CODE    5240H     00C6H     UNIT         ?PR?_DIR_CLEAR?FF
            CODE    5306H     00C1H     UNIT         ?PR?_DISK_READ?DISKIO
            CODE    53C7H     00C1H     UNIT         ?PR?_DISK_WRITE?DISKIO
            CODE    5488H     00BAH     UNIT         ?PR?_CFWRITESECTOR?COMPACTFLASH
            CODE    5542H     00B9H     UNIT         ?PR?_SYNC_WINDOW?FF
            CODE    55FBH     00AFH     UNIT         ?PR?_CHECK_FS?FF
            CODE    56AAH     00A0H     UNIT         ?C_C51STARTUP
            CODE    574AH     0092H     UNIT         ?PR?_FF_UNI2OEM?FFUNICODE
            CODE    57DCH     008FH     UNIT         ?PR?_DIR_ALLOC?FF
            CODE    586BH     0072H     UNIT         ?PR?_MOVE_WINDOW?FF
            CODE    58DDH     0070H     UNIT         ?PR?_LD_DWORD?FF
            CODE    594DH     006DH     UNIT         ?PR?_VALIDATE?FF
            CODE    59BAH     006CH     UNIT         ?PR?_F_MOUNT?FF
            CODE    5A26H     0065H     UNIT         ?PR?_F_READDIR?FF
            CODE    5A8BH     0060H     UNIT         ?PR?_PIOTEST?TEST
            CODE    5AEBH     005CH     UNIT         ?PR?_DISK_INITIALIZE?DISKIO
            CODE    5B47H     005CH     UNIT         ?PR?DISKIO
            CODE    5BA3H     005CH     UNIT         ?PR?_CLST2SECT?FF
            CODE    5BFFH     005CH     UNIT         ?PR?_FF_OEM2UNI?FFUNICODE
            CODE    5C5BH     0052H     UNIT         ?PR?_LD_CLUST?FF
            CODE    5CADH     0047H     UNIT         ?PR?_DISK_STATUS?DISKIO
            CODE    5CF4H     0040H     UNIT         ?PR?FFUNICODE
            CODE    5D34H     003FH     UNIT         ?PR?_CF_DISK_IOCTL?CFDISKIO
            CODE    5D73H     003FH     UNIT         ?PR?_DVD_DISK_IOCTL?DVDDISKIO
            CODE    5DB2H     0036H     UNIT         ?PR?_MEM_CMP?FF
            CODE    5DE8H     0035H     UNIT         ?PR?_MEM_CPY?FF
            CODE    5E1DH     0034H     UNIT         ?PR?_F_CLOSE?FF
            CODE    5E51H     0034H     UNIT         ?PR?_F_CLOSEDIR?FF
            CODE    5E85H     0032H     UNIT         ?PR?_DISK_IOCTL?DISKIO
            CODE    5EB7H     0032H     UNIT         ?PR?_ST_CLUST?FF
            CODE    5EE9H     0030H     UNIT         ?PR?_SIORXSTR?SIO
            CODE    5F19H     0030H     UNIT         ?PR?_SUM_SFN?FF
            CODE    5F49H     002FH     UNIT         ?PR?TEST
            CODE    5F78H     002FH     UNIT         ?PR?_SIORXBUF?SIO
            CODE    5FA7H     002DH     UNIT         ?PR?_SIOTXBUF?SIO
            CODE    5FD4H     0028H     UNIT         ?PR?_CFTEST?TEST
            CODE    5FFCH     0027H     UNIT         ?PR?_SIOTXSTR?SIO
            CODE    6023H     0026H     UNIT         ?PR?_CF_DISK_READ?CFDISKIO
            CODE    6049H     0026H     UNIT         ?PR?_CF_DISK_WRITE?CFDISKIO
            CODE    606FH     0025H     UNIT         ?PR?_ST_DWORD?FF
            CODE    6094H     0024H     UNIT         ?PR?_CHK_CHR?FF
            CODE    60B8H     0022H     UNIT         ?PR?_ST_WORD?FF
            CODE    60DAH     001FH     UNIT         ?PR?SIO
            CODE    60F9H     001FH     UNIT         ?PR?_LD_WORD?FF
            CODE    6118H     001DH     UNIT         ?PR?_CFINIT?COMPACTFLASH
            CODE    6135H     001AH     UNIT         ?PR?_MEM_SET?FF
            CODE    614FH     001AH     UNIT         ?CO?FF
            CODE    6169H     0019H     UNIT         ?PR?LEDTEST?TEST
            CODE    6182H     0018H     UNIT         ?PR?_DELAY_MS?DELAY
            CODE    619AH     0017H     UNIT         ?PR?_SIOINIT?SIO
            CODE    61B1H     0014H     UNIT         ?PR?MAIN?MAIN
            CODE    61C5H     0010H     UNIT         ?PR?_CFWAITCOMMANDREADY?COMPACTFLASH
BL51 BANKED LINKER/LOCATER V6.22                                                      04/05/2019  05:01:37  PAGE 5


            CODE    61D5H     0010H     UNIT         ?PR?_CFWAITDATAREADY?COMPACTFLASH
            CODE    61E5H     000FH     UNIT         ?PR?_SIOCLOSE?SIO
            CODE    61F4H     000FH     UNIT         ?PR?_SIOTX?SIO
            CODE    6203H     000DH     UNIT         ?PR?_CFWAITIDLE?COMPACTFLASH
            CODE    6210H     000DH     UNIT         ?PR?_CFDISKGETSECTORCOUNT?COMPACTFLASH
            CODE    621DH     000DH     UNIT         ?PR?_SIORX?SIO
            CODE    622AH     000BH     UNIT         ?PR?_DELAY_US?DELAY
            CODE    6235H     000BH     UNIT         ?PR?_RAM_DISK_IOCTL?RAMDISKIO
            CODE    6240H     000BH     UNIT         ?PR?_SD_DISK_IOCTL?SDDISKIO
            CODE    624BH     000AH     UNIT         ?PR?DVDDISKIO
            CODE    6255H     000AH     UNIT         ?PR?RAMDISKIO
            CODE    625FH     000AH     UNIT         ?PR?SDDISKIO
            CODE    6269H     0009H     UNIT         ?PR?_SIOWAITTXDONE?SIO
            CODE    6272H     0009H     UNIT         ?PR?_SIOWAITRXDONE?SIO
            CODE    627BH     0009H     UNIT         ?PR?_CF_DISK_STATUS?CFDISKIO
            CODE    6284H     0009H     UNIT         ?PR?_DVD_DISK_STATUS?DVDDISKIO
            CODE    628DH     0009H     UNIT         ?PR?_DVD_DISK_INITIALIZE?DVDDISKIO
            CODE    6296H     0009H     UNIT         ?PR?_RAM_DISK_STATUS?RAMDISKIO
            CODE    629FH     0009H     UNIT         ?PR?_RAM_DISK_INITIALIZE?RAMDISKIO
            CODE    62A8H     0009H     UNIT         ?PR?_SD_DISK_STATUS?SDDISKIO
            CODE    62B1H     0009H     UNIT         ?PR?_SD_DISK_INITIALIZE?SDDISKIO
            CODE    62BAH     0007H     UNIT         ?PR?_CF_DISK_INITIALIZE?CFDISKIO
            CODE    62C1H     0007H     UNIT         ?PR?_DVD_DISK_READ?DVDDISKIO
            CODE    62C8H     0007H     UNIT         ?PR?_DVD_DISK_WRITE?DVDDISKIO
            CODE    62CFH     0007H     UNIT         ?PR?_RAM_DISK_READ?RAMDISKIO
            CODE    62D6H     0007H     UNIT         ?PR?_RAM_DISK_WRITE?RAMDISKIO
            CODE    62DDH     0007H     UNIT         ?PR?_SD_DISK_READ?SDDISKIO
            CODE    62E4H     0007H     UNIT         ?PR?_SD_DISK_WRITE?SDDISKIO
            CODE    62EBH     0005H     UNIT         ?PR?_DBC_1ST?FF
            CODE    62F0H     0005H     UNIT         ?PR?_DBC_2ND?FF



OVERLAY MAP OF MODULE:   Test8051 (?C_STARTUP)


SEGMENT                                          XDATA_GROUP
  +--> CALLED SEGMENT                          START    LENGTH
--------------------------------------------------------------
?C_C51STARTUP                                  -----    -----
  +--> ?PR?MAIN?MAIN
  +--> ?C_INITSEG

?PR?MAIN?MAIN                                  -----    -----
  +--> ?PR?LEDTEST?TEST
  +--> ?PR?_FATFSTEST?TEST

?PR?_FATFSTEST?TEST                            8000H    03A0H
  +--> ?PR?_SIOINIT?SIO
  +--> ?CO?TEST
  +--> ?PR?_SIOTXSTR?SIO
  +--> ?PR?_F_MOUNT?FF
  +--> ?PR?_F_OPEN?FF
  +--> ?PR?_F_LSEEK?FF
  +--> ?PR?_F_CLOSE?FF
  +--> ?PR?_F_READ?FF
  +--> ?PR?_SIOTXBUF?SIO
BL51 BANKED LINKER/LOCATER V6.22                                                      04/05/2019  05:01:37  PAGE 6



?PR?_SIOINIT?SIO                               83A0H    0001H

?PR?_SIOTXSTR?SIO                              83A0H    0003H
  +--> ?PR?_SIOTX?SIO

?PR?_SIOTX?SIO                                 83A8H    0001H

?PR?_F_MOUNT?FF                                83A0H    000AH
  +--> ?PR?_GET_LDNUMBER?FF
  +--> ?PR?FF
  +--> ?PR?_FIND_VOLUME?FF

?PR?_GET_LDNUMBER?FF                           842BH    000BH
  +--> ?PR?FF

?PR?_FIND_VOLUME?FF                            83F1H    003AH
  +--> ?PR?FF
  +--> ?PR?_GET_LDNUMBER?FF
  +--> ?PR?_DISK_STATUS?DISKIO
  +--> ?PR?_DISK_INITIALIZE?DISKIO
  +--> ?PR?_CHECK_FS?FF
  +--> ?PR?_LD_DWORD?FF
  +--> ?PR?_LD_WORD?FF
  +--> ?PR?_MOVE_WINDOW?FF

?PR?_DISK_STATUS?DISKIO                        842BH    0002H
  +--> ?PR?_CF_DISK_STATUS?CFDISKIO
  +--> ?PR?_DVD_DISK_STATUS?DVDDISKIO
  +--> ?PR?_SD_DISK_STATUS?SDDISKIO
  +--> ?PR?_RAM_DISK_STATUS?RAMDISKIO

?PR?_CF_DISK_STATUS?CFDISKIO                   842DH    0001H

?PR?_DVD_DISK_STATUS?DVDDISKIO                 842DH    0001H

?PR?_SD_DISK_STATUS?SDDISKIO                   842DH    0001H

?PR?_RAM_DISK_STATUS?RAMDISKIO                 842DH    0001H

?PR?_DISK_INITIALIZE?DISKIO                    842BH    0003H
  +--> ?PR?_CF_DISK_INITIALIZE?CFDISKIO
  +--> ?PR?_DVD_DISK_INITIALIZE?DVDDISKIO
  +--> ?PR?_SD_DISK_INITIALIZE?SDDISKIO
  +--> ?PR?_RAM_DISK_INITIALIZE?RAMDISKIO

?PR?_CF_DISK_INITIALIZE?CFDISKIO               -----    -----
  +--> ?PR?_CFINIT?COMPACTFLASH

?PR?_CFINIT?COMPACTFLASH                       842EH    0001H
  +--> ?PR?_CFWAITIDLE?COMPACTFLASH
  +--> ?PR?_CFWAITCOMMANDREADY?COMPACTFLASH

?PR?_CFWAITIDLE?COMPACTFLASH                   847DH    0001H

?PR?_CFWAITCOMMANDREADY?COMPACTFLASH           847DH    0001H

BL51 BANKED LINKER/LOCATER V6.22                                                      04/05/2019  05:01:37  PAGE 7


?PR?_DVD_DISK_INITIALIZE?DVDDISKIO             842EH    0001H

?PR?_SD_DISK_INITIALIZE?SDDISKIO               842EH    0001H

?PR?_RAM_DISK_INITIALIZE?RAMDISKIO             842EH    0001H

?PR?_CHECK_FS?FF                               842BH    0003H
  +--> ?PR?FF
  +--> ?PR?_MOVE_WINDOW?FF
  +--> ?PR?_LD_WORD?FF
  +--> ?CO?FF
  +--> ?PR?_MEM_CMP?FF

?PR?_MOVE_WINDOW?FF                            844EH    0008H
  +--> ?PR?FF
  +--> ?PR?_SYNC_WINDOW?FF
  +--> ?PR?_DISK_READ?DISKIO

?PR?_SYNC_WINDOW?FF                            8456H    0004H
  +--> ?PR?FF
  +--> ?PR?_DISK_WRITE?DISKIO

?PR?_DISK_WRITE?DISKIO                         845AH    000DH
  +--> ?PR?DISKIO
  +--> ?PR?_CF_DISK_WRITE?CFDISKIO
  +--> ?PR?_DVD_DISK_WRITE?DVDDISKIO
  +--> ?PR?_SD_DISK_WRITE?SDDISKIO
  +--> ?PR?_RAM_DISK_WRITE?RAMDISKIO

?PR?_CF_DISK_WRITE?CFDISKIO                    8467H    000AH
  +--> ?PR?_CFWRITESECTOR?COMPACTFLASH

?PR?_CFWRITESECTOR?COMPACTFLASH                8471H    000CH
  +--> ?PR?_CFWAITIDLE?COMPACTFLASH
  +--> ?PR?COMPACTFLASH
  +--> ?PR?_CFWAITCOMMANDREADY?COMPACTFLASH
  +--> ?PR?_CFWAITDATAREADY?COMPACTFLASH

?PR?_CFWAITDATAREADY?COMPACTFLASH              847DH    0001H

?PR?_DVD_DISK_WRITE?DVDDISKIO                  8467H    000AH
  +--> ?PR?DVDDISKIO

?PR?_SD_DISK_WRITE?SDDISKIO                    8467H    000AH
  +--> ?PR?SDDISKIO

?PR?_RAM_DISK_WRITE?RAMDISKIO                  8467H    000AH
  +--> ?PR?RAMDISKIO

?PR?_DISK_READ?DISKIO                          8456H    000DH
  +--> ?PR?DISKIO
  +--> ?PR?_CF_DISK_READ?CFDISKIO
  +--> ?PR?_DVD_DISK_READ?DVDDISKIO
  +--> ?PR?_SD_DISK_READ?SDDISKIO
  +--> ?PR?_RAM_DISK_READ?RAMDISKIO

?PR?_CF_DISK_READ?CFDISKIO                     8463H    000AH
BL51 BANKED LINKER/LOCATER V6.22                                                      04/05/2019  05:01:37  PAGE 8


  +--> ?PR?_CFREADSECTOR?COMPACTFLASH

?PR?_CFREADSECTOR?COMPACTFLASH                 846DH    000EH
  +--> ?PR?COMPACTFLASH
  +--> ?PR?_CFWAITCOMMANDREADY?COMPACTFLASH
  +--> ?PR?_CFWAITDATAREADY?COMPACTFLASH
  +--> ?PR?_CFWAITIDLE?COMPACTFLASH

?PR?_DVD_DISK_READ?DVDDISKIO                   8463H    000AH
  +--> ?PR?DVDDISKIO

?PR?_SD_DISK_READ?SDDISKIO                     8463H    000AH
  +--> ?PR?SDDISKIO

?PR?_RAM_DISK_READ?RAMDISKIO                   8463H    000AH
  +--> ?PR?RAMDISKIO

?PR?_LD_WORD?FF                                844CH    0002H
  +--> ?PR?FF

?PR?_MEM_CMP?FF                                842EH    000EH
  +--> ?PR?FF

?PR?_LD_DWORD?FF                               844EH    0007H
  +--> ?PR?FF

?PR?_F_OPEN?FF                                 83A0H    0051H
  +--> ?PR?FF
  +--> ?PR?_FIND_VOLUME?FF
  +--> ?PR?_FOLLOW_PATH?FF
  +--> ?PR?_DIR_REGISTER?FF
  +--> ?PR?_LD_CLUST?FF
  +--> ?PR?_ST_DWORD?FF
  +--> ?PR?_ST_CLUST?FF
  +--> ?PR?_REMOVE_CHAIN?FF
  +--> ?PR?_MOVE_WINDOW?FF
  +--> ?PR?_LD_DWORD?FF
  +--> ?PR?_GET_FAT?FF
  +--> ?PR?_CLST2SECT?FF

?PR?_FOLLOW_PATH?FF                            83F1H    000AH
  +--> ?PR?FF
  +--> ?PR?_DIR_SDI?FF
  +--> ?PR?_CREATE_NAME?FF
  +--> ?PR?_DIR_FIND?FF
  +--> ?PR?_LD_CLUST?FF

?PR?_DIR_SDI?FF                                8416H    0012H
  +--> ?PR?FF
  +--> ?PR?_GET_FAT?FF
  +--> ?PR?_CLST2SECT?FF

?PR?_GET_FAT?FF                                843DH    000FH
  +--> ?PR?FF
  +--> ?PR?_MOVE_WINDOW?FF
  +--> ?PR?_LD_WORD?FF
  +--> ?PR?_LD_DWORD?FF
BL51 BANKED LINKER/LOCATER V6.22                                                      04/05/2019  05:01:37  PAGE 9



?PR?_CLST2SECT?FF                              8438H    0007H
  +--> ?PR?FF

?PR?_CREATE_NAME?FF                            83FBH    001CH
  +--> ?PR?FF
  +--> ?PR?_TCHAR2UNI?FF
  +--> ?CO?FF
  +--> ?PR?_CHK_CHR?FF
  +--> ?PR?_MEM_SET?FF
  +--> ?PR?_FF_UNI2OEM?FFUNICODE

?PR?_TCHAR2UNI?FF                              8417H    000DH
  +--> ?PR?FF

?PR?_MEM_SET?FF                                8438H    000AH
  +--> ?PR?FF

?PR?_FF_UNI2OEM?FFUNICODE                      8417H    000BH
  +--> ?PR?FFUNICODE

?PR?_DIR_FIND?FF                               840BH    000AH
  +--> ?PR?FF
  +--> ?PR?_DIR_SDI?FF
  +--> ?PR?_MOVE_WINDOW?FF
  +--> ?PR?_CMP_LFN?FF
  +--> ?PR?_SUM_SFN?FF
  +--> ?PR?_MEM_CMP?FF
  +--> ?PR?_DIR_NEXT?FF

?PR?_CMP_LFN?FF                                8415H    000EH
  +--> ?PR?FF
  +--> ?PR?_LD_WORD?FF
  +--> ?PR?_FF_WTOUPPER?FFUNICODE

?PR?_FF_WTOUPPER?FFUNICODE                     8423H    000FH
  +--> ?PR?FFUNICODE

?PR?_SUM_SFN?FF                                8415H    0005H
  +--> ?PR?FF

?PR?_DIR_NEXT?FF                               8416H    0010H
  +--> ?PR?FF
  +--> ?PR?_GET_FAT?FF
  +--> ?PR?_CREATE_CHAIN?FF
  +--> ?PR?_DIR_CLEAR?FF
  +--> ?PR?_CLST2SECT?FF

?PR?_CREATE_CHAIN?FF                           8426H    0017H
  +--> ?PR?FF
  +--> ?PR?_GET_FAT?FF
  +--> ?PR?_PUT_FAT?FF

?PR?_PUT_FAT?FF                                843DH    0011H
  +--> ?PR?FF
  +--> ?PR?_MOVE_WINDOW?FF
  +--> ?PR?_ST_WORD?FF
BL51 BANKED LINKER/LOCATER V6.22                                                      04/05/2019  05:01:37  PAGE 10


  +--> ?PR?_LD_DWORD?FF
  +--> ?PR?_ST_DWORD?FF

?PR?_ST_WORD?FF                                844EH    0003H
  +--> ?PR?FF

?PR?_ST_DWORD?FF                               844EH    0007H
  +--> ?PR?FF

?PR?_DIR_CLEAR?FF                              8426H    0012H
  +--> ?PR?_SYNC_WINDOW?FF
  +--> ?PR?_CLST2SECT?FF
  +--> ?PR?FF
  +--> ?PR?_MEM_SET?FF
  +--> ?PR?_DISK_WRITE?DISKIO

?PR?_LD_CLUST?FF                               83FBH    000AH
  +--> ?PR?FF
  +--> ?PR?_LD_WORD?FF

?PR?_DIR_REGISTER?FF                           83F1H    001AH
  +--> ?PR?FF
  +--> ?PR?_MEM_CPY?FF
  +--> ?PR?_GEN_NUMNAME?FF
  +--> ?PR?_DIR_FIND?FF
  +--> ?PR?_DIR_ALLOC?FF
  +--> ?PR?_DIR_SDI?FF
  +--> ?PR?_SUM_SFN?FF
  +--> ?PR?_PUT_LFN?FF
  +--> ?PR?_DIR_NEXT?FF
  +--> ?PR?_MEM_SET?FF
  +--> ?PR?_MOVE_WINDOW?FF

?PR?_MEM_CPY?FF                                8428H    000EH
  +--> ?PR?FF

?PR?_GEN_NUMNAME?FF                            840BH    001DH
  +--> ?PR?FF
  +--> ?PR?_MEM_CPY?FF
  +--> ?PR?_DBC_1ST?FF

?PR?_DIR_ALLOC?FF                              840BH    000BH
  +--> ?PR?FF
  +--> ?PR?_DIR_SDI?FF
  +--> ?PR?_MOVE_WINDOW?FF
  +--> ?PR?_DIR_NEXT?FF

?PR?_PUT_LFN?FF                                840BH    000EH
  +--> ?PR?FF
  +--> ?PR?_ST_WORD?FF

?PR?_ST_CLUST?FF                               83F1H    000AH
  +--> ?PR?FF
  +--> ?PR?_ST_WORD?FF

?PR?_REMOVE_CHAIN?FF                           83F1H    0013H
  +--> ?PR?FF
BL51 BANKED LINKER/LOCATER V6.22                                                      04/05/2019  05:01:37  PAGE 11


  +--> ?PR?_GET_FAT?FF
  +--> ?PR?_PUT_FAT?FF

?PR?_F_LSEEK?FF                                83A0H    001BH
  +--> ?PR?FF
  +--> ?PR?_VALIDATE?FF
  +--> ?PR?_CREATE_CHAIN?FF
  +--> ?PR?_GET_FAT?FF
  +--> ?PR?_CLST2SECT?FF

?PR?_VALIDATE?FF                               83C3H    0007H
  +--> ?PR?FF
  +--> ?PR?_DISK_STATUS?DISKIO

?PR?_F_CLOSE?FF                                83A0H    0006H
  +--> ?PR?_F_SYNC?FF
  +--> ?PR?FF
  +--> ?PR?_VALIDATE?FF

?PR?_F_SYNC?FF                                 83A6H    000DH
  +--> ?PR?FF
  +--> ?PR?_VALIDATE?FF
  +--> ?PR?_MOVE_WINDOW?FF
  +--> ?PR?_ST_CLUST?FF
  +--> ?PR?_ST_WORD?FF
  +--> ?PR?_SYNC_FS?FF
  +--> ?PR?_ST_DWORD?FF

?PR?_SYNC_FS?FF                                83B3H    0004H
  +--> ?PR?_SYNC_WINDOW?FF
  +--> ?PR?FF
  +--> ?PR?_MEM_SET?FF
  +--> ?PR?_ST_WORD?FF
  +--> ?PR?_DISK_WRITE?DISKIO
  +--> ?PR?_DISK_IOCTL?DISKIO
  +--> ?PR?_ST_DWORD?FF

?PR?_DISK_IOCTL?DISKIO                         83B7H    0007H

?PR?_F_READ?FF                                 83A0H    0023H
  +--> ?PR?FF
  +--> ?PR?_VALIDATE?FF
  +--> ?PR?_GET_FAT?FF
  +--> ?PR?_CLST2SECT?FF
  +--> ?PR?_DISK_READ?DISKIO
  +--> ?PR?_MEM_CPY?FF
  +--> ?PR?_MOVE_WINDOW?FF

?PR?_SIOTXBUF?SIO                              83A0H    0008H
  +--> ?PR?SIO
  +--> ?PR?_SIOTX?SIO



SYMBOL TABLE OF MODULE:  Test8051 (?C_STARTUP)

  VALUE           TYPE          NAME
BL51 BANKED LINKER/LOCATER V6.22                                                      04/05/2019  05:01:37  PAGE 12


  ----------------------------------

  -------         MODULE        ?C_STARTUP
  C:56AAH         SEGMENT       ?C_C51STARTUP
  I:000BH         SEGMENT       ?STACK
  C:0000H         PUBLIC        ?C_STARTUP
  D:00E0H         SYMBOL        ACC
  D:00F0H         SYMBOL        B
  D:0083H         SYMBOL        DPH
  D:0082H         SYMBOL        DPL
  N:0000H         SYMBOL        IBPSTACK
  N:0100H         SYMBOL        IBPSTACKTOP
  N:0080H         SYMBOL        IDATALEN
  C:56ADH         SYMBOL        IDATALOOP
  N:0000H         SYMBOL        PBPSTACK
  N:0100H         SYMBOL        PBPSTACKTOP
  N:0000H         SYMBOL        PDATALEN
  N:8000H         SYMBOL        PDATASTART
  N:0000H         SYMBOL        PPAGE
  N:0000H         SYMBOL        PPAGEENABLE
  D:00A0H         SYMBOL        PPAGE_SFR
  D:0081H         SYMBOL        SP
  C:56AAH         SYMBOL        STARTUP1
  N:0001H         SYMBOL        XBPSTACK
  N:FF00H         SYMBOL        XBPSTACKTOP
  N:7F00H         SYMBOL        XDATALEN
  C:56B8H         SYMBOL        XDATALOOP
  N:8000H         SYMBOL        XDATASTART
  C:0000H         LINE#         126
  C:56AAH         LINE#         133
  C:56ACH         LINE#         134
  C:56ADH         LINE#         135
  C:56AEH         LINE#         136
  C:56B0H         LINE#         140
  C:56B3H         LINE#         141
  C:56B5H         LINE#         145
  C:56B7H         LINE#         147
  C:56B8H         LINE#         148
  C:56B9H         LINE#         149
  C:56BAH         LINE#         150
  C:56BCH         LINE#         151
  C:56BEH         LINE#         176
  C:56C1H         LINE#         177
  C:56C4H         LINE#         185
  C:56C7H         LINE#         196
  -------         ENDMOD        ?C_STARTUP

  -------         MODULE        COMPACTFLASH
  C:0000H         SYMBOL        _ICE_DUMMY_
  D:0090H         PUBLIC        P1
  D:00B0H         PUBLIC        P3
  D:00D0H         PUBLIC        PSW
  D:0088H         PUBLIC        TCON
  D:00A8H         PUBLIC        IE
  D:00B8H         PUBLIC        IP
  D:0098H         PUBLIC        SCON
  D:00C8H         PUBLIC        T2CON
BL51 BANKED LINKER/LOCATER V6.22                                                      04/05/2019  05:01:37  PAGE 13


  C:6118H         PUBLIC        _cfInit
  C:6203H         PUBLIC        _cfWaitIdle
  C:61C5H         PUBLIC        _cfWaitCommandReady
  C:61D5H         PUBLIC        _cfWaitDataReady
  C:4EFCH         PUBLIC        _cfReadSector
  C:5488H         PUBLIC        _cfWriteSector
  C:6210H         PUBLIC        _cfDiskGetSectorCount
  C:0003H         SYMBOL        Com0022
  C:0003H         SYMBOL        L?0035
  C:000EH         SYMBOL        L?0036
  C:0018H         SYMBOL        L?0037
  -------         PROC          COM0022
  -------         ENDPROC       COM0022
  -------         PROC          _CFINIT
  X:842EH         SYMBOL        device
  C:6118H         LINE#         8
  C:611DH         LINE#         9
  C:611DH         LINE#         10
  C:6120H         LINE#         12
  C:6126H         LINE#         14
  C:612EH         LINE#         16
  C:6134H         LINE#         17
  -------         ENDPROC       _CFINIT
  -------         PROC          _CFWAITIDLE
  X:847DH         SYMBOL        device
  C:6203H         LINE#         19
  C:6208H         LINE#         20
  C:6208H         LINE#         21
  C:620FH         LINE#         22
  -------         ENDPROC       _CFWAITIDLE
  -------         PROC          _CFWAITCOMMANDREADY
  X:847DH         SYMBOL        device
  C:61C5H         LINE#         24
  C:61CAH         LINE#         25
  C:61CAH         LINE#         26
  C:61D4H         LINE#         27
  -------         ENDPROC       _CFWAITCOMMANDREADY
  -------         PROC          _CFWAITDATAREADY
  X:847DH         SYMBOL        device
  C:61D5H         LINE#         29
  C:61DAH         LINE#         30
  C:61DAH         LINE#         31
  C:61E4H         LINE#         32
  -------         ENDPROC       _CFWAITDATAREADY
  C:4FB4H         SYMBOL        L?0030
  C:4FC5H         SYMBOL        L?0032
  -------         PROC          _CFREADSECTOR
  X:846DH         SYMBOL        device
  X:846EH         SYMBOL        buf
  X:8471H         SYMBOL        LBA
  X:8475H         SYMBOL        sectorCount
  -------         DO            
  D:0007H         SYMBOL        status
  X:8477H         SYMBOL        i
  X:8479H         SYMBOL        idx
  -------         ENDDO         
  C:4EFCH         LINE#         34
BL51 BANKED LINKER/LOCATER V6.22                                                      04/05/2019  05:01:37  PAGE 14


  C:4F05H         LINE#         35
  C:4F05H         LINE#         40
  C:4F0AH         LINE#         42
  C:4F0AH         LINE#         44
  C:4F10H         LINE#         46
  C:4F10H         LINE#         48
  C:4F1BH         LINE#         50
  C:4F1BH         LINE#         52
  C:4F21H         LINE#         54
  C:4F21H         LINE#         56
  C:4F2DH         LINE#         58
  C:4F36H         LINE#         59
  C:4F3EH         LINE#         60
  C:4F3EH         LINE#         62
  C:4F3EH         LINE#         63
  C:4F46H         LINE#         65
  C:4F4CH         LINE#         67
  C:4F54H         LINE#         69
  C:4F59H         LINE#         70
  C:4F59H         LINE#         71
  C:4F5CH         LINE#         73
  C:4F63H         LINE#         74
  C:4F63H         LINE#         75
  C:4F63H         LINE#         76
  C:4F6BH         LINE#         78
  C:4F92H         LINE#         80
  C:4F9CH         LINE#         81
  C:4FA5H         LINE#         82
  C:4FB0H         LINE#         83
  C:4FB3H         LINE#         84
  -------         ENDPROC       _CFREADSECTOR
  C:5521H         SYMBOL        L?0031
  C:5532H         SYMBOL        L?0033
  -------         PROC          _CFWRITESECTOR
  X:8471H         SYMBOL        device
  D:0001H         SYMBOL        buf
  X:8475H         SYMBOL        LBA
  X:8479H         SYMBOL        sectorCount
  -------         DO            
  D:0007H         SYMBOL        status
  D:0004H         SYMBOL        i
  X:847BH         SYMBOL        idx
  -------         ENDDO         
  C:5488H         LINE#         86
  C:548DH         LINE#         87
  C:548DH         LINE#         92
  C:5492H         LINE#         94
  C:5497H         LINE#         96
  C:5497H         LINE#         98
  C:549DH         LINE#         100
  C:549DH         LINE#         102
  C:54A8H         LINE#         104
  C:54A8H         LINE#         106
  C:54AEH         LINE#         108
  C:54AEH         LINE#         110
  C:54B6H         LINE#         112
  C:54BFH         LINE#         113
BL51 BANKED LINKER/LOCATER V6.22                                                      04/05/2019  05:01:37  PAGE 15


  C:54C7H         LINE#         114
  C:54C7H         LINE#         116
  C:54C7H         LINE#         117
  C:54CFH         LINE#         119
  C:54D5H         LINE#         121
  C:54DDH         LINE#         123
  C:54E2H         LINE#         124
  C:54E2H         LINE#         125
  C:54E5H         LINE#         127
  C:54E8H         LINE#         128
  C:54E8H         LINE#         129
  C:54E8H         LINE#         130
  C:54F0H         LINE#         132
  C:5506H         LINE#         134
  C:550BH         LINE#         135
  C:5513H         LINE#         136
  C:551EH         LINE#         137
  C:5520H         LINE#         138
  -------         ENDPROC       _CFWRITESECTOR
  -------         PROC          _CFDISKGETSECTORCOUNT
  X:8DF3H         SYMBOL        device
  C:6210H         LINE#         140
  C:6215H         LINE#         141
  C:6215H         LINE#         142
  C:621CH         LINE#         143
  -------         ENDPROC       _CFDISKGETSECTORCOUNT
  -------         ENDMOD        COMPACTFLASH

  -------         MODULE        DELAY
  C:0000H         SYMBOL        _ICE_DUMMY_
  D:0090H         PUBLIC        P1
  D:00B0H         PUBLIC        P3
  D:00D0H         PUBLIC        PSW
  D:0088H         PUBLIC        TCON
  D:00A8H         PUBLIC        IE
  D:00B8H         PUBLIC        IP
  D:0098H         PUBLIC        SCON
  D:00C8H         PUBLIC        T2CON
  C:622AH         PUBLIC        _delay_us
  C:6182H         PUBLIC        _delay_ms
  -------         PROC          _DELAY_US
  D:0006H         SYMBOL        us
  C:622AH         LINE#         35
  C:622AH         LINE#         36
  C:622AH         LINE#         37
  C:6234H         LINE#         38
  -------         ENDPROC       _DELAY_US
  -------         PROC          _DELAY_MS
  D:0002H         SYMBOL        ms
  C:6182H         LINE#         75
  C:6186H         LINE#         76
  C:6186H         LINE#         77
  C:6190H         LINE#         78
  C:6190H         LINE#         79
  C:6197H         LINE#         80
  C:6199H         LINE#         81
  -------         ENDPROC       _DELAY_MS
BL51 BANKED LINKER/LOCATER V6.22                                                      04/05/2019  05:01:37  PAGE 16


  -------         ENDMOD        DELAY

  -------         MODULE        LED
  C:0000H         SYMBOL        _ICE_DUMMY_
  D:0090H         PUBLIC        P1
  D:00B0H         PUBLIC        P3
  D:00D0H         PUBLIC        PSW
  D:0088H         PUBLIC        TCON
  D:00A8H         PUBLIC        IE
  D:00B8H         PUBLIC        IP
  D:0098H         PUBLIC        SCON
  D:00C8H         PUBLIC        T2CON
  C:0022H         PUBLIC        ledInit
  -------         PROC          LEDINIT
  C:0022H         LINE#         6
  C:0022H         LINE#         7
  C:0022H         LINE#         8
  -------         ENDPROC       LEDINIT
  -------         ENDMOD        LED

  -------         MODULE        MAIN
  C:0000H         SYMBOL        _ICE_DUMMY_
  D:0090H         PUBLIC        P1
  D:00B0H         PUBLIC        P3
  D:00D0H         PUBLIC        PSW
  D:0088H         PUBLIC        TCON
  D:00A8H         PUBLIC        IE
  D:00B8H         PUBLIC        IP
  D:0098H         PUBLIC        SCON
  D:00C8H         PUBLIC        T2CON
  C:61B1H         PUBLIC        main
  -------         PROC          MAIN
  C:61B1H         LINE#         27
  C:61B1H         LINE#         28
  C:61B1H         LINE#         29
  C:61B4H         LINE#         34
  C:61B7H         LINE#         38
  C:61B7H         LINE#         39
  C:61B7H         LINE#         43
  C:61BCH         LINE#         45
  C:61BFH         LINE#         63
  C:61C3H         LINE#         66
  C:61C3H         LINE#         68
  C:61C3H         LINE#         69
  C:61C3H         LINE#         70
  C:61C3H         LINE#         72
  -------         ENDPROC       MAIN
  -------         ENDMOD        MAIN

  -------         MODULE        SYSCTRL
  C:0000H         SYMBOL        _ICE_DUMMY_
  D:0090H         PUBLIC        P1
  D:00B0H         PUBLIC        P3
  D:00D0H         PUBLIC        PSW
  D:0088H         PUBLIC        TCON
  D:00A8H         PUBLIC        IE
  D:00B8H         PUBLIC        IP
BL51 BANKED LINKER/LOCATER V6.22                                                      04/05/2019  05:01:37  PAGE 17


  D:0098H         PUBLIC        SCON
  D:00C8H         PUBLIC        T2CON
  -------         ENDMOD        SYSCTRL

  -------         MODULE        TEST
  C:0000H         SYMBOL        _ICE_DUMMY_
  D:0090H         PUBLIC        P1
  D:00B0H         PUBLIC        P3
  D:00D0H         PUBLIC        PSW
  D:0088H         PUBLIC        TCON
  D:00A8H         PUBLIC        IE
  D:00B8H         PUBLIC        IP
  D:0098H         PUBLIC        SCON
  D:00C8H         PUBLIC        T2CON
  C:6169H         PUBLIC        ledTest
  C:5FD4H         PUBLIC        _cfTest
  C:5A8BH         PUBLIC        _pioTest
  C:4405H         PUBLIC        _fatfsTest
  X:8AD0H         PUBLIC        cfTestBuf
  C:5F49H         SYMBOL        Com001A
  C:5F49H         SYMBOL        L?0027
  C:5F49H         SYMBOL        L?0028
  C:5F60H         SYMBOL        L?0033
  C:5F6EH         SYMBOL        L?0034
  -------         PROC          COM001A
  -------         ENDPROC       COM001A
  -------         PROC          LEDTEST
  C:6169H         LINE#         19
  C:6169H         LINE#         20
  C:6169H         LINE#         21
  C:616CH         LINE#         24
  C:616FH         LINE#         27
  C:6172H         LINE#         30
  C:6175H         LINE#         33
  C:6178H         LINE#         36
  C:617BH         LINE#         39
  C:617EH         LINE#         42
  C:6181H         LINE#         44
  -------         ENDPROC       LEDTEST
  C:5ADAH         SYMBOL        L?0030
  -------         PROC          _PIOTEST
  X:8DF4H         SYMBOL        device
  -------         DO            
  D:0001H         SYMBOL        v
  -------         ENDDO         
  C:5A8BH         LINE#         48
  C:5A90H         LINE#         49
  C:5A90H         LINE#         51
  C:5A9DH         LINE#         53
  C:5A9FH         LINE#         55
  C:5A9FH         LINE#         56
  C:5A9FH         LINE#         57
  C:5AA9H         LINE#         58
  C:5AACH         LINE#         60
  C:5AAEH         LINE#         62
  C:5AAEH         LINE#         63
  C:5AAEH         LINE#         64
BL51 BANKED LINKER/LOCATER V6.22                                                      04/05/2019  05:01:37  PAGE 18


  C:5AB9H         LINE#         65
  C:5ABCH         LINE#         67
  C:5ABEH         LINE#         69
  C:5ABEH         LINE#         70
  C:5AC5H         LINE#         71
  C:5AD6H         LINE#         72
  C:5AD9H         LINE#         73
  -------         ENDPROC       _PIOTEST
  -------         PROC          _CFTEST
  X:8DF5H         SYMBOL        device
  C:5FD4H         LINE#         78
  C:5FD9H         LINE#         79
  C:5FD9H         LINE#         80
  C:5FDCH         LINE#         82
  C:5FECH         LINE#         84
  -------         ENDPROC       _CFTEST
  C:4518H         SYMBOL        L?0025
  C:454BH         SYMBOL        L?0029
  C:4557H         SYMBOL        L?0031
  C:4574H         SYMBOL        L?0032
  -------         PROC          _FATFSTEST
  X:8000H         SYMBOL        device
  -------         DO            
  X:8001H         SYMBOL        fs
  X:8233H         SYMBOL        fp
  X:8257H         SYMBOL        dj
  X:8285H         SYMBOL        filInfo
  X:839BH         SYMBOL        res
  X:839CH         SYMBOL        br
  X:839EH         SYMBOL        bw
  -------         ENDDO         
  C:4405H         LINE#         167
  C:440AH         LINE#         168
  C:440AH         LINE#         179
  C:440FH         LINE#         182
  C:4418H         LINE#         183
  C:4437H         LINE#         184
  C:443BH         LINE#         185
  C:4440H         LINE#         186
  C:4440H         LINE#         187
  C:4449H         LINE#         189
  C:4449H         LINE#         191
  C:4454H         LINE#         192
  C:4473H         LINE#         193
  C:4477H         LINE#         194
  C:447CH         LINE#         195
  C:447CH         LINE#         196
  C:4485H         LINE#         198
  C:4485H         LINE#         200
  C:4489H         LINE#         201
  C:4489H         LINE#         202
  C:4495H         LINE#         203
  C:449BH         LINE#         204
  C:449BH         LINE#         205
  C:44A4H         LINE#         207
  C:44A4H         LINE#         208
  C:44A4H         LINE#         210
BL51 BANKED LINKER/LOCATER V6.22                                                      04/05/2019  05:01:37  PAGE 19


  C:44B0H         LINE#         211
  C:44B9H         LINE#         212
  C:44BDH         LINE#         213
  C:44C2H         LINE#         214
  C:44C2H         LINE#         215
  C:44CBH         LINE#         217
  C:44CBH         LINE#         219
  C:44CFH         LINE#         220
  C:44CFH         LINE#         221
  C:44DBH         LINE#         222
  C:44E1H         LINE#         223
  C:44E1H         LINE#         224
  C:44E9H         LINE#         226
  C:44E9H         LINE#         227
  C:44E9H         LINE#         229
  C:44F5H         LINE#         230
  C:4503H         LINE#         231
  C:4507H         LINE#         232
  C:450CH         LINE#         233
  C:450CH         LINE#         234
  C:4517H         LINE#         236
  C:4517H         LINE#         237
  -------         ENDPROC       _FATFSTEST
  -------         ENDMOD        TEST

  -------         MODULE        SIO
  C:0000H         SYMBOL        _ICE_DUMMY_
  D:0090H         PUBLIC        P1
  D:00B0H         PUBLIC        P3
  D:00D0H         PUBLIC        PSW
  D:0087H         PUBLIC        PCON
  D:0088H         PUBLIC        TCON
  D:0089H         PUBLIC        TMOD
  D:008BH         PUBLIC        TL1
  D:008DH         PUBLIC        TH1
  D:00A8H         PUBLIC        IE
  D:00B8H         PUBLIC        IP
  D:0098H         PUBLIC        SCON
  D:0099H         PUBLIC        SBUF
  D:00C8H         PUBLIC        T2CON
  B:0088H.6       PUBLIC        TR1
  B:0098H.1       PUBLIC        TI
  B:0098H.0       PUBLIC        RI
  C:619AH         PUBLIC        _sioInit
  C:61E5H         PUBLIC        _sioClose
  C:6269H         PUBLIC        _sioWaitTXDone
  C:61F4H         PUBLIC        _sioTX
  C:5FFCH         PUBLIC        _sioTXStr
  C:5FA7H         PUBLIC        _sioTXBuf
  C:6272H         PUBLIC        _sioWaitRXDone
  C:621DH         PUBLIC        _sioRX
  C:5EE9H         PUBLIC        _sioRXStr
  C:5F78H         PUBLIC        _sioRXBuf
  C:60DAH         SYMBOL        Com001D
  C:60DAH         SYMBOL        L?0030
  C:60DAH         SYMBOL        L?0031
  C:60E7H         SYMBOL        L?0032
BL51 BANKED LINKER/LOCATER V6.22                                                      04/05/2019  05:01:37  PAGE 20


  C:60E7H         SYMBOL        L?0033
  C:60F1H         SYMBOL        L?0034
  C:60F1H         SYMBOL        L?0035
  -------         PROC          COM001D
  -------         ENDPROC       COM001D
  -------         PROC          _SIOINIT
  X:83A0H         SYMBOL        device
  C:619AH         LINE#         5
  C:619FH         LINE#         6
  C:619FH         LINE#         7
  C:619FH         LINE#         9
  C:61A2H         LINE#         10
  C:61A5H         LINE#         11
  C:61A8H         LINE#         14
  C:61ABH         LINE#         15
  C:61AEH         LINE#         16
  C:61B0H         LINE#         19
  -------         ENDPROC       _SIOINIT
  -------         PROC          _SIOCLOSE
  X:8DF6H         SYMBOL        device
  C:61E5H         LINE#         21
  C:61EAH         LINE#         22
  C:61EAH         LINE#         23
  C:61EAH         LINE#         25
  C:61EDH         LINE#         26
  C:61EFH         LINE#         27
  C:61F1H         LINE#         28
  C:61F3H         LINE#         29
  -------         ENDPROC       _SIOCLOSE
  -------         PROC          _SIOWAITTXDONE
  X:8DF7H         SYMBOL        device
  C:6269H         LINE#         31
  C:626EH         LINE#         32
  C:626EH         LINE#         33
  C:626EH         LINE#         35
  C:6271H         LINE#         36
  -------         ENDPROC       _SIOWAITTXDONE
  -------         PROC          _SIOTX
  X:83A8H         SYMBOL        device
  D:0005H         SYMBOL        d
  C:61F4H         LINE#         38
  C:61F9H         LINE#         39
  C:61F9H         LINE#         40
  C:61F9H         LINE#         42
  C:61FBH         LINE#         43
  C:61FFH         LINE#         44
  C:6202H         LINE#         45
  -------         ENDPROC       _SIOTX
  -------         PROC          _SIOTXSTR
  D:0006H         SYMBOL        device
  X:83A0H         SYMBOL        s
  C:5FFCH         LINE#         47
  C:6004H         LINE#         48
  C:6004H         LINE#         49
  C:6004H         LINE#         52
  C:6004H         LINE#         53
  C:6013H         LINE#         54
BL51 BANKED LINKER/LOCATER V6.22                                                      04/05/2019  05:01:37  PAGE 21


  C:6022H         LINE#         55
  -------         ENDPROC       _SIOTXSTR
  -------         PROC          _SIOTXBUF
  X:83A0H         SYMBOL        device
  X:83A1H         SYMBOL        buf
  X:83A4H         SYMBOL        size
  -------         DO            
  X:83A6H         SYMBOL        i
  -------         ENDDO         
  C:5FA7H         LINE#         57
  C:5FAAH         LINE#         58
  C:5FAAH         LINE#         59
  C:5FB3H         LINE#         61
  C:5FB3H         LINE#         63
  C:5FBBH         LINE#         64
  C:5FBBH         LINE#         65
  C:5FD1H         LINE#         66
  C:5FD3H         LINE#         67
  -------         ENDPROC       _SIOTXBUF
  -------         PROC          _SIOWAITRXDONE
  X:8DF8H         SYMBOL        device
  C:6272H         LINE#         69
  C:6277H         LINE#         70
  C:6277H         LINE#         71
  C:6277H         LINE#         73
  C:627AH         LINE#         74
  -------         ENDPROC       _SIOWAITRXDONE
  -------         PROC          _SIORX
  X:8DF9H         SYMBOL        device
  -------         DO            
  D:0007H         SYMBOL        d
  -------         ENDDO         
  C:621DH         LINE#         76
  C:6222H         LINE#         77
  C:6222H         LINE#         80
  C:6222H         LINE#         82
  C:6225H         LINE#         83
  C:6227H         LINE#         84
  C:6229H         LINE#         86
  C:6229H         LINE#         87
  -------         ENDPROC       _SIORX
  -------         PROC          _SIORXSTR
  X:8DCFH         SYMBOL        device
  X:8DD0H         SYMBOL        s
  X:8DD3H         SYMBOL        size
  -------         DO            
  X:8DD5H         SYMBOL        i
  -------         ENDDO         
  C:5EE9H         LINE#         89
  C:5EECH         LINE#         90
  C:5EECH         LINE#         91
  C:5EF5H         LINE#         93
  C:5EF5H         LINE#         95
  C:5EFDH         LINE#         96
  C:5EFDH         LINE#         97
  C:5F17H         LINE#         98
  C:5F18H         LINE#         100
BL51 BANKED LINKER/LOCATER V6.22                                                      04/05/2019  05:01:37  PAGE 22


  -------         ENDPROC       _SIORXSTR
  -------         PROC          _SIORXBUF
  X:8DD7H         SYMBOL        device
  X:8DD8H         SYMBOL        buf
  X:8DDBH         SYMBOL        size
  -------         DO            
  X:8DDDH         SYMBOL        i
  -------         ENDDO         
  C:5F78H         LINE#         102
  C:5F7BH         LINE#         103
  C:5F7BH         LINE#         104
  C:5F84H         LINE#         106
  C:5F84H         LINE#         108
  C:5F8CH         LINE#         109
  C:5F8CH         LINE#         110
  C:5FA4H         LINE#         111
  C:5FA6H         LINE#         112
  -------         ENDPROC       _SIORXBUF
  -------         ENDMOD        SIO

  -------         MODULE        ISD51_CONFIGURATION
  C:2CA7H         SEGMENT       ?PR?ISD51
  D:000AH         SEGMENT       ?DT?ISD51
  N:0000H         PUBLIC        ?ISD?CBLK_SIZE
  C:2CE8H         PUBLIC        ?ISD?CMDLOOP
  N:FFFFH         PUBLIC        ?ISD?CMP_E
  N:0000H         PUBLIC        ?ISD?CMP_S
  C:2CF3H         PUBLIC        ?ISD?GETBYTE
  C:2E82H         PUBLIC        ?ISD?PUTCHAR
  C:2EACH         PUBLIC        ?ISD?PUTCHAR_END
  N:00FFH         PUBLIC        ?ISD?RAMTOP
  C:2D52H         PUBLIC        ?ISD?READSFR00
  C:2D62H         PUBLIC        ?ISD?READSFR01
  C:2D72H         PUBLIC        ?ISD?READSFR02
  C:2D82H         PUBLIC        ?ISD?READSFR03
  C:2D92H         PUBLIC        ?ISD?READSFR04
  C:2DA2H         PUBLIC        ?ISD?READSFR05
  C:2DB2H         PUBLIC        ?ISD?READSFR06
  C:2DC2H         PUBLIC        ?ISD?READSFR07
  C:2DD2H         PUBLIC        ?ISD?READSFR08
  C:2DE2H         PUBLIC        ?ISD?READSFR09
  C:2DF2H         PUBLIC        ?ISD?READSFR10
  C:2E02H         PUBLIC        ?ISD?READSFR11
  C:2E12H         PUBLIC        ?ISD?READSFR12
  C:2E22H         PUBLIC        ?ISD?READSFR13
  C:2E32H         PUBLIC        ?ISD?READSFR14
  C:2E42H         PUBLIC        ?ISD?READSFR15
  C:2E52H         PUBLIC        ?ISD?READSFR16
  C:2E62H         PUBLIC        ?ISD?READSFR17
  C:2E72H         PUBLIC        ?ISD?READSFR18
  C:2D22H         PUBLIC        ?ISD?RESTART
  C:2D1AH         PUBLIC        ?ISD?SENDBYTE
  N:00CDH         PUBLIC        ?ISD?VERSION
  C:2D3EH         PUBLIC        ?ISD?WRITESFR00
  C:2D44H         PUBLIC        ?ISD?WRITESFR01
  C:2D4AH         PUBLIC        ?ISD?WRITESFR02
  C:2D4EH         PUBLIC        ?ISD?WRITESFR03
BL51 BANKED LINKER/LOCATER V6.22                                                      04/05/2019  05:01:37  PAGE 23


  C:2EADH         PUBLIC        _GETKEY
  D:000AH         PUBLIC        _ISD_CHAR
  C:2ECDH         PUBLIC        _ISKEY
  C:2E82H         PUBLIC        _PUTCHAR
  C:2EE7H         PUBLIC        __ISD_INIT
  C:2CE6H         SYMBOL        ?ISD?CMDLOOP2
  D:00E0H         SYMBOL        ACC
  D:008EH         SYMBOL        AUXR
  D:00F0H         SYMBOL        B
  C:2CC4H         SYMBOL        CALLBREAK
  N:0010H         SYMBOL        CBLK
  C:2D02H         SYMBOL        CHECKBREAK
  C:2D0EH         SYMBOL        CHECKBREAK1
  C:2CFBH         SYMBOL        CHECKBREAKS
  D:0083H         SYMBOL        DPH
  D:0082H         SYMBOL        DPL
  B:00A8H.7       SYMBOL        EA
  B:00A8H.4       SYMBOL        ES
  C:2EC9H         SYMBOL        GK_CLRRI
  D:00A8H         SYMBOL        IE
  C:2EE6H         SYMBOL        IK_END
  C:2EE5H         SYMBOL        IK_ON
  N:0000H         SYMBOL        ISD51_CONFIGURATION
  C:2CC2H         SYMBOL        NOSERBREAK
  D:0080H         SYMBOL        P0
  D:0090H         SYMBOL        P1
  D:00A0H         SYMBOL        P2
  D:00B0H         SYMBOL        P3
  C:2E99H         SYMBOL        PC_CHAR
  C:2EAAH         SYMBOL        PC_CHAR1
  C:2EACH         SYMBOL        PC_END
  D:00E6H         SYMBOL        PH_FMADRL
  D:00E4H         SYMBOL        PH_FMCON
  D:00D0H         SYMBOL        PSW
  C:2D3CH         SYMBOL        RESTARTSS
  C:2D13H         SYMBOL        RESTARTUSER
  C:2D15H         SYMBOL        RETURNI
  B:0098H.0       SYMBOL        RI
  D:0099H         SYMBOL        SBUF
  D:0098H         SYMBOL        SCON
  C:2CD4H         SYMBOL        SEND7BYTES
  C:2CDFH         SYMBOL        SENDSTACKFRAME
  C:2CA7H         SYMBOL        SERIALINTERRUPT
  N:0023H         SYMBOL        SINTRVEC
  C:2CD2H         SYMBOL        SOFTBREAK
  D:0081H         SYMBOL        SP
  B:0098H.1       SYMBOL        TI
  C:2EBCH         SYMBOL        _GETKEY2
  C:2ED7H         SYMBOL        _ISKEY2
  C:0023H         LINE#         125
  C:2CA7H         LINE#         218
  C:2CA9H         LINE#         219
  C:2CABH         LINE#         220
  C:2CAEH         LINE#         221
  C:2CB0H         LINE#         221
  C:2CB2H         LINE#         223
  C:2CB4H         LINE#         225
BL51 BANKED LINKER/LOCATER V6.22                                                      04/05/2019  05:01:37  PAGE 24


  C:2CB7H         LINE#         227
  C:2CB9H         LINE#         228
  C:2CBCH         LINE#         229
  C:2CBEH         LINE#         230
  C:2CC0H         LINE#         231
  C:2CC2H         LINE#         233
  C:2CC4H         LINE#         234
  C:2CC7H         LINE#         235
  C:2CC9H         LINE#         236
  C:2CCBH         LINE#         237
  C:2CCDH         LINE#         239
  C:2CCFH         LINE#         240
  C:2CD2H         LINE#         259
  C:2CD4H         LINE#         261
  C:2CD7H         LINE#         261
  C:2CD9H         LINE#         261
  C:2CDBH         LINE#         262
  C:2CDDH         LINE#         263
  C:2CDFH         LINE#         264
  C:2CE1H         LINE#         265
  C:2CE3H         LINE#         266
  C:2CE5H         LINE#         267
  C:2CE6H         LINE#         268
  C:2CE8H         LINE#         273
  C:2CEAH         LINE#         274
  C:2CECH         LINE#         275
  C:2CEEH         LINE#         276
  C:2CF0H         LINE#         277
  C:2CF2H         LINE#         278
  C:2CF3H         LINE#         282
  C:2CF6H         LINE#         282
  C:2CF8H         LINE#         282
  C:2CFAH         LINE#         283
  C:2CFBH         LINE#         287
  C:2CFDH         LINE#         288
  C:2CFFH         LINE#         289
  C:2D00H         LINE#         290
  C:2D02H         LINE#         291
  C:2D03H         LINE#         292
  C:2D04H         LINE#         293
  C:2D05H         LINE#         294
  C:2D06H         LINE#         295
  C:2D07H         LINE#         296
  C:2D08H         LINE#         297
  C:2D0AH         LINE#         298
  C:2D0BH         LINE#         299
  C:2D0CH         LINE#         300
  C:2D0EH         LINE#         301
  C:2D11H         LINE#         303
  C:2D13H         LINE#         304
  C:2D15H         LINE#         307
  C:2D17H         LINE#         308
  C:2D19H         LINE#         309
  C:2D1AH         LINE#         313
  C:2D1DH         LINE#         313
  C:2D1FH         LINE#         313
  C:2D21H         LINE#         314
BL51 BANKED LINKER/LOCATER V6.22                                                      04/05/2019  05:01:37  PAGE 25


  C:2D22H         LINE#         321
  C:2D24H         LINE#         322
  C:2D26H         LINE#         323
  C:2D28H         LINE#         324
  C:2D2AH         LINE#         325
  C:2D2CH         LINE#         326
  C:2D2EH         LINE#         327
  C:2D2FH         LINE#         328
  C:2D31H         LINE#         329
  C:2D33H         LINE#         330
  C:2D35H         LINE#         331
  C:2D37H         LINE#         332
  C:2D38H         LINE#         383
  C:2D3AH         LINE#         384
  C:2D3CH         LINE#         385
  C:2D3EH         LINE#         417
  C:2D40H         LINE#         418
  C:2D42H         LINE#         419
  C:2D44H         LINE#         426
  C:2D46H         LINE#         427
  C:2D48H         LINE#         428
  C:2D4AH         LINE#         435
  C:2D4CH         LINE#         436
  C:2D4EH         LINE#         443
  C:2D50H         LINE#         444
  C:2D52H         LINE#         468
  C:2D54H         LINE#         469
  C:2D56H         LINE#         470
  C:2D58H         LINE#         471
  C:2D5AH         LINE#         472
  C:2D5CH         LINE#         473
  C:2D5EH         LINE#         474
  C:2D60H         LINE#         475
  C:2D62H         LINE#         483
  C:2D64H         LINE#         484
  C:2D66H         LINE#         485
  C:2D68H         LINE#         486
  C:2D6AH         LINE#         487
  C:2D6CH         LINE#         488
  C:2D6EH         LINE#         489
  C:2D70H         LINE#         490
  C:2D72H         LINE#         498
  C:2D74H         LINE#         499
  C:2D76H         LINE#         500
  C:2D78H         LINE#         501
  C:2D7AH         LINE#         502
  C:2D7CH         LINE#         503
  C:2D7EH         LINE#         504
  C:2D80H         LINE#         505
  C:2D82H         LINE#         513
  C:2D84H         LINE#         514
  C:2D86H         LINE#         515
  C:2D88H         LINE#         516
  C:2D8AH         LINE#         517
  C:2D8CH         LINE#         518
  C:2D8EH         LINE#         519
  C:2D90H         LINE#         520
BL51 BANKED LINKER/LOCATER V6.22                                                      04/05/2019  05:01:37  PAGE 26


  C:2D92H         LINE#         528
  C:2D94H         LINE#         529
  C:2D96H         LINE#         530
  C:2D98H         LINE#         531
  C:2D9AH         LINE#         532
  C:2D9CH         LINE#         533
  C:2D9EH         LINE#         534
  C:2DA0H         LINE#         535
  C:2DA2H         LINE#         542
  C:2DA4H         LINE#         543
  C:2DA6H         LINE#         544
  C:2DA8H         LINE#         545
  C:2DAAH         LINE#         546
  C:2DACH         LINE#         547
  C:2DAEH         LINE#         548
  C:2DB0H         LINE#         549
  C:2DB2H         LINE#         556
  C:2DB4H         LINE#         557
  C:2DB6H         LINE#         558
  C:2DB8H         LINE#         559
  C:2DBAH         LINE#         560
  C:2DBCH         LINE#         561
  C:2DBEH         LINE#         562
  C:2DC0H         LINE#         563
  C:2DC2H         LINE#         570
  C:2DC4H         LINE#         571
  C:2DC6H         LINE#         572
  C:2DC8H         LINE#         573
  C:2DCAH         LINE#         574
  C:2DCCH         LINE#         575
  C:2DCEH         LINE#         576
  C:2DD0H         LINE#         577
  C:2DD2H         LINE#         584
  C:2DD4H         LINE#         585
  C:2DD6H         LINE#         586
  C:2DD8H         LINE#         587
  C:2DDAH         LINE#         588
  C:2DDCH         LINE#         589
  C:2DDEH         LINE#         590
  C:2DE0H         LINE#         591
  C:2DE2H         LINE#         598
  C:2DE4H         LINE#         599
  C:2DE6H         LINE#         600
  C:2DE8H         LINE#         601
  C:2DEAH         LINE#         602
  C:2DECH         LINE#         603
  C:2DEEH         LINE#         604
  C:2DF0H         LINE#         605
  C:2DF2H         LINE#         612
  C:2DF4H         LINE#         613
  C:2DF6H         LINE#         614
  C:2DF8H         LINE#         615
  C:2DFAH         LINE#         616
  C:2DFCH         LINE#         617
  C:2DFEH         LINE#         618
  C:2E00H         LINE#         619
  C:2E02H         LINE#         626
BL51 BANKED LINKER/LOCATER V6.22                                                      04/05/2019  05:01:37  PAGE 27


  C:2E04H         LINE#         627
  C:2E06H         LINE#         628
  C:2E08H         LINE#         629
  C:2E0AH         LINE#         630
  C:2E0CH         LINE#         631
  C:2E0EH         LINE#         632
  C:2E10H         LINE#         633
  C:2E12H         LINE#         640
  C:2E14H         LINE#         641
  C:2E16H         LINE#         642
  C:2E18H         LINE#         643
  C:2E1AH         LINE#         644
  C:2E1CH         LINE#         645
  C:2E1EH         LINE#         646
  C:2E20H         LINE#         647
  C:2E22H         LINE#         654
  C:2E24H         LINE#         655
  C:2E26H         LINE#         656
  C:2E28H         LINE#         657
  C:2E2AH         LINE#         658
  C:2E2CH         LINE#         659
  C:2E2EH         LINE#         660
  C:2E30H         LINE#         661
  C:2E32H         LINE#         668
  C:2E34H         LINE#         669
  C:2E36H         LINE#         670
  C:2E38H         LINE#         671
  C:2E3AH         LINE#         672
  C:2E3CH         LINE#         673
  C:2E3EH         LINE#         674
  C:2E40H         LINE#         675
  C:2E42H         LINE#         682
  C:2E44H         LINE#         683
  C:2E46H         LINE#         684
  C:2E48H         LINE#         685
  C:2E4AH         LINE#         686
  C:2E4CH         LINE#         687
  C:2E4EH         LINE#         688
  C:2E50H         LINE#         689
  C:2E52H         LINE#         696
  C:2E54H         LINE#         697
  C:2E56H         LINE#         698
  C:2E58H         LINE#         699
  C:2E5AH         LINE#         700
  C:2E5CH         LINE#         701
  C:2E5EH         LINE#         702
  C:2E60H         LINE#         703
  C:2E62H         LINE#         710
  C:2E64H         LINE#         711
  C:2E66H         LINE#         712
  C:2E68H         LINE#         713
  C:2E6AH         LINE#         714
  C:2E6CH         LINE#         715
  C:2E6EH         LINE#         716
  C:2E70H         LINE#         717
  C:2E72H         LINE#         724
  C:2E74H         LINE#         725
BL51 BANKED LINKER/LOCATER V6.22                                                      04/05/2019  05:01:37  PAGE 28


  C:2E76H         LINE#         726
  C:2E78H         LINE#         727
  C:2E7AH         LINE#         728
  C:2E7CH         LINE#         729
  C:2E7EH         LINE#         730
  C:2E80H         LINE#         731
  C:2E82H         LINE#         740
  C:2E85H         LINE#         741
  C:2E87H         LINE#         742
  C:2E88H         LINE#         743
  C:2E8AH         LINE#         744
  C:2E8CH         LINE#         745
  C:2E8EH         LINE#         746
  C:2E90H         LINE#         747
  C:2E92H         LINE#         748
  C:2E94H         LINE#         749
  C:2E96H         LINE#         750
  C:2E99H         LINE#         751
  C:2E9AH         LINE#         752
  C:2E9CH         LINE#         753
  C:2E9EH         LINE#         754
  C:2EA1H         LINE#         755
  C:2EA3H         LINE#         756
  C:2EA5H         LINE#         757
  C:2EA6H         LINE#         759
  C:2EA8H         LINE#         763
  C:2EAAH         LINE#         765
  C:2EACH         LINE#         767
  C:2EADH         LINE#         777
  C:2EB0H         LINE#         778
  C:2EB2H         LINE#         779
  C:2EB4H         LINE#         780
  C:2EB6H         LINE#         781
  C:2EB8H         LINE#         782
  C:2EBAH         LINE#         783
  C:2EBBH         LINE#         784
  C:2EBCH         LINE#         786
  C:2EBFH         LINE#         787
  C:2EC1H         LINE#         788
  C:2EC4H         LINE#         789
  C:2EC7H         LINE#         790
  C:2EC9H         LINE#         792
  C:2ECAH         LINE#         793
  C:2ECCH         LINE#         794
  C:2ECDH         LINE#         798
  C:2ED0H         LINE#         799
  C:2ED2H         LINE#         800
  C:2ED5H         LINE#         801
  C:2ED6H         LINE#         802
  C:2ED7H         LINE#         804
  C:2ED8H         LINE#         805
  C:2EDBH         LINE#         806
  C:2EDDH         LINE#         807
  C:2EE0H         LINE#         808
  C:2EE3H         LINE#         809
  C:2EE5H         LINE#         810
  C:2EE6H         LINE#         811
BL51 BANKED LINKER/LOCATER V6.22                                                      04/05/2019  05:01:37  PAGE 29


  C:2EE7H         LINE#         827
  C:2EE9H         LINE#         828
  C:2EEBH         LINE#         830
  C:2EEEH         LINE#         832
  C:2EF0H         LINE#         833
  C:2EF1H         LINE#         834
  -------         ENDMOD        ISD51_CONFIGURATION

  -------         MODULE        DISKIO
  C:0000H         SYMBOL        _ICE_DUMMY_
  C:5AEBH         PUBLIC        _disk_initialize
  C:5CADH         PUBLIC        _disk_status
  C:5306H         PUBLIC        _disk_read
  C:53C7H         PUBLIC        _disk_write
  C:5E85H         PUBLIC        _disk_ioctl
  C:5B47H         SYMBOL        Com0053
  C:5B47H         SYMBOL        L?0084
  C:5B56H         SYMBOL        L?0085
  C:5B61H         SYMBOL        L?0086
  C:5B70H         SYMBOL        L?0087
  C:5B7BH         SYMBOL        L?0088
  C:5B7BH         SYMBOL        L?0089
  C:5B87H         SYMBOL        L?0090
  C:5B87H         SYMBOL        L?0091
  C:5B93H         SYMBOL        L?0092
  C:5B93H         SYMBOL        L?0093
  C:5B9BH         SYMBOL        L?0094
  C:5B9BH         SYMBOL        L?0095
  -------         PROC          COM0053
  -------         ENDPROC       COM0053
  -------         PROC          _DISK_STATUS
  D:0007H         SYMBOL        pdrv
  -------         DO            
  D:0005H         SYMBOL        stat
  X:842BH         SYMBOL        result
  -------         ENDDO         
  C:5CADH         LINE#         34
  C:5CADH         LINE#         37
  C:5CADH         LINE#         41
  C:5CCDH         LINE#         42
  C:5CCDH         LINE#         43
  C:5CCFH         LINE#         44
  C:5CD1H         LINE#         46
  C:5CD1H         LINE#         47
  C:5CD6H         LINE#         48
  C:5CD6H         LINE#         50
  C:5CD6H         LINE#         51
  C:5CD8H         LINE#         52
  C:5CDAH         LINE#         54
  C:5CDAH         LINE#         55
  C:5CDFH         LINE#         56
  C:5CDFH         LINE#         58
  C:5CDFH         LINE#         59
  C:5CE1H         LINE#         60
  C:5CE3H         LINE#         62
  C:5CE3H         LINE#         63
  C:5CE8H         LINE#         64
BL51 BANKED LINKER/LOCATER V6.22                                                      04/05/2019  05:01:37  PAGE 30


  C:5CE8H         LINE#         66
  C:5CE8H         LINE#         67
  C:5CEAH         LINE#         68
  C:5CECH         LINE#         70
  C:5CECH         LINE#         71
  C:5CF1H         LINE#         72
  C:5CF1H         LINE#         73
  C:5CF1H         LINE#         75
  C:5CF3H         LINE#         76
  -------         ENDPROC       _DISK_STATUS
  -------         PROC          _DISK_INITIALIZE
  D:0007H         SYMBOL        pdrv
  -------         DO            
  X:842BH         SYMBOL        stat
  X:842CH         SYMBOL        result
  -------         ENDDO         
  C:5AEBH         LINE#         84
  C:5AEBH         LINE#         87
  C:5AEBH         LINE#         91
  C:5B0BH         LINE#         92
  C:5B0BH         LINE#         93
  C:5B0DH         LINE#         94
  C:5B0FH         LINE#         96
  C:5B0FH         LINE#         97
  C:5B14H         LINE#         98
  C:5B16H         LINE#         100
  C:5B16H         LINE#         101
  C:5B1BH         LINE#         102
  C:5B1DH         LINE#         104
  C:5B1DH         LINE#         105
  C:5B22H         LINE#         106
  C:5B24H         LINE#         108
  C:5B24H         LINE#         109
  C:5B29H         LINE#         110
  C:5B2BH         LINE#         112
  C:5B2BH         LINE#         113
  C:5B30H         LINE#         114
  C:5B32H         LINE#         116
  C:5B32H         LINE#         117
  C:5B37H         LINE#         118
  C:5B39H         LINE#         120
  C:5B39H         LINE#         121
  C:5B43H         LINE#         122
  C:5B44H         LINE#         123
  C:5B44H         LINE#         124
  C:5B46H         LINE#         125
  -------         ENDPROC       _DISK_INITIALIZE
  -------         PROC          _DISK_READ
  D:0007H         SYMBOL        pdrv
  X:8457H         SYMBOL        buff
  X:845AH         SYMBOL        sector
  X:845EH         SYMBOL        count
  -------         DO            
  X:8460H         SYMBOL        res
  X:8461H         SYMBOL        result
  -------         ENDDO         
  C:5306H         LINE#         132
BL51 BANKED LINKER/LOCATER V6.22                                                      04/05/2019  05:01:37  PAGE 31


  C:530CH         LINE#         138
  C:530CH         LINE#         142
  C:532CH         LINE#         143
  C:532CH         LINE#         144
  C:5335H         LINE#         145
  C:5337H         LINE#         147
  C:5337H         LINE#         148
  C:5343H         LINE#         149
  C:5346H         LINE#         151
  C:5346H         LINE#         152
  C:5358H         LINE#         153
  C:535BH         LINE#         155
  C:535BH         LINE#         156
  C:536DH         LINE#         157
  C:5370H         LINE#         159
  C:5370H         LINE#         160
  C:5382H         LINE#         161
  C:5384H         LINE#         163
  C:5384H         LINE#         164
  C:5396H         LINE#         165
  C:5398H         LINE#         167
  C:5398H         LINE#         168
  C:53AAH         LINE#         169
  C:53ACH         LINE#         171
  C:53ACH         LINE#         172
  C:53C3H         LINE#         173
  C:53C4H         LINE#         174
  C:53C4H         LINE#         176
  C:53C6H         LINE#         177
  -------         ENDPROC       _DISK_READ
  -------         PROC          _DISK_WRITE
  D:0007H         SYMBOL        pdrv
  X:845BH         SYMBOL        buff
  X:845EH         SYMBOL        sector
  X:8462H         SYMBOL        count
  -------         DO            
  X:8464H         SYMBOL        res
  X:8465H         SYMBOL        result
  -------         ENDDO         
  C:53C7H         LINE#         187
  C:53CDH         LINE#         193
  C:53CDH         LINE#         197
  C:53EDH         LINE#         198
  C:53EDH         LINE#         199
  C:53F6H         LINE#         200
  C:53F8H         LINE#         202
  C:53F8H         LINE#         203
  C:5404H         LINE#         204
  C:5407H         LINE#         206
  C:5407H         LINE#         207
  C:5419H         LINE#         208
  C:541CH         LINE#         210
  C:541CH         LINE#         211
  C:542EH         LINE#         212
  C:5431H         LINE#         214
  C:5431H         LINE#         215
  C:5443H         LINE#         216
BL51 BANKED LINKER/LOCATER V6.22                                                      04/05/2019  05:01:37  PAGE 32


  C:5445H         LINE#         218
  C:5445H         LINE#         219
  C:5457H         LINE#         220
  C:5459H         LINE#         222
  C:5459H         LINE#         223
  C:546BH         LINE#         224
  C:546DH         LINE#         226
  C:546DH         LINE#         227
  C:5484H         LINE#         228
  C:5485H         LINE#         229
  C:5485H         LINE#         231
  C:5487H         LINE#         232
  -------         ENDPROC       _DISK_WRITE
  -------         PROC          _DISK_IOCTL
  D:0007H         SYMBOL        pdrv
  X:83B7H         SYMBOL        cmd
  X:83B8H         SYMBOL        buff
  -------         DO            
  X:83BBH         SYMBOL        res
  X:83BCH         SYMBOL        result
  -------         ENDDO         
  C:5E85H         LINE#         241
  C:5E8EH         LINE#         246
  C:5E8EH         LINE#         250
  C:5EAEH         LINE#         251
  C:5EAEH         LINE#         257
  C:5EAEH         LINE#         263
  C:5EAEH         LINE#         269
  C:5EAEH         LINE#         274
  C:5EAEH         LINE#         280
  C:5EAEH         LINE#         286
  C:5EAEH         LINE#         290
  C:5EAEH         LINE#         292
  C:5EB4H         LINE#         297
  C:5EB4H         LINE#         299
  C:5EB6H         LINE#         300
  -------         ENDPROC       _DISK_IOCTL
  -------         ENDMOD        DISKIO

  -------         MODULE        FF
  C:0000H         SYMBOL        _ICE_DUMMY_
  C:2411H         PUBLIC        _f_open
  C:5E1DH         PUBLIC        _f_close
  C:29F3H         PUBLIC        _f_read
  C:1DA2H         PUBLIC        _f_write
  C:272EH         PUBLIC        _f_lseek
  C:4C2DH         PUBLIC        _f_sync
  C:4FD5H         PUBLIC        _f_opendir
  C:5E51H         PUBLIC        _f_closedir
  C:5A26H         PUBLIC        _f_readdir
  C:3C2EH         PUBLIC        _f_getlabel
  C:355EH         PUBLIC        _f_setlabel
  C:59BAH         PUBLIC        _f_mount
  X:883EH         SYMBOL        FatFs
  X:8841H         SYMBOL        Fsid
  X:8843H         SYMBOL        LfnOfs
  X:8850H         SYMBOL        LfnBuf
BL51 BANKED LINKER/LOCATER V6.22                                                      04/05/2019  05:01:37  PAGE 33


  X:8A50H         SYMBOL        ExCvt
  C:60F9H         SYMBOL        _ld_word
  C:58DDH         SYMBOL        _ld_dword
  C:60B8H         SYMBOL        _st_word
  C:606FH         SYMBOL        _st_dword
  C:5DE8H         SYMBOL        _mem_cpy
  C:6135H         SYMBOL        _mem_set
  C:5DB2H         SYMBOL        _mem_cmp
  C:6094H         SYMBOL        _chk_chr
  C:62EBH         SYMBOL        _dbc_1st
  C:62F0H         SYMBOL        _dbc_2nd
  C:4580H         SYMBOL        _tchar2uni
  C:46D0H         SYMBOL        _put_utf
  C:5542H         SYMBOL        _sync_window
  C:586BH         SYMBOL        _move_window
  C:481DH         SYMBOL        _sync_fs
  C:5BA3H         SYMBOL        _clst2sect
  C:3A8CH         SYMBOL        _get_fat
  C:3382H         SYMBOL        _put_fat
  C:4A31H         SYMBOL        _remove_chain
  C:316AH         SYMBOL        _create_chain
  C:5240H         SYMBOL        _dir_clear
  C:40EDH         SYMBOL        _dir_sdi
  C:38DEH         SYMBOL        _dir_next
  C:57DCH         SYMBOL        _dir_alloc
  C:5C5BH         SYMBOL        _ld_clust
  C:5EB7H         SYMBOL        _st_clust
  C:492BH         SYMBOL        _cmp_lfn
  C:4E19H         SYMBOL        _pick_lfn
  C:4D29H         SYMBOL        _put_lfn
  C:372AH         SYMBOL        _gen_numname
  C:5F19H         SYMBOL        _sum_sfn
  C:427DH         SYMBOL        _dir_read
  C:3DC7H         SYMBOL        _dir_find
  C:2F2CH         SYMBOL        _dir_register
  C:20F0H         SYMBOL        _get_fileinfo
  C:19D0H         SYMBOL        _create_name
  C:5173H         SYMBOL        _follow_path
  C:50A5H         SYMBOL        _get_ldnumber
  C:55FBH         SYMBOL        _check_fs
  C:0FABH         SYMBOL        _find_volume
  C:594DH         SYMBOL        _validate
  C:0026H         SYMBOL        Com02E9
  C:0026H         SYMBOL        L?0746
  C:0026H         SYMBOL        L?0747
  C:0028H         SYMBOL        L?0748
  C:0029H         SYMBOL        L?0749
  C:002CH         SYMBOL        L?0750
  C:002FH         SYMBOL        L?0751
  C:0036H         SYMBOL        L?0752
  C:0057H         SYMBOL        L?0753
  C:0073H         SYMBOL        L?0754
  C:0078H         SYMBOL        L?0755
  C:0082H         SYMBOL        L?0756
  C:0084H         SYMBOL        L?0757
  C:0094H         SYMBOL        L?0758
  C:009AH         SYMBOL        L?0759
BL51 BANKED LINKER/LOCATER V6.22                                                      04/05/2019  05:01:37  PAGE 34


  C:009DH         SYMBOL        L?0760
  C:00A5H         SYMBOL        L?0761
  C:00A5H         SYMBOL        L?0762
  C:00A8H         SYMBOL        L?0763
  C:00ABH         SYMBOL        L?0764
  C:00B1H         SYMBOL        L?0765
  C:00B4H         SYMBOL        L?0766
  C:00BEH         SYMBOL        L?0767
  C:00C7H         SYMBOL        L?0768
  C:00CFH         SYMBOL        L?0769
  C:00D2H         SYMBOL        L?0770
  C:00D8H         SYMBOL        L?0771
  C:00DEH         SYMBOL        L?0772
  C:00E4H         SYMBOL        L?0773
  C:00E7H         SYMBOL        L?0774
  C:00EAH         SYMBOL        L?0775
  C:00F3H         SYMBOL        L?0776
  C:00F6H         SYMBOL        L?0777
  C:00F9H         SYMBOL        L?0778
  C:00FCH         SYMBOL        L?0779
  C:00FDH         SYMBOL        L?0780
  C:00FEH         SYMBOL        L?0781
  C:0105H         SYMBOL        L?0782
  C:011BH         SYMBOL        L?0783
  C:011EH         SYMBOL        L?0784
  C:0121H         SYMBOL        L?0785
  C:0127H         SYMBOL        L?0786
  C:012AH         SYMBOL        L?0787
  C:012DH         SYMBOL        L?0788
  C:0130H         SYMBOL        L?0789
  C:0134H         SYMBOL        L?0790
  C:013EH         SYMBOL        L?0791
  C:014BH         SYMBOL        L?0792
  C:014FH         SYMBOL        L?0793
  C:0156H         SYMBOL        L?0794
  C:0156H         SYMBOL        L?0795
  C:0159H         SYMBOL        L?0796
  C:015CH         SYMBOL        L?0797
  C:0162H         SYMBOL        L?0798
  C:0165H         SYMBOL        L?0799
  C:0168H         SYMBOL        L?0800
  C:016EH         SYMBOL        L?0801
  C:016EH         SYMBOL        L?0802
  C:0177H         SYMBOL        L?0803
  C:017AH         SYMBOL        L?0804
  C:017EH         SYMBOL        L?0805
  C:017FH         SYMBOL        L?0806
  C:0188H         SYMBOL        L?0807
  C:018DH         SYMBOL        L?0808
  C:0190H         SYMBOL        L?0809
  C:0197H         SYMBOL        L?0810
  C:0197H         SYMBOL        L?0811
  C:019AH         SYMBOL        L?0812
  C:019DH         SYMBOL        L?0813
  C:01A3H         SYMBOL        L?0814
  C:01A3H         SYMBOL        L?0815
  C:01A4H         SYMBOL        L?0816
BL51 BANKED LINKER/LOCATER V6.22                                                      04/05/2019  05:01:37  PAGE 35


  C:01AAH         SYMBOL        L?0817
  C:01ADH         SYMBOL        L?0818
  C:01B2H         SYMBOL        L?0819
  C:01B8H         SYMBOL        L?0820
  C:01BBH         SYMBOL        L?0821
  C:01C4H         SYMBOL        L?0822
  C:01CAH         SYMBOL        L?0823
  C:01CDH         SYMBOL        L?0824
  C:01D0H         SYMBOL        L?0825
  C:01D7H         SYMBOL        L?0826
  C:01D7H         SYMBOL        L?0827
  C:01DAH         SYMBOL        L?0828
  C:01E2H         SYMBOL        L?0829
  C:01E2H         SYMBOL        L?0830
  C:01EDH         SYMBOL        L?0831
  C:01FEH         SYMBOL        L?0832
  C:0201H         SYMBOL        L?0833
  C:020AH         SYMBOL        L?0834
  C:020EH         SYMBOL        L?0835
  C:0214H         SYMBOL        L?0836
  C:0217H         SYMBOL        L?0837
  C:021AH         SYMBOL        L?0838
  C:0220H         SYMBOL        L?0839
  C:0220H         SYMBOL        L?0840
  C:0223H         SYMBOL        L?0841
  C:0226H         SYMBOL        L?0842
  C:0229H         SYMBOL        L?0843
  C:0231H         SYMBOL        L?0844
  C:0231H         SYMBOL        L?0845
  C:0234H         SYMBOL        L?0846
  C:0237H         SYMBOL        L?0847
  C:023DH         SYMBOL        L?0848
  C:023DH         SYMBOL        L?0849
  C:0247H         SYMBOL        L?0850
  C:024DH         SYMBOL        L?0851
  C:0256H         SYMBOL        L?0852
  C:025DH         SYMBOL        L?0853
  C:025DH         SYMBOL        L?0854
  C:0260H         SYMBOL        L?0855
  C:0269H         SYMBOL        L?0856
  C:0269H         SYMBOL        L?0857
  C:026CH         SYMBOL        L?0858
  C:0273H         SYMBOL        L?0859
  C:0276H         SYMBOL        L?0860
  C:027DH         SYMBOL        L?0861
  C:0280H         SYMBOL        L?0862
  C:028AH         SYMBOL        L?0863
  C:0296H         SYMBOL        L?0864
  C:029CH         SYMBOL        L?0865
  C:029CH         SYMBOL        L?0866
  C:029FH         SYMBOL        L?0867
  C:02AAH         SYMBOL        L?0869
  C:02ADH         SYMBOL        L?0870
  C:02B3H         SYMBOL        L?0871
  C:02BDH         SYMBOL        L?0872
  C:02BEH         SYMBOL        L?0873
  C:02C4H         SYMBOL        L?0874
BL51 BANKED LINKER/LOCATER V6.22                                                      04/05/2019  05:01:37  PAGE 36


  C:02D0H         SYMBOL        L?0875
  C:02D6H         SYMBOL        L?0876
  C:02D9H         SYMBOL        L?0877
  C:02E0H         SYMBOL        L?0878
  C:02E3H         SYMBOL        L?0879
  C:02ECH         SYMBOL        L?0880
  C:02EFH         SYMBOL        L?0881
  C:02F8H         SYMBOL        L?0883
  C:02F9H         SYMBOL        L?0884
  C:0300H         SYMBOL        L?0885
  C:0300H         SYMBOL        L?0886
  C:0306H         SYMBOL        L?0887
  C:0308H         SYMBOL        L?0888
  C:030EH         SYMBOL        L?0889
  C:030EH         SYMBOL        L?0890
  C:0314H         SYMBOL        L?0891
  C:031AH         SYMBOL        L?0893
  C:031AH         SYMBOL        L?0894
  C:031FH         SYMBOL        L?0895
  C:0329H         SYMBOL        L?0896
  C:032BH         SYMBOL        L?0897
  C:032CH         SYMBOL        L?0898
  C:0334H         SYMBOL        L?0899
  C:0335H         SYMBOL        L?0900
  C:033BH         SYMBOL        L?0901
  C:033EH         SYMBOL        L?0902
  C:0345H         SYMBOL        L?0903
  C:0348H         SYMBOL        L?0904
  C:034FH         SYMBOL        L?0905
  C:0355H         SYMBOL        L?0906
  C:035CH         SYMBOL        L?0907
  C:035FH         SYMBOL        L?0908
  C:0362H         SYMBOL        L?0909
  C:0368H         SYMBOL        L?0910
  C:0368H         SYMBOL        L?0911
  C:036BH         SYMBOL        L?0912
  C:0372H         SYMBOL        L?0913
  C:0372H         SYMBOL        L?0914
  C:0375H         SYMBOL        L?0915
  C:037DH         SYMBOL        L?0916
  C:0384H         SYMBOL        L?0917
  C:0391H         SYMBOL        L?0918
  C:0391H         SYMBOL        L?0919
  C:0397H         SYMBOL        L?0920
  C:039AH         SYMBOL        L?0921
  C:03A0H         SYMBOL        L?0922
  C:03A0H         SYMBOL        L?0923
  C:03A3H         SYMBOL        L?0924
  C:03AAH         SYMBOL        L?0925
  C:03AAH         SYMBOL        L?0926
  C:03B3H         SYMBOL        L?0929
  C:03B4H         SYMBOL        L?0930
  C:03BBH         SYMBOL        L?0931
  C:03BBH         SYMBOL        L?0932
  C:03CAH         SYMBOL        L?0933
  C:03CAH         SYMBOL        L?0934
  C:03D8H         SYMBOL        L?0935
BL51 BANKED LINKER/LOCATER V6.22                                                      04/05/2019  05:01:37  PAGE 37


  C:03D8H         SYMBOL        L?0936
  C:03DAH         SYMBOL        L?0937
  C:03E0H         SYMBOL        L?0938
  C:03E3H         SYMBOL        L?0939
  C:03EDH         SYMBOL        L?0940
  C:03F9H         SYMBOL        L?0941
  C:0400H         SYMBOL        L?0942
  C:0400H         SYMBOL        L?0943
  C:0406H         SYMBOL        L?0944
  C:0406H         SYMBOL        L?0945
  C:0409H         SYMBOL        L?0946
  C:040FH         SYMBOL        L?0947
  C:0412H         SYMBOL        L?0948
  C:0415H         SYMBOL        L?0949
  C:041DH         SYMBOL        L?0950
  C:041DH         SYMBOL        L?0951
  C:0423H         SYMBOL        L?0952
  C:0426H         SYMBOL        L?0953
  C:042CH         SYMBOL        L?0954
  C:042CH         SYMBOL        L?0955
  C:0434H         SYMBOL        L?0956
  C:0434H         SYMBOL        L?0957
  C:043CH         SYMBOL        L?0958
  C:043EH         SYMBOL        L?0959
  C:0444H         SYMBOL        L?0961
  C:0447H         SYMBOL        L?0962
  C:0453H         SYMBOL        L?0963
  C:0456H         SYMBOL        L?0964
  C:045DH         SYMBOL        L?0965
  C:0460H         SYMBOL        L?0966
  C:0466H         SYMBOL        L?0967
  C:0466H         SYMBOL        L?0968
  C:0469H         SYMBOL        L?0969
  C:0470H         SYMBOL        L?0970
  C:0470H         SYMBOL        L?0971
  C:0476H         SYMBOL        L?0972
  C:047FH         SYMBOL        L?0973
  C:0486H         SYMBOL        L?0974
  C:048FH         SYMBOL        L?0975
  C:0496H         SYMBOL        L?0977
  C:0498H         SYMBOL        L?0978
  C:04A1H         SYMBOL        L?0979
  C:04A1H         SYMBOL        L?0980
  C:04A2H         SYMBOL        L?0981
  C:04A9H         SYMBOL        L?0982
  C:04A9H         SYMBOL        L?0983
  C:04B4H         SYMBOL        L?0984
  C:04B5H         SYMBOL        L?0985
  C:04BCH         SYMBOL        L?0986
  C:04C6H         SYMBOL        L?0987
  C:04CDH         SYMBOL        L?0989
  C:04CDH         SYMBOL        L?0990
  C:04D0H         SYMBOL        L?0991
  C:04D6H         SYMBOL        L?0992
  C:04DFH         SYMBOL        L?0993
  C:04E5H         SYMBOL        L?0994
  C:04E5H         SYMBOL        L?0995
BL51 BANKED LINKER/LOCATER V6.22                                                      04/05/2019  05:01:37  PAGE 38


  C:04ECH         SYMBOL        L?0996
  C:04FFH         SYMBOL        L?0997
  C:04FFH         SYMBOL        L?0998
  C:0509H         SYMBOL        L?0999
  C:050DH         SYMBOL        L?1000
  C:0515H         SYMBOL        L?1001
  C:0519H         SYMBOL        L?1002
  C:0521H         SYMBOL        L?1003
  C:0523H         SYMBOL        L?1004
  C:052DH         SYMBOL        L?1005
  C:052DH         SYMBOL        L?1006
  C:0538H         SYMBOL        L?1007
  C:053BH         SYMBOL        L?1008
  C:0544H         SYMBOL        L?1009
  C:0547H         SYMBOL        L?1010
  C:0550H         SYMBOL        L?1011
  C:0550H         SYMBOL        L?1012
  C:0556H         SYMBOL        L?1013
  C:0559H         SYMBOL        L?1014
  C:055FH         SYMBOL        L?1015
  C:055FH         SYMBOL        L?1016
  C:0566H         SYMBOL        L?1017
  C:0566H         SYMBOL        L?1018
  C:0570H         SYMBOL        L?1019
  C:0570H         SYMBOL        L?1020
  C:0576H         SYMBOL        L?1021
  C:0576H         SYMBOL        L?1022
  C:057DH         SYMBOL        L?1023
  C:057DH         SYMBOL        L?1024
  C:0584H         SYMBOL        L?1025
  C:0584H         SYMBOL        L?1026
  C:058AH         SYMBOL        L?1027
  C:058AH         SYMBOL        L?1028
  C:0590H         SYMBOL        L?1029
  C:0590H         SYMBOL        L?1030
  C:0596H         SYMBOL        L?1031
  C:0596H         SYMBOL        L?1032
  C:059EH         SYMBOL        L?1033
  C:05A1H         SYMBOL        L?1034
  C:05A8H         SYMBOL        L?1035
  C:05A9H         SYMBOL        L?1036
  C:05B1H         SYMBOL        L?1037
  C:05B1H         SYMBOL        L?1038
  C:05BBH         SYMBOL        L?1041
  C:05CAH         SYMBOL        L?1042
  C:05CDH         SYMBOL        L?1043
  C:05D4H         SYMBOL        L?1044
  C:05D7H         SYMBOL        L?1045
  C:05DFH         SYMBOL        L?1046
  C:05E4H         SYMBOL        L?1047
  C:05EBH         SYMBOL        L?1048
  C:05FAH         SYMBOL        L?1050
  C:05FAH         SYMBOL        L?1051
  C:0603H         SYMBOL        L?1052
  C:0611H         SYMBOL        L?1054
  C:0611H         SYMBOL        L?1055
  C:0618H         SYMBOL        L?1056
BL51 BANKED LINKER/LOCATER V6.22                                                      04/05/2019  05:01:37  PAGE 39


  C:0618H         SYMBOL        L?1057
  C:061FH         SYMBOL        L?1058
  C:061FH         SYMBOL        L?1059
  C:0626H         SYMBOL        L?1060
  C:0629H         SYMBOL        L?1061
  C:062FH         SYMBOL        L?1062
  C:062FH         SYMBOL        L?1063
  C:0635H         SYMBOL        L?1064
  C:0642H         SYMBOL        L?1065
  C:064FH         SYMBOL        L?1066
  C:065CH         SYMBOL        L?1067
  C:065CH         SYMBOL        L?1068
  C:0663H         SYMBOL        L?1069
  C:0663H         SYMBOL        L?1070
  C:0669H         SYMBOL        L?1071
  C:0676H         SYMBOL        L?1072
  C:0683H         SYMBOL        L?1073
  C:0683H         SYMBOL        L?1074
  C:068AH         SYMBOL        L?1075
  C:068AH         SYMBOL        L?1076
  C:0690H         SYMBOL        L?1077
  C:0690H         SYMBOL        L?1078
  C:0696H         SYMBOL        L?1079
  C:0696H         SYMBOL        L?1080
  C:069CH         SYMBOL        L?1081
  C:06A9H         SYMBOL        L?1082
  C:06ACH         SYMBOL        L?1083
  C:06B2H         SYMBOL        L?1084
  C:06B2H         SYMBOL        L?1085
  C:06B8H         SYMBOL        L?1086
  C:06B8H         SYMBOL        L?1087
  C:06BEH         SYMBOL        L?1088
  C:06BEH         SYMBOL        L?1089
  C:06C4H         SYMBOL        L?1090
  C:06CCH         SYMBOL        L?1091
  C:06CCH         SYMBOL        L?1092
  C:06D3H         SYMBOL        L?1093
  C:06DFH         SYMBOL        L?1094
  C:06DFH         SYMBOL        L?1095
  C:06E7H         SYMBOL        L?1096
  C:06F3H         SYMBOL        L?1097
  C:06FFH         SYMBOL        L?1098
  C:0700H         SYMBOL        L?1099
  C:0706H         SYMBOL        L?1100
  C:0712H         SYMBOL        L?1103
  C:0713H         SYMBOL        L?1104
  C:0719H         SYMBOL        L?1105
  C:0724H         SYMBOL        L?1106
  C:072FH         SYMBOL        L?1107
  C:072FH         SYMBOL        L?1108
  C:0736H         SYMBOL        L?1109
  C:073FH         SYMBOL        L?1110
  C:073FH         SYMBOL        L?1111
  C:0745H         SYMBOL        L?1112
  C:0745H         SYMBOL        L?1113
  C:074BH         SYMBOL        L?1114
  C:074BH         SYMBOL        L?1115
BL51 BANKED LINKER/LOCATER V6.22                                                      04/05/2019  05:01:37  PAGE 40


  C:0751H         SYMBOL        L?1116
  C:0751H         SYMBOL        L?1117
  C:0757H         SYMBOL        L?1118
  C:0757H         SYMBOL        L?1119
  C:075DH         SYMBOL        L?1120
  C:0767H         SYMBOL        L?1121
  C:0767H         SYMBOL        L?1122
  C:076DH         SYMBOL        L?1123
  C:076DH         SYMBOL        L?1124
  C:0773H         SYMBOL        L?1125
  C:0773H         SYMBOL        L?1126
  C:077AH         SYMBOL        L?1127
  C:077AH         SYMBOL        L?1128
  C:0780H         SYMBOL        L?1129
  C:0780H         SYMBOL        L?1130
  C:0786H         SYMBOL        L?1131
  C:0786H         SYMBOL        L?1132
  C:078CH         SYMBOL        L?1133
  C:078CH         SYMBOL        L?1134
  C:0792H         SYMBOL        L?1135
  C:0798H         SYMBOL        L?1136
  C:0798H         SYMBOL        L?1137
  C:079EH         SYMBOL        L?1138
  C:079EH         SYMBOL        L?1139
  C:07A4H         SYMBOL        L?1140
  C:07A4H         SYMBOL        L?1141
  C:07AAH         SYMBOL        L?1142
  C:07AAH         SYMBOL        L?1143
  C:07B0H         SYMBOL        L?1144
  C:07B0H         SYMBOL        L?1145
  C:07B6H         SYMBOL        L?1146
  C:07C0H         SYMBOL        L?1147
  C:07C0H         SYMBOL        L?1148
  C:07C6H         SYMBOL        L?1149
  C:07C6H         SYMBOL        L?1150
  C:07CDH         SYMBOL        L?1151
  C:07CDH         SYMBOL        L?1152
  C:07D3H         SYMBOL        L?1153
  C:07D3H         SYMBOL        L?1154
  C:07DAH         SYMBOL        L?1155
  C:07E4H         SYMBOL        L?1156
  C:07EEH         SYMBOL        L?1157
  C:07F7H         SYMBOL        L?1158
  C:07F7H         SYMBOL        L?1159
  C:07FEH         SYMBOL        L?1160
  C:07FEH         SYMBOL        L?1161
  C:0804H         SYMBOL        L?1162
  C:0804H         SYMBOL        L?1163
  C:080AH         SYMBOL        L?1164
  C:080AH         SYMBOL        L?1165
  C:0810H         SYMBOL        L?1166
  C:0810H         SYMBOL        L?1167
  C:0816H         SYMBOL        L?1168
  C:081FH         SYMBOL        L?1169
  C:081FH         SYMBOL        L?1170
  C:0825H         SYMBOL        L?1171
  C:082EH         SYMBOL        L?1172
BL51 BANKED LINKER/LOCATER V6.22                                                      04/05/2019  05:01:37  PAGE 41


  C:082EH         SYMBOL        L?1173
  C:0834H         SYMBOL        L?1174
  C:0834H         SYMBOL        L?1175
  C:083AH         SYMBOL        L?1176
  C:083AH         SYMBOL        L?1177
  C:0840H         SYMBOL        L?1178
  C:0840H         SYMBOL        L?1179
  C:0846H         SYMBOL        L?1180
  C:0850H         SYMBOL        L?1181
  C:0850H         SYMBOL        L?1182
  C:0857H         SYMBOL        L?1183
  C:0857H         SYMBOL        L?1184
  C:085EH         SYMBOL        L?1185
  C:085EH         SYMBOL        L?1186
  -------         PROC          COM02E9
  -------         ENDPROC       COM02E9
  -------         PROC          _LD_WORD
  D:0001H         SYMBOL        ptr
  -------         DO            
  X:844CH         SYMBOL        rv
  -------         ENDDO         
  C:60F9H         LINE#         583
  C:60F9H         LINE#         584
  C:60F9H         LINE#         587
  C:6104H         LINE#         588
  C:6117H         LINE#         589
  C:6117H         LINE#         590
  -------         ENDPROC       _LD_WORD
  -------         PROC          _LD_DWORD
  X:844EH         SYMBOL        ptr
  -------         DO            
  X:8451H         SYMBOL        rv
  -------         ENDDO         
  C:58DDH         LINE#         592
  C:58E3H         LINE#         593
  C:58E3H         LINE#         596
  C:58ECH         LINE#         597
  C:5905H         LINE#         598
  C:5925H         LINE#         599
  C:5946H         LINE#         600
  C:594CH         LINE#         601
  -------         ENDPROC       _LD_DWORD
  -------         PROC          _ST_WORD
  X:844EH         SYMBOL        ptr
  D:0004H         SYMBOL        val
  C:60B8H         LINE#         621
  C:60BEH         LINE#         622
  C:60BEH         LINE#         623
  C:60CBH         LINE#         624
  -------         ENDPROC       _ST_WORD
  -------         PROC          _ST_DWORD
  X:844EH         SYMBOL        ptr
  X:8451H         SYMBOL        val
  C:606FH         LINE#         627
  C:6075H         LINE#         628
  C:6075H         LINE#         629
  C:607BH         LINE#         630
BL51 BANKED LINKER/LOCATER V6.22                                                      04/05/2019  05:01:37  PAGE 42


  C:6081H         LINE#         631
  C:6087H         LINE#         632
  -------         ENDPROC       _ST_DWORD
  -------         PROC          _MEM_CPY
  D:0001H         SYMBOL        dst
  X:842BH         SYMBOL        src
  X:842EH         SYMBOL        cnt
  -------         DO            
  X:8430H         SYMBOL        d
  X:8433H         SYMBOL        s
  -------         ENDDO         
  C:5DE8H         LINE#         657
  C:5DE8H         LINE#         658
  C:5DE8H         LINE#         659
  C:5DEEH         LINE#         660
  C:5DFAH         LINE#         662
  C:5E04H         LINE#         663
  C:5E04H         LINE#         664
  C:5E12H         LINE#         665
  C:5E1CH         LINE#         666
  C:5E1CH         LINE#         667
  -------         ENDPROC       _MEM_CPY
  -------         PROC          _MEM_SET
  D:0001H         SYMBOL        dst
  D:0004H         SYMBOL        val
  X:843DH         SYMBOL        cnt
  -------         DO            
  X:843FH         SYMBOL        d
  -------         ENDDO         
  C:6135H         LINE#         671
  C:6135H         LINE#         672
  C:6135H         LINE#         673
  C:613BH         LINE#         675
  C:613BH         LINE#         676
  C:6144H         LINE#         677
  C:614EH         LINE#         678
  -------         ENDPROC       _MEM_SET
  -------         PROC          _MEM_CMP
  D:0001H         SYMBOL        dst
  X:8431H         SYMBOL        src
  X:8434H         SYMBOL        cnt
  -------         DO            
  X:8436H         SYMBOL        d
  X:8439H         SYMBOL        s
  D:0006H         SYMBOL        r
  -------         ENDDO         
  C:5DB2H         LINE#         682
  C:5DB2H         LINE#         683
  C:5DB2H         LINE#         684
  C:5DC1H         LINE#         685
  C:5DC4H         LINE#         687
  C:5DC4H         LINE#         688
  C:5DD9H         LINE#         689
  C:5DE7H         LINE#         691
  C:5DE7H         LINE#         692
  -------         ENDPROC       _MEM_CMP
  -------         PROC          _CHK_CHR
BL51 BANKED LINKER/LOCATER V6.22                                                      04/05/2019  05:01:37  PAGE 43


  D:0001H         SYMBOL        str
  D:0004H         SYMBOL        chr
  C:6094H         LINE#         696
  C:6094H         LINE#         697
  C:6094H         LINE#         698
  C:60AFH         LINE#         699
  C:60B7H         LINE#         700
  -------         ENDPROC       _CHK_CHR
  -------         PROC          _DBC_1ST
  D:0007H         SYMBOL        c
  C:62EBH         LINE#         704
  C:62EBH         LINE#         705
  C:62EBH         LINE#         717
  C:62ECH         LINE#         719
  C:62EFH         LINE#         720
  -------         ENDPROC       _DBC_1ST
  -------         PROC          _DBC_2ND
  D:0007H         SYMBOL        c
  C:62F0H         LINE#         724
  C:62F0H         LINE#         725
  C:62F0H         LINE#         739
  C:62F1H         LINE#         741
  C:62F4H         LINE#         742
  -------         ENDPROC       _DBC_2ND
  -------         PROC          _TCHAR2UNI
  X:8417H         SYMBOL        str
  -------         DO            
  X:841AH         SYMBOL        uc
  X:841EH         SYMBOL        p
  X:8421H         SYMBOL        b
  X:8422H         SYMBOL        nf
  -------         ENDDO         
  C:4580H         LINE#         748
  C:4583H         LINE#         751
  C:4583H         LINE#         753
  C:458CH         LINE#         769
  C:459AH         LINE#         770
  C:45A8H         LINE#         771
  C:45BAH         LINE#         772
  C:45C8H         LINE#         773
  C:45CAH         LINE#         774
  C:45DCH         LINE#         775
  C:45EBH         LINE#         776
  C:45EDH         LINE#         777
  C:45FFH         LINE#         778
  C:460EH         LINE#         779
  C:460EH         LINE#         781
  C:460EH         LINE#         782
  C:460EH         LINE#         783
  C:460EH         LINE#         784
  C:460EH         LINE#         785
  C:4615H         LINE#         786
  C:461EH         LINE#         787
  C:4637H         LINE#         788
  C:4641H         LINE#         789
  C:467AH         LINE#         790
  C:46B7H         LINE#         791
BL51 BANKED LINKER/LOCATER V6.22                                                      04/05/2019  05:01:37  PAGE 44


  C:46B7H         LINE#         815
  C:46CCH         LINE#         816
  C:46CFH         LINE#         817
  -------         ENDPROC       _TCHAR2UNI
  -------         PROC          _PUT_UTF
  X:8DA2H         SYMBOL        chr
  X:8DA6H         SYMBOL        buf
  X:8DA9H         SYMBOL        szb
  -------         DO            
  X:8DABH         SYMBOL        hc
  -------         ENDDO         
  C:46D0H         LINE#         821
  C:46DCH         LINE#         826
  C:46DCH         LINE#         845
  C:46EAH         LINE#         846
  C:46F9H         LINE#         847
  C:4702H         LINE#         848
  C:4705H         LINE#         849
  C:4705H         LINE#         850
  C:470FH         LINE#         851
  C:471EH         LINE#         852
  C:472DH         LINE#         853
  C:4730H         LINE#         854
  C:4733H         LINE#         855
  C:4733H         LINE#         856
  C:473EH         LINE#         857
  C:4766H         LINE#         858
  C:4775H         LINE#         859
  C:4775H         LINE#         860
  C:4778H         LINE#         861
  C:477BH         LINE#         862
  C:477BH         LINE#         864
  C:478AH         LINE#         865
  C:47A3H         LINE#         866
  C:47BBH         LINE#         867
  C:47DAH         LINE#         868
  C:47F6H         LINE#         869
  C:4808H         LINE#         870
  C:4817H         LINE#         871
  C:4817H         LINE#         872
  C:481AH         LINE#         873
  C:481CH         LINE#         902
  -------         ENDPROC       _PUT_UTF
  -------         PROC          _SYNC_WINDOW
  X:8456H         SYMBOL        fs
  -------         DO            
  X:8459H         SYMBOL        res
  -------         ENDDO         
  C:5542H         LINE#         1045
  C:5548H         LINE#         1048
  C:5548H         LINE#         1049
  C:554DH         LINE#         1052
  C:555BH         LINE#         1053
  C:557DH         LINE#         1054
  C:5584H         LINE#         1055
  C:55AFH         LINE#         1056
  C:55EDH         LINE#         1057
BL51 BANKED LINKER/LOCATER V6.22                                                      04/05/2019  05:01:37  PAGE 45


  C:55EDH         LINE#         1058
  C:55EFH         LINE#         1059
  C:55F5H         LINE#         1060
  C:55F5H         LINE#         1061
  C:55F5H         LINE#         1062
  C:55FAH         LINE#         1063
  -------         ENDPROC       _SYNC_WINDOW
  -------         PROC          _MOVE_WINDOW
  X:844EH         SYMBOL        fs
  X:8451H         SYMBOL        sector
  -------         DO            
  X:8455H         SYMBOL        res
  -------         ENDDO         
  C:586BH         LINE#         1067
  C:5877H         LINE#         1071
  C:5877H         LINE#         1072
  C:587CH         LINE#         1075
  C:588AH         LINE#         1077
  C:5898H         LINE#         1079
  C:589AH         LINE#         1080
  C:58BBH         LINE#         1081
  C:58C5H         LINE#         1082
  C:58CBH         LINE#         1083
  C:58CBH         LINE#         1084
  C:58D7H         LINE#         1085
  C:58D7H         LINE#         1086
  C:58D7H         LINE#         1087
  C:58DCH         LINE#         1088
  -------         ENDPROC       _MOVE_WINDOW
  C:4917H         SYMBOL        L?0892
  C:4921H         SYMBOL        L?0976
  -------         PROC          _SYNC_FS
  X:83B3H         SYMBOL        fs
  -------         DO            
  X:83B6H         SYMBOL        res
  -------         ENDDO         
  C:481DH         LINE#         1098
  C:4823H         LINE#         1101
  C:4823H         LINE#         1105
  C:482BH         LINE#         1106
  C:4830H         LINE#         1107
  C:484AH         LINE#         1109
  C:485BH         LINE#         1110
  C:4868H         LINE#         1111
  C:4876H         LINE#         1112
  C:4889H         LINE#         1113
  C:48A9H         LINE#         1114
  C:48C6H         LINE#         1116
  C:48D2H         LINE#         1117
  C:48F4H         LINE#         1118
  C:48FAH         LINE#         1119
  C:48FAH         LINE#         1121
  C:4911H         LINE#         1122
  C:4911H         LINE#         1124
  C:4916H         LINE#         1125
  -------         ENDPROC       _SYNC_FS
  -------         PROC          _CLST2SECT
BL51 BANKED LINKER/LOCATER V6.22                                                      04/05/2019  05:01:37  PAGE 46


  X:8438H         SYMBOL        fs
  X:843BH         SYMBOL        clst
  C:5BA3H         LINE#         1135
  C:5BAFH         LINE#         1139
  C:5BAFH         LINE#         1140
  C:5BCCH         LINE#         1141
  C:5BE3H         LINE#         1142
  C:5BFEH         LINE#         1143
  -------         ENDPROC       _CLST2SECT
  C:3C20H         SYMBOL        L?0960
  -------         PROC          _GET_FAT
  D:0001H         SYMBOL        obj
  X:843DH         SYMBOL        clst
  -------         DO            
  X:8441H         SYMBOL        wc
  X:8443H         SYMBOL        bc
  X:8445H         SYMBOL        val
  X:8449H         SYMBOL        fs
  -------         ENDDO         
  C:3A8CH         LINE#         1152
  C:3A92H         LINE#         1156
  C:3A92H         LINE#         1159
  C:3A98H         LINE#         1162
  C:3AB1H         LINE#         1163
  C:3AB1H         LINE#         1165
  C:3AB4H         LINE#         1166
  C:3ABEH         LINE#         1168
  C:3AD8H         LINE#         1169
  C:3AD8H         LINE#         1170
  C:3AF6H         LINE#         1171
  C:3B1CH         LINE#         1172
  C:3B37H         LINE#         1173
  C:3B4DH         LINE#         1174
  C:3B69H         LINE#         1175
  C:3B86H         LINE#         1176
  C:3B88H         LINE#         1178
  C:3B88H         LINE#         1179
  C:3BA6H         LINE#         1180
  C:3BBBH         LINE#         1181
  C:3BBDH         LINE#         1183
  C:3BBDH         LINE#         1184
  C:3BEBH         LINE#         1185
  C:3C0DH         LINE#         1186
  C:3C0FH         LINE#         1213
  C:3C0FH         LINE#         1214
  C:3C19H         LINE#         1215
  C:3C19H         LINE#         1216
  C:3C19H         LINE#         1218
  C:3C1FH         LINE#         1219
  -------         ENDPROC       _GET_FAT
  C:354CH         SYMBOL        L?0927
  -------         PROC          _PUT_FAT
  X:843DH         SYMBOL        fs
  X:8440H         SYMBOL        clst
  X:8444H         SYMBOL        val
  -------         DO            
  X:8448H         SYMBOL        bc
BL51 BANKED LINKER/LOCATER V6.22                                                      04/05/2019  05:01:37  PAGE 47


  X:844AH         SYMBOL        p
  X:844DH         SYMBOL        res
  -------         ENDDO         
  C:3382H         LINE#         1229
  C:338EH         LINE#         1234
  C:338EH         LINE#         1237
  C:3394H         LINE#         1240
  C:33B3H         LINE#         1241
  C:33CDH         LINE#         1242
  C:33CDH         LINE#         1243
  C:33ECH         LINE#         1244
  C:3417H         LINE#         1245
  C:341CH         LINE#         1246
  C:342EH         LINE#         1247
  C:344CH         LINE#         1248
  C:344FH         LINE#         1249
  C:347AH         LINE#         1250
  C:347FH         LINE#         1251
  C:348FH         LINE#         1252
  C:34B6H         LINE#         1253
  C:34B6H         LINE#         1254
  C:34B9H         LINE#         1256
  C:34B9H         LINE#         1257
  C:34D8H         LINE#         1258
  C:34DAH         LINE#         1259
  C:34ECH         LINE#         1260
  C:34ECH         LINE#         1261
  C:34EFH         LINE#         1263
  C:34EFH         LINE#         1267
  C:3514H         LINE#         1268
  C:3516H         LINE#         1269
  C:3516H         LINE#         1270
  C:3537H         LINE#         1271
  C:3537H         LINE#         1272
  C:3543H         LINE#         1273
  C:3546H         LINE#         1274
  C:3546H         LINE#         1275
  C:3546H         LINE#         1276
  C:3546H         LINE#         1277
  C:354BH         LINE#         1278
  -------         ENDPROC       _PUT_FAT
  C:4B25H         SYMBOL        L?1101
  -------         PROC          _REMOVE_CHAIN
  X:83F1H         SYMBOL        obj
  X:83F4H         SYMBOL        clst
  X:83F8H         SYMBOL        pclst
  -------         DO            
  X:83FCH         SYMBOL        res
  X:83FDH         SYMBOL        nxt
  X:8401H         SYMBOL        fs
  -------         ENDDO         
  C:4A31H         LINE#         1419
  C:4A3DH         LINE#         1424
  C:4A3DH         LINE#         1425
  C:4A42H         LINE#         1427
  C:4A48H         LINE#         1435
  C:4A64H         LINE#         1438
BL51 BANKED LINKER/LOCATER V6.22                                                      04/05/2019  05:01:37  PAGE 48


  C:4A71H         LINE#         1439
  C:4A84H         LINE#         1440
  C:4A89H         LINE#         1441
  C:4A89H         LINE#         1444
  C:4A89H         LINE#         1445
  C:4A9BH         LINE#         1446
  C:4AA6H         LINE#         1447
  C:4AB4H         LINE#         1448
  C:4AC2H         LINE#         1449
  C:4AC2H         LINE#         1450
  C:4AD5H         LINE#         1451
  C:4ADAH         LINE#         1452
  C:4ADAH         LINE#         1453
  C:4AEEH         LINE#         1454
  C:4AFAH         LINE#         1455
  C:4B05H         LINE#         1456
  C:4B05H         LINE#         1475
  C:4B11H         LINE#         1476
  C:4B22H         LINE#         1504
  C:4B24H         LINE#         1505
  -------         ENDPROC       _REMOVE_CHAIN
  C:336BH         SYMBOL        L?0882
  -------         PROC          _CREATE_CHAIN
  X:8426H         SYMBOL        obj
  X:8429H         SYMBOL        clst
  -------         DO            
  X:842DH         SYMBOL        cs
  X:8431H         SYMBOL        ncl
  X:8435H         SYMBOL        scl
  X:8439H         SYMBOL        res
  X:843AH         SYMBOL        fs
  -------         ENDDO         
  C:316AH         LINE#         1514
  C:3173H         LINE#         1518
  C:3173H         LINE#         1521
  C:3179H         LINE#         1524
  C:3186H         LINE#         1525
  C:318FH         LINE#         1526
  C:31AFH         LINE#         1527
  C:31B1H         LINE#         1528
  C:31B1H         LINE#         1529
  C:31BDH         LINE#         1530
  C:31CBH         LINE#         1531
  C:31D3H         LINE#         1532
  C:31E1H         LINE#         1533
  C:31EAH         LINE#         1534
  C:31EAH         LINE#         1535
  C:31F9H         LINE#         1563
  C:31F9H         LINE#         1564
  C:3203H         LINE#         1565
  C:320EH         LINE#         1566
  C:3211H         LINE#         1567
  C:3226H         LINE#         1568
  C:3226H         LINE#         1569
  C:3238H         LINE#         1570
  C:323EH         LINE#         1571
  C:3244H         LINE#         1572
BL51 BANKED LINKER/LOCATER V6.22                                                      04/05/2019  05:01:37  PAGE 49


  C:3263H         LINE#         1573
  C:326DH         LINE#         1574
  C:326DH         LINE#         1575
  C:326DH         LINE#         1576
  C:327AH         LINE#         1577
  C:3280H         LINE#         1578
  C:3280H         LINE#         1579
  C:3283H         LINE#         1580
  C:328EH         LINE#         1581
  C:3298H         LINE#         1582
  C:32A4H         LINE#         1583
  C:32A4H         LINE#         1584
  C:32A4H         LINE#         1585
  C:32ACH         LINE#         1586
  C:32BFH         LINE#         1587
  C:32CCH         LINE#         1588
  C:32CCH         LINE#         1589
  C:32CCH         LINE#         1590
  C:32E4H         LINE#         1591
  C:32F2H         LINE#         1592
  C:3309H         LINE#         1593
  C:3309H         LINE#         1594
  C:3309H         LINE#         1596
  C:330FH         LINE#         1597
  C:3318H         LINE#         1598
  C:333CH         LINE#         1599
  C:334AH         LINE#         1600
  C:334CH         LINE#         1601
  C:3364H         LINE#         1602
  C:3364H         LINE#         1604
  C:336AH         LINE#         1605
  -------         ENDPROC       _CREATE_CHAIN
  -------         PROC          _DIR_CLEAR
  X:8426H         SYMBOL        fs
  X:8429H         SYMBOL        clst
  -------         DO            
  X:842DH         SYMBOL        sect
  X:8431H         SYMBOL        n
  X:8433H         SYMBOL        szb
  X:8435H         SYMBOL        ibuf
  -------         ENDDO         
  C:5240H         LINE#         1647
  C:524CH         LINE#         1651
  C:524CH         LINE#         1657
  C:5255H         LINE#         1658
  C:526AH         LINE#         1659
  C:5276H         LINE#         1660
  C:5284H         LINE#         1671
  C:5284H         LINE#         1672
  C:5293H         LINE#         1673
  C:52ECH         LINE#         1674
  C:52ECH         LINE#         1675
  C:5305H         LINE#         1676
  -------         ENDPROC       _DIR_CLEAR
  -------         PROC          _DIR_SDI
  X:8416H         SYMBOL        dp
  X:8419H         SYMBOL        ofs
BL51 BANKED LINKER/LOCATER V6.22                                                      04/05/2019  05:01:37  PAGE 50


  -------         DO            
  X:841DH         SYMBOL        csz
  X:8421H         SYMBOL        clst
  X:8425H         SYMBOL        fs
  -------         ENDDO         
  C:40EDH         LINE#         1686
  C:40F6H         LINE#         1690
  C:40F6H         LINE#         1692
  C:40FCH         LINE#         1695
  C:4115H         LINE#         1696
  C:4118H         LINE#         1697
  C:4118H         LINE#         1698
  C:4124H         LINE#         1699
  C:412AH         LINE#         1700
  C:4140H         LINE#         1701
  C:414CH         LINE#         1702
  C:414CH         LINE#         1703
  C:414CH         LINE#         1705
  C:4159H         LINE#         1706
  C:4186H         LINE#         1707
  C:4192H         LINE#         1709
  C:4195H         LINE#         1710
  C:41A3H         LINE#         1711
  C:41B1H         LINE#         1712
  C:41C0H         LINE#         1713
  C:41CEH         LINE#         1714
  C:41EAH         LINE#         1715
  C:41F9H         LINE#         1716
  C:41FBH         LINE#         1717
  C:4210H         LINE#         1718
  C:4210H         LINE#         1719
  C:421CH         LINE#         1720
  C:4224H         LINE#         1721
  C:425CH         LINE#         1722
  C:427AH         LINE#         1724
  C:427CH         LINE#         1725
  -------         ENDPROC       _DIR_SDI
  -------         PROC          _DIR_NEXT
  X:8416H         SYMBOL        dp
  X:8419H         SYMBOL        stretch
  -------         DO            
  X:841BH         SYMBOL        ofs
  X:841FH         SYMBOL        clst
  X:8423H         SYMBOL        fs
  -------         ENDDO         
  C:38DEH         LINE#         1734
  C:38E9H         LINE#         1738
  C:38E9H         LINE#         1740
  C:38F2H         LINE#         1743
  C:3907H         LINE#         1744
  C:3922H         LINE#         1745
  C:392DH         LINE#         1747
  C:393CH         LINE#         1748
  C:3948H         LINE#         1750
  C:3950H         LINE#         1751
  C:397DH         LINE#         1752
  C:3980H         LINE#         1753
BL51 BANKED LINKER/LOCATER V6.22                                                      04/05/2019  05:01:37  PAGE 51


  C:3980H         LINE#         1754
  C:3980H         LINE#         1755
  C:3980H         LINE#         1756
  C:39AFH         LINE#         1757
  C:39B8H         LINE#         1758
  C:39C6H         LINE#         1759
  C:39D4H         LINE#         1760
  C:39E2H         LINE#         1762
  C:39ECH         LINE#         1763
  C:39FCH         LINE#         1764
  C:39FCH         LINE#         1765
  C:3A05H         LINE#         1766
  C:3A13H         LINE#         1767
  C:3A21H         LINE#         1768
  C:3A2FH         LINE#         1769
  C:3A44H         LINE#         1770
  C:3A44H         LINE#         1775
  C:3A44H         LINE#         1776
  C:3A53H         LINE#         1777
  C:3A62H         LINE#         1778
  C:3A62H         LINE#         1779
  C:3A62H         LINE#         1780
  C:3A62H         LINE#         1781
  C:3A6EH         LINE#         1782
  C:3A89H         LINE#         1784
  C:3A8BH         LINE#         1785
  -------         ENDPROC       _DIR_NEXT
  -------         PROC          _DIR_ALLOC
  X:840BH         SYMBOL        dp
  X:840EH         SYMBOL        nent
  -------         DO            
  X:8410H         SYMBOL        res
  X:8411H         SYMBOL        n
  X:8413H         SYMBOL        fs
  -------         ENDDO         
  C:57DCH         LINE#         1795
  C:57E7H         LINE#         1799
  C:57E7H         LINE#         1802
  C:57F0H         LINE#         1805
  C:57FEH         LINE#         1806
  C:5800H         LINE#         1807
  C:5804H         LINE#         1808
  C:5804H         LINE#         1809
  C:5818H         LINE#         1810
  C:581AH         LINE#         1814
  C:582BH         LINE#         1816
  C:5840H         LINE#         1818
  C:5847H         LINE#         1819
  C:5847H         LINE#         1820
  C:5859H         LINE#         1821
  C:585BH         LINE#         1822
  C:585BH         LINE#         1824
  C:5865H         LINE#         1825
  C:586AH         LINE#         1826
  -------         ENDPROC       _DIR_ALLOC
  -------         PROC          _LD_CLUST
  X:83FBH         SYMBOL        fs
BL51 BANKED LINKER/LOCATER V6.22                                                      04/05/2019  05:01:37  PAGE 52


  X:83FEH         SYMBOL        dir
  -------         DO            
  X:8401H         SYMBOL        cl
  -------         ENDDO         
  C:5C5BH         LINE#         1837
  C:5C61H         LINE#         1841
  C:5C61H         LINE#         1844
  C:5C70H         LINE#         1845
  C:5C79H         LINE#         1846
  C:5CA6H         LINE#         1847
  C:5CA6H         LINE#         1849
  C:5CACH         LINE#         1850
  -------         ENDPROC       _LD_CLUST
  -------         PROC          _ST_CLUST
  X:83F1H         SYMBOL        fs
  X:83F4H         SYMBOL        dir
  X:83F7H         SYMBOL        cl
  C:5EB7H         LINE#         1854
  C:5EBDH         LINE#         1859
  C:5EBDH         LINE#         1860
  C:5ED0H         LINE#         1861
  C:5ED9H         LINE#         1862
  C:5EE8H         LINE#         1863
  C:5EE8H         LINE#         1864
  -------         ENDPROC       _ST_CLUST
  -------         PROC          _CMP_LFN
  X:8415H         SYMBOL        lfnbuf
  X:8418H         SYMBOL        dir
  -------         DO            
  X:841BH         SYMBOL        i
  X:841DH         SYMBOL        s
  X:841FH         SYMBOL        wc
  X:8421H         SYMBOL        uc
  -------         ENDDO         
  C:492BH         LINE#         1874
  C:4931H         LINE#         1878
  C:4931H         LINE#         1883
  C:4941H         LINE#         1885
  C:4954H         LINE#         1887
  C:4970H         LINE#         1888
  C:4987H         LINE#         1889
  C:4991H         LINE#         1890
  C:49D1H         LINE#         1891
  C:49D3H         LINE#         1892
  C:49D3H         LINE#         1893
  C:49E2H         LINE#         1894
  C:49E4H         LINE#         1895
  C:49F2H         LINE#         1896
  C:49F2H         LINE#         1897
  C:49FBH         LINE#         1899
  C:4A2CH         LINE#         1901
  C:4A30H         LINE#         1902
  -------         ENDPROC       _CMP_LFN
  -------         PROC          _PICK_LFN
  X:8D94H         SYMBOL        lfnbuf
  X:8D97H         SYMBOL        dir
  -------         DO            
BL51 BANKED LINKER/LOCATER V6.22                                                      04/05/2019  05:01:37  PAGE 53


  X:8D9AH         SYMBOL        i
  X:8D9CH         SYMBOL        s
  X:8D9EH         SYMBOL        wc
  X:8DA0H         SYMBOL        uc
  -------         ENDDO         
  C:4E19H         LINE#         1910
  C:4E1FH         LINE#         1914
  C:4E1FH         LINE#         1919
  C:4E2FH         LINE#         1921
  C:4E42H         LINE#         1923
  C:4E5BH         LINE#         1924
  C:4E72H         LINE#         1925
  C:4E7CH         LINE#         1926
  C:4E8DH         LINE#         1927
  C:4EB4H         LINE#         1928
  C:4EB6H         LINE#         1929
  C:4EC4H         LINE#         1930
  C:4EC4H         LINE#         1931
  C:4ECDH         LINE#         1933
  C:4ED6H         LINE#         1934
  C:4EE7H         LINE#         1935
  C:4EF7H         LINE#         1936
  C:4EF7H         LINE#         1938
  C:4EFBH         LINE#         1939
  -------         ENDPROC       _PICK_LFN
  -------         PROC          _PUT_LFN
  X:840BH         SYMBOL        lfn
  X:840EH         SYMBOL        dir
  X:8411H         SYMBOL        ord
  X:8412H         SYMBOL        sum
  -------         DO            
  X:8413H         SYMBOL        i
  X:8415H         SYMBOL        s
  X:8417H         SYMBOL        wc
  -------         ENDDO         
  C:4D29H         LINE#         1948
  C:4D2FH         LINE#         1954
  C:4D2FH         LINE#         1959
  C:4D41H         LINE#         1960
  C:4D49H         LINE#         1961
  C:4D50H         LINE#         1962
  C:4D59H         LINE#         1964
  C:4D68H         LINE#         1965
  C:4D75H         LINE#         1966
  C:4D75H         LINE#         1967
  C:4D9CH         LINE#         1968
  C:4DBAH         LINE#         1969
  C:4DCCH         LINE#         1970
  C:4DDDH         LINE#         1971
  C:4E0AH         LINE#         1972
  -------         ENDPROC       _PUT_LFN
  -------         PROC          _GEN_NUMNAME
  X:840BH         SYMBOL        dst
  X:840EH         SYMBOL        src
  X:8411H         SYMBOL        lfn
  X:8414H         SYMBOL        seq
  -------         DO            
BL51 BANKED LINKER/LOCATER V6.22                                                      04/05/2019  05:01:37  PAGE 54


  X:8416H         SYMBOL        ns
  D:0005H         SYMBOL        c
  X:841EH         SYMBOL        i
  X:8420H         SYMBOL        j
  X:8422H         SYMBOL        wc
  X:8424H         SYMBOL        sr
  -------         ENDDO         
  C:372AH         LINE#         1985
  C:3730H         LINE#         1991
  C:3730H         LINE#         1998
  C:3748H         LINE#         2000
  C:375BH         LINE#         2001
  C:3764H         LINE#         2002
  C:3774H         LINE#         2003
  C:3788H         LINE#         2004
  C:379EH         LINE#         2005
  C:37B9H         LINE#         2006
  C:37C4H         LINE#         2007
  C:37EAH         LINE#         2008
  C:37F2H         LINE#         2009
  C:37F2H         LINE#         2010
  C:37FDH         LINE#         2011
  C:37FDH         LINE#         2014
  C:3806H         LINE#         2015
  C:3806H         LINE#         2016
  C:380FH         LINE#         2017
  C:3818H         LINE#         2018
  C:3827H         LINE#         2019
  C:3830H         LINE#         2020
  C:3835H         LINE#         2021
  C:3846H         LINE#         2024
  C:386FH         LINE#         2025
  C:3876H         LINE#         2026
  C:3890H         LINE#         2027
  C:3896H         LINE#         2028
  C:3896H         LINE#         2029
  C:389EH         LINE#         2030
  C:389EH         LINE#         2031
  C:38CEH         LINE#         2032
  C:38DDH         LINE#         2033
  -------         ENDPROC       _GEN_NUMNAME
  -------         PROC          _SUM_SFN
  X:8415H         SYMBOL        dir
  -------         DO            
  D:0007H         SYMBOL        sum
  X:8418H         SYMBOL        n
  -------         ENDDO         
  C:5F19H         LINE#         2043
  C:5F1FH         LINE#         2046
  C:5F1FH         LINE#         2047
  C:5F21H         LINE#         2048
  C:5F29H         LINE#         2050
  C:5F29H         LINE#         2051
  C:5F3EH         LINE#         2052
  C:5F48H         LINE#         2053
  C:5F48H         LINE#         2054
  -------         ENDPROC       _SUM_SFN
BL51 BANKED LINKER/LOCATER V6.22                                                      04/05/2019  05:01:37  PAGE 55


  -------         PROC          _DIR_READ
  X:8DAFH         SYMBOL        dp
  X:8DB2H         SYMBOL        vol
  -------         DO            
  X:8DB4H         SYMBOL        res
  X:8DB5H         SYMBOL        fs
  X:8DB8H         SYMBOL        attr
  X:8DB9H         SYMBOL        b
  X:8DBAH         SYMBOL        ord
  X:8DBBH         SYMBOL        sum
  -------         ENDDO         
  C:427DH         LINE#         2337
  C:428BH         LINE#         2341
  C:428BH         LINE#         2342
  C:4291H         LINE#         2343
  C:429AH         LINE#         2346
  C:42A2H         LINE#         2349
  C:42AEH         LINE#         2350
  C:42BFH         LINE#         2351
  C:42C4H         LINE#         2352
  C:42D1H         LINE#         2353
  C:42D3H         LINE#         2354
  C:42DCH         LINE#         2355
  C:42DCH         LINE#         2372
  C:42DCH         LINE#         2373
  C:42F6H         LINE#         2375
  C:4323H         LINE#         2376
  C:4329H         LINE#         2377
  C:432CH         LINE#         2378
  C:4334H         LINE#         2379
  C:433BH         LINE#         2380
  C:4348H         LINE#         2381
  C:4352H         LINE#         2382
  C:4358H         LINE#         2383
  C:4358H         LINE#         2385
  C:43B3H         LINE#         2386
  C:43B5H         LINE#         2387
  C:43CBH         LINE#         2388
  C:43D8H         LINE#         2389
  C:43D8H         LINE#         2390
  C:43DAH         LINE#         2391
  C:43DAH         LINE#         2392
  C:43DAH         LINE#         2398
  C:43DAH         LINE#         2399
  C:43E8H         LINE#         2400
  C:43EDH         LINE#         2403
  C:4404H         LINE#         2404
  C:4404H         LINE#         2405
  -------         ENDPROC       _DIR_READ
  -------         PROC          _DIR_FIND
  X:840BH         SYMBOL        dp
  -------         DO            
  X:840EH         SYMBOL        res
  X:840FH         SYMBOL        fs
  X:8412H         SYMBOL        c
  D:0007H         SYMBOL        a
  X:8413H         SYMBOL        ord
BL51 BANKED LINKER/LOCATER V6.22                                                      04/05/2019  05:01:37  PAGE 56


  X:8414H         SYMBOL        sum
  -------         ENDDO         
  C:3DC7H         LINE#         2415
  C:3DCAH         LINE#         2418
  C:3DCAH         LINE#         2420
  C:3DD3H         LINE#         2426
  C:3DE1H         LINE#         2427
  C:3DE6H         LINE#         2450
  C:3DFDH         LINE#         2452
  C:3DFDH         LINE#         2453
  C:3E11H         LINE#         2454
  C:3E16H         LINE#         2455
  C:3E23H         LINE#         2456
  C:3E2EH         LINE#         2458
  C:3E44H         LINE#         2459
  C:3E55H         LINE#         2460
  C:3E5BH         LINE#         2461
  C:3E5EH         LINE#         2462
  C:3E66H         LINE#         2463
  C:3E6FH         LINE#         2464
  C:3E73H         LINE#         2465
  C:3E80H         LINE#         2466
  C:3E8AH         LINE#         2467
  C:3E90H         LINE#         2468
  C:3E90H         LINE#         2470
  C:3EEBH         LINE#         2471
  C:3EEBH         LINE#         2472
  C:3EEDH         LINE#         2473
  C:3F03H         LINE#         2474
  C:3F2BH         LINE#         2475
  C:3F41H         LINE#         2476
  C:3F41H         LINE#         2477
  C:3F41H         LINE#         2482
  C:3F4FH         LINE#         2483
  C:3F54H         LINE#         2485
  C:3F59H         LINE#         2486
  -------         ENDPROC       _DIR_FIND
  C:315BH         SYMBOL        L?1049
  -------         PROC          _DIR_REGISTER
  X:83F1H         SYMBOL        dp
  -------         DO            
  X:83F4H         SYMBOL        res
  X:83F5H         SYMBOL        fs
  X:83F8H         SYMBOL        n
  X:83FAH         SYMBOL        nlen
  X:83FCH         SYMBOL        nent
  X:83FEH         SYMBOL        sn
  X:840AH         SYMBOL        sum
  -------         ENDDO         
  C:2F2CH         LINE#         2496
  C:2F2FH         LINE#         2499
  C:2F2FH         LINE#         2501
  C:2F38H         LINE#         2507
  C:2F45H         LINE#         2508
  C:2F68H         LINE#         2542
  C:2F80H         LINE#         2543
  C:2F8AH         LINE#         2544
BL51 BANKED LINKER/LOCATER V6.22                                                      04/05/2019  05:01:37  PAGE 57


  C:2F92H         LINE#         2545
  C:2FA7H         LINE#         2546
  C:2FD9H         LINE#         2547
  C:2FE4H         LINE#         2548
  C:2FE6H         LINE#         2549
  C:2FEEH         LINE#         2550
  C:2FFDH         LINE#         2551
  C:3007H         LINE#         2552
  C:3013H         LINE#         2553
  C:3013H         LINE#         2556
  C:3046H         LINE#         2557
  C:3051H         LINE#         2558
  C:3060H         LINE#         2559
  C:309DH         LINE#         2560
  C:309FH         LINE#         2561
  C:30AAH         LINE#         2562
  C:30AAH         LINE#         2563
  C:30B3H         LINE#         2564
  C:30B5H         LINE#         2565
  C:30E7H         LINE#         2566
  C:30EDH         LINE#         2567
  C:30FBH         LINE#         2568
  C:3104H         LINE#         2569
  C:3104H         LINE#         2570
  C:3104H         LINE#         2578
  C:310AH         LINE#         2579
  C:3113H         LINE#         2580
  C:3115H         LINE#         2581
  C:3121H         LINE#         2582
  C:313CH         LINE#         2584
  C:314FH         LINE#         2586
  C:3155H         LINE#         2587
  C:3155H         LINE#         2588
  C:3155H         LINE#         2590
  C:315AH         LINE#         2591
  -------         ENDPROC       _DIR_REGISTER
  C:2403H         SYMBOL        L?0868
  -------         PROC          _GET_FILEINFO
  X:8D83H         SYMBOL        dp
  X:8D86H         SYMBOL        fno
  -------         DO            
  X:8D89H         SYMBOL        si
  X:8D8BH         SYMBOL        di
  X:8D8DH         SYMBOL        wc
  X:8D8FH         SYMBOL        hs
  X:8D91H         SYMBOL        fs
  -------         ENDDO         
  C:20F0H         LINE#         2648
  C:20F3H         LINE#         2652
  C:20F3H         LINE#         2656
  C:20FCH         LINE#         2662
  C:2106H         LINE#         2663
  C:2111H         LINE#         2672
  C:2111H         LINE#         2673
  C:2124H         LINE#         2674
  C:2134H         LINE#         2675
  C:214EH         LINE#         2676
BL51 BANKED LINKER/LOCATER V6.22                                                      04/05/2019  05:01:37  PAGE 58


  C:216DH         LINE#         2677
  C:2187H         LINE#         2678
  C:218FH         LINE#         2679
  C:218FH         LINE#         2680
  C:21BCH         LINE#         2681
  C:21C3H         LINE#         2682
  C:21C6H         LINE#         2683
  C:21CDH         LINE#         2684
  C:21D0H         LINE#         2685
  C:21DDH         LINE#         2686
  C:21E4H         LINE#         2687
  C:21E4H         LINE#         2688
  C:21E4H         LINE#         2690
  C:21EDH         LINE#         2691
  C:21FFH         LINE#         2692
  C:2210H         LINE#         2693
  C:221DH         LINE#         2694
  C:222BH         LINE#         2695
  C:225AH         LINE#         2697
  C:228CH         LINE#         2698
  C:22A7H         LINE#         2699
  C:22A7H         LINE#         2700
  C:22B3H         LINE#         2701
  C:22B8H         LINE#         2702
  C:22DDH         LINE#         2703
  C:22E4H         LINE#         2704
  C:22E7H         LINE#         2708
  C:22EAH         LINE#         2709
  C:2301H         LINE#         2711
  C:230FH         LINE#         2712
  C:2313H         LINE#         2713
  C:2321H         LINE#         2714
  C:2324H         LINE#         2715
  C:233FH         LINE#         2716
  C:2346H         LINE#         2717
  C:2387H         LINE#         2718
  C:239AH         LINE#         2719
  C:23A9H         LINE#         2720
  C:23A9H         LINE#         2721
  C:23B0H         LINE#         2722
  C:23C5H         LINE#         2723
  C:23C5H         LINE#         2737
  C:23D5H         LINE#         2738
  C:23E4H         LINE#         2739
  C:23F3H         LINE#         2740
  C:2402H         LINE#         2741
  -------         ENDPROC       _GET_FILEINFO
  -------         PROC          _CREATE_NAME
  X:83FBH         SYMBOL        dp
  X:83FEH         SYMBOL        path
  -------         DO            
  X:8401H         SYMBOL        b
  X:8402H         SYMBOL        cf
  X:8403H         SYMBOL        wc
  X:8405H         SYMBOL        lfn
  X:8408H         SYMBOL        uc
  X:840CH         SYMBOL        i
BL51 BANKED LINKER/LOCATER V6.22                                                      04/05/2019  05:01:37  PAGE 59


  X:840EH         SYMBOL        ni
  X:8410H         SYMBOL        si
  X:8412H         SYMBOL        di
  X:8414H         SYMBOL        p
  -------         ENDDO         
  C:19D0H         LINE#         2830
  C:19D6H         LINE#         2834
  C:19D6H         LINE#         2844
  C:19FBH         LINE#         2845
  C:19FBH         LINE#         2846
  C:1A07H         LINE#         2847
  C:1A15H         LINE#         2848
  C:1A2CH         LINE#         2849
  C:1A35H         LINE#         2850
  C:1A4BH         LINE#         2851
  C:1A64H         LINE#         2852
  C:1A72H         LINE#         2853
  C:1A7BH         LINE#         2854
  C:1A7EH         LINE#         2855
  C:1A95H         LINE#         2856
  C:1AAAH         LINE#         2857
  C:1AC4H         LINE#         2870
  C:1ACCH         LINE#         2871
  C:1ADBH         LINE#         2872
  C:1AECH         LINE#         2873
  C:1AF2H         LINE#         2874
  C:1AF4H         LINE#         2875
  C:1B06H         LINE#         2876
  C:1B0DH         LINE#         2879
  C:1B30H         LINE#         2880
  C:1B42H         LINE#         2881
  C:1B65H         LINE#         2883
  C:1B78H         LINE#         2884
  C:1B89H         LINE#         2885
  C:1B89H         LINE#         2886
  C:1B99H         LINE#         2887
  C:1BA4H         LINE#         2888
  C:1BC2H         LINE#         2889
  C:1BC5H         LINE#         2890
  C:1BC7H         LINE#         2891
  C:1BC7H         LINE#         2893
  C:1BEAH         LINE#         2894
  C:1BF0H         LINE#         2895
  C:1BF3H         LINE#         2896
  C:1BF6H         LINE#         2897
  C:1BF6H         LINE#         2898
  C:1C10H         LINE#         2899
  C:1C1AH         LINE#         2900
  C:1C40H         LINE#         2901
  C:1C43H         LINE#         2902
  C:1C43H         LINE#         2904
  C:1C53H         LINE#         2905
  C:1C5AH         LINE#         2914
  C:1C70H         LINE#         2915
  C:1C8AH         LINE#         2919
  C:1C8AH         LINE#         2921
  C:1C95H         LINE#         2922
BL51 BANKED LINKER/LOCATER V6.22                                                      04/05/2019  05:01:37  PAGE 60


  C:1CA9H         LINE#         2923
  C:1CACH         LINE#         2924
  C:1CB7H         LINE#         2925
  C:1CB7H         LINE#         2926
  C:1CC3H         LINE#         2927
  C:1CC5H         LINE#         2928
  C:1CD8H         LINE#         2929
  C:1CE4H         LINE#         2930
  C:1CE6H         LINE#         2931
  C:1CF9H         LINE#         2932
  C:1D00H         LINE#         2933
  C:1D00H         LINE#         2934
  C:1D13H         LINE#         2935
  C:1D25H         LINE#         2936
  C:1D25H         LINE#         2937
  C:1D25H         LINE#         2938
  C:1D25H         LINE#         2939
  C:1D30H         LINE#         2940
  C:1D33H         LINE#         2942
  C:1D4AH         LINE#         2944
  C:1D5FH         LINE#         2945
  C:1D78H         LINE#         2946
  C:1D80H         LINE#         2947
  C:1D8CH         LINE#         2948
  C:1D98H         LINE#         2949
  C:1D98H         LINE#         2951
  C:1D9FH         LINE#         2953
  C:1DA1H         LINE#         3018
  -------         ENDPROC       _CREATE_NAME
  -------         PROC          _FOLLOW_PATH
  X:83F1H         SYMBOL        dp
  X:83F4H         SYMBOL        path
  -------         DO            
  X:83F7H         SYMBOL        res
  D:0006H         SYMBOL        ns
  X:83F8H         SYMBOL        fs
  -------         ENDDO         
  C:5173H         LINE#         3027
  C:5176H         LINE#         3031
  C:5176H         LINE#         3034
  C:517FH         LINE#         3043
  C:5196H         LINE#         3044
  C:51A0H         LINE#         3045
  C:51A0H         LINE#         3063
  C:51A6H         LINE#         3064
  C:51AEH         LINE#         3065
  C:51B9H         LINE#         3067
  C:51BCH         LINE#         3068
  C:51BCH         LINE#         3069
  C:51D3H         LINE#         3070
  C:51D5H         LINE#         3071
  C:51E0H         LINE#         3072
  C:51E7H         LINE#         3073
  C:51EAH         LINE#         3074
  C:51F2H         LINE#         3075
  C:51F2H         LINE#         3076
  C:51F2H         LINE#         3080
BL51 BANKED LINKER/LOCATER V6.22                                                      04/05/2019  05:01:37  PAGE 61


  C:51F6H         LINE#         3081
  C:51F6H         LINE#         3082
  C:51F6H         LINE#         3083
  C:51F8H         LINE#         3084
  C:51F8H         LINE#         3085
  C:51FCH         LINE#         3087
  C:5208H         LINE#         3088
  C:5210H         LINE#         3089
  C:5210H         LINE#         3098
  C:5210H         LINE#         3099
  C:5237H         LINE#         3100
  C:5237H         LINE#         3101
  C:523AH         LINE#         3102
  C:523AH         LINE#         3104
  C:523FH         LINE#         3105
  -------         ENDPROC       _FOLLOW_PATH
  -------         PROC          _GET_LDNUMBER
  X:842BH         SYMBOL        path
  -------         DO            
  X:842EH         SYMBOL        tp
  X:8431H         SYMBOL        tt
  D:0007H         SYMBOL        tc
  X:8434H         SYMBOL        i
  D:0004H         SYMBOL        vol
  -------         ENDDO         
  C:50A5H         LINE#         3114
  C:50ABH         LINE#         3117
  C:50ABH         LINE#         3120
  C:50AFH         LINE#         3126
  C:50BEH         LINE#         3127
  C:50CBH         LINE#         3128
  C:50E4H         LINE#         3130
  C:50ECH         LINE#         3131
  C:50F3H         LINE#         3132
  C:512FH         LINE#         3133
  C:5142H         LINE#         3134
  C:5142H         LINE#         3148
  C:5151H         LINE#         3149
  C:5155H         LINE#         3150
  C:516AH         LINE#         3151
  C:516AH         LINE#         3152
  C:516FH         LINE#         3153
  C:516FH         LINE#         3176
  C:5170H         LINE#         3178
  C:5172H         LINE#         3179
  -------         ENDPROC       _GET_LDNUMBER
  -------         PROC          _CHECK_FS
  X:842BH         SYMBOL        fs
  D:0004H         SYMBOL        sect
  C:55FBH         LINE#         3188
  C:5601H         LINE#         3192
  C:5601H         LINE#         3193
  C:5615H         LINE#         3194
  C:561EH         LINE#         3196
  C:5634H         LINE#         3201
  C:564FH         LINE#         3202
  C:5678H         LINE#         3203
BL51 BANKED LINKER/LOCATER V6.22                                                      04/05/2019  05:01:37  PAGE 62


  C:56A7H         LINE#         3204
  C:56A7H         LINE#         3205
  C:56A9H         LINE#         3206
  -------         ENDPROC       _CHECK_FS
  C:1543H         SYMBOL        L?0928
  C:154BH         SYMBOL        L?0988
  C:1553H         SYMBOL        L?1039
  C:155BH         SYMBOL        L?1053
  C:1564H         SYMBOL        L?1102
  -------         PROC          _FIND_VOLUME
  X:83F1H         SYMBOL        path
  X:83F4H         SYMBOL        rfs
  X:83F7H         SYMBOL        mode
  -------         DO            
  X:83F8H         SYMBOL        fmt
  D:0001H         SYMBOL        pt
  X:83F9H         SYMBOL        vol
  X:83FBH         SYMBOL        stat
  X:83FCH         SYMBOL        bsect
  X:8400H         SYMBOL        fasize
  X:8404H         SYMBOL        tsect
  X:8408H         SYMBOL        sysect
  X:840CH         SYMBOL        nclst
  X:8410H         SYMBOL        szbfat
  X:8414H         SYMBOL        br
  X:8424H         SYMBOL        nrsv
  X:8426H         SYMBOL        fs
  X:8429H         SYMBOL        i
  -------         ENDDO         
  C:0FABH         LINE#         3215
  C:0FB1H         LINE#         3220
  C:0FB1H         LINE#         3231
  C:0FC3H         LINE#         3232
  C:0FD4H         LINE#         3233
  C:0FDFH         LINE#         3236
  C:0FF5H         LINE#         3237
  C:0FFDH         LINE#         3241
  C:100FH         LINE#         3243
  C:1016H         LINE#         3244
  C:101EH         LINE#         3245
  C:1029H         LINE#         3246
  C:102CH         LINE#         3247
  C:1039H         LINE#         3248
  C:103CH         LINE#         3249
  C:103CH         LINE#         3250
  C:103FH         LINE#         3251
  C:103FH         LINE#         3252
  C:103FH         LINE#         3257
  C:1046H         LINE#         3258
  C:1056H         LINE#         3259
  C:1061H         LINE#         3260
  C:1064H         LINE#         3261
  C:1067H         LINE#         3262
  C:1067H         LINE#         3263
  C:1074H         LINE#         3264
  C:1077H         LINE#         3265
  C:1077H         LINE#         3272
BL51 BANKED LINKER/LOCATER V6.22                                                      04/05/2019  05:01:37  PAGE 63


  C:1081H         LINE#         3273
  C:108FH         LINE#         3274
  C:109AH         LINE#         3275
  C:10AEH         LINE#         3276
  C:10CDH         LINE#         3277
  C:1102H         LINE#         3278
  C:110BH         LINE#         3279
  C:1112H         LINE#         3280
  C:111AH         LINE#         3281
  C:111AH         LINE#         3282
  C:1130H         LINE#         3283
  C:114BH         LINE#         3284
  C:1161H         LINE#         3285
  C:1161H         LINE#         3286
  C:116CH         LINE#         3287
  C:1175H         LINE#         3354
  C:1175H         LINE#         3355
  C:1189H         LINE#         3357
  C:1195H         LINE#         3358
  C:11AFH         LINE#         3359
  C:11BEH         LINE#         3361
  C:11CAH         LINE#         3362
  C:11DDH         LINE#         3363
  C:1202H         LINE#         3365
  C:1215H         LINE#         3366
  C:1235H         LINE#         3368
  C:1247H         LINE#         3369
  C:1251H         LINE#         3371
  C:125DH         LINE#         3372
  C:127BH         LINE#         3374
  C:1287H         LINE#         3375
  C:128FH         LINE#         3378
  C:12D0H         LINE#         3379
  C:12E1H         LINE#         3380
  C:130FH         LINE#         3381
  C:131DH         LINE#         3382
  C:1322H         LINE#         3383
  C:1335H         LINE#         3384
  C:1342H         LINE#         3385
  C:134FH         LINE#         3386
  C:1358H         LINE#         3389
  C:136DH         LINE#         3390
  C:1376H         LINE#         3391
  C:1385H         LINE#         3392
  C:1391H         LINE#         3393
  C:1399H         LINE#         3394
  C:13A6H         LINE#         3395
  C:13B3H         LINE#         3396
  C:13C9H         LINE#         3397
  C:13D1H         LINE#         3398
  C:13D4H         LINE#         3399
  C:13E1H         LINE#         3400
  C:13F0H         LINE#         3401
  C:143DH         LINE#         3403
  C:143DH         LINE#         3404
  C:1461H         LINE#         3408
  C:1478H         LINE#         3409
BL51 BANKED LINKER/LOCATER V6.22                                                      04/05/2019  05:01:37  PAGE 64


  C:147DH         LINE#         3411
  C:14AAH         LINE#         3414
  C:14AAH         LINE#         3415
  C:14B0H         LINE#         3416
  C:14EEH         LINE#         3419
  C:14EEH         LINE#         3421
  C:14FDH         LINE#         3424
  C:150EH         LINE#         3426
  C:150EH         LINE#         3427
  C:150EH         LINE#         3430
  C:150EH         LINE#         3432
  C:151AH         LINE#         3433
  C:152BH         LINE#         3435
  C:1540H         LINE#         3446
  C:1542H         LINE#         3447
  -------         ENDPROC       _FIND_VOLUME
  -------         PROC          _VALIDATE
  X:83C3H         SYMBOL        obj
  X:83C6H         SYMBOL        rfs
  -------         DO            
  X:83C9H         SYMBOL        res
  -------         ENDDO         
  C:594DH         LINE#         3456
  C:5953H         LINE#         3460
  C:5953H         LINE#         3461
  C:5959H         LINE#         3464
  C:5985H         LINE#         3476
  C:5992H         LINE#         3477
  C:5997H         LINE#         3478
  C:5997H         LINE#         3480
  C:5997H         LINE#         3481
  C:59B4H         LINE#         3482
  C:59B9H         LINE#         3483
  -------         ENDPROC       _VALIDATE
  -------         PROC          _F_MOUNT
  X:83A0H         SYMBOL        fs
  X:83A3H         SYMBOL        path
  X:83A6H         SYMBOL        opt
  -------         DO            
  D:0001H         SYMBOL        cfs
  D:0006H         SYMBOL        vol
  D:0007H         SYMBOL        res
  X:83A7H         SYMBOL        rp
  -------         ENDDO         
  C:59BAH         LINE#         3500
  C:59C0H         LINE#         3505
  C:59C0H         LINE#         3509
  C:59CCH         LINE#         3513
  C:59D5H         LINE#         3514
  C:59E0H         LINE#         3515
  C:59E3H         LINE#         3517
  C:59E8H         LINE#         3524
  C:59ECH         LINE#         3525
  C:59ECH         LINE#         3527
  C:59F4H         LINE#         3528
  C:59FEH         LINE#         3532
  C:59FEH         LINE#         3533
BL51 BANKED LINKER/LOCATER V6.22                                                      04/05/2019  05:01:37  PAGE 65


  C:5A0AH         LINE#         3535
  C:5A12H         LINE#         3537
  C:5A25H         LINE#         3538
  C:5A25H         LINE#         3539
  -------         ENDPROC       _F_MOUNT
  -------         PROC          _F_OPEN
  X:83A0H         SYMBOL        fp
  X:83A3H         SYMBOL        path
  X:83A6H         SYMBOL        mode
  -------         DO            
  X:83A7H         SYMBOL        res
  X:83A8H         SYMBOL        dj
  X:83D6H         SYMBOL        fs
  X:83D9H         SYMBOL        dw
  X:83DDH         SYMBOL        cl
  X:83E1H         SYMBOL        bcs
  X:83E5H         SYMBOL        clst
  X:83E9H         SYMBOL        sc
  X:83EDH         SYMBOL        ofs
  -------         ENDDO         
  C:2411H         LINE#         3548
  C:2414H         LINE#         3553
  C:2414H         LINE#         3564
  C:241CH         LINE#         3567
  C:2424H         LINE#         3568
  C:243CH         LINE#         3569
  C:2441H         LINE#         3570
  C:244AH         LINE#         3572
  C:245BH         LINE#         3574
  C:245DH         LINE#         3575
  C:2464H         LINE#         3576
  C:246AH         LINE#         3577
  C:246AH         LINE#         3583
  C:246AH         LINE#         3585
  C:2475H         LINE#         3586
  C:247AH         LINE#         3587
  C:247DH         LINE#         3591
  C:2488H         LINE#         3593
  C:2488H         LINE#         3594
  C:248FH         LINE#         3595
  C:2491H         LINE#         3596
  C:2491H         LINE#         3597
  C:2499H         LINE#         3598
  C:249FH         LINE#         3599
  C:24A1H         LINE#         3600
  C:24ACH         LINE#         3601
  C:24ACH         LINE#         3602
  C:24ACH         LINE#         3603
  C:24BFH         LINE#         3622
  C:24BFH         LINE#         3624
  C:24CBH         LINE#         3625
  C:24E0H         LINE#         3626
  C:24EBH         LINE#         3627
  C:2504H         LINE#         3628
  C:250DH         LINE#         3629
  C:2513H         LINE#         3630
  C:2520H         LINE#         3631
BL51 BANKED LINKER/LOCATER V6.22                                                      04/05/2019  05:01:37  PAGE 66


  C:252CH         LINE#         3632
  C:2547H         LINE#         3633
  C:2549H         LINE#         3634
  C:255AH         LINE#         3635
  C:2566H         LINE#         3636
  C:2566H         LINE#         3637
  C:2566H         LINE#         3638
  C:2566H         LINE#         3639
  C:2566H         LINE#         3640
  C:2568H         LINE#         3641
  C:2568H         LINE#         3642
  C:256EH         LINE#         3643
  C:2576H         LINE#         3644
  C:257CH         LINE#         3645
  C:257EH         LINE#         3646
  C:2589H         LINE#         3647
  C:258DH         LINE#         3648
  C:258DH         LINE#         3649
  C:258DH         LINE#         3650
  C:258DH         LINE#         3651
  C:258DH         LINE#         3652
  C:2593H         LINE#         3653
  C:259EH         LINE#         3654
  C:25ADH         LINE#         3655
  C:25BFH         LINE#         3660
  C:25BFH         LINE#         3673
  C:25C8H         LINE#         3682
  C:25C8H         LINE#         3683
  C:25D7H         LINE#         3684
  C:25E6H         LINE#         3685
  C:25E6H         LINE#         3689
  C:25F5H         LINE#         3690
  C:260CH         LINE#         3691
  C:2617H         LINE#         3692
  C:261BH         LINE#         3693
  C:2625H         LINE#         3694
  C:262FH         LINE#         3699
  C:2644H         LINE#         3700
  C:2653H         LINE#         3701
  C:2662H         LINE#         3702
  C:2671H         LINE#         3703
  C:268AH         LINE#         3704
  C:2696H         LINE#         3705
  C:26A7H         LINE#         3706
  C:26B7H         LINE#         3707
  C:26C8H         LINE#         3708
  C:26D1H         LINE#         3709
  C:26E2H         LINE#         3710
  C:26F6H         LINE#         3711
  C:26FCH         LINE#         3712
  C:26FEH         LINE#         3713
  C:2713H         LINE#         3717
  C:2713H         LINE#         3718
  C:2713H         LINE#         3719
  C:2713H         LINE#         3721
  C:2713H         LINE#         3724
  C:2713H         LINE#         3726
BL51 BANKED LINKER/LOCATER V6.22                                                      04/05/2019  05:01:37  PAGE 67


  C:2728H         LINE#         3728
  C:272DH         LINE#         3729
  -------         ENDPROC       _F_OPEN
  -------         PROC          _F_READ
  X:83A0H         SYMBOL        fp
  X:83A3H         SYMBOL        buff
  X:83A6H         SYMBOL        btr
  X:83A8H         SYMBOL        br
  -------         DO            
  D:0007H         SYMBOL        res
  X:83ABH         SYMBOL        fs
  X:83AEH         SYMBOL        clst
  X:83B2H         SYMBOL        sect
  X:83B6H         SYMBOL        remain
  X:83BAH         SYMBOL        rcnt
  X:83BCH         SYMBOL        cc
  X:83BEH         SYMBOL        csect
  X:83C0H         SYMBOL        rbuff
  -------         ENDDO         
  C:29F3H         LINE#         3738
  C:29F9H         LINE#         3744
  C:29F9H         LINE#         3750
  C:2A05H         LINE#         3753
  C:2A0BH         LINE#         3754
  C:2A18H         LINE#         3755
  C:2A25H         LINE#         3756
  C:2A2EH         LINE#         3757
  C:2A53H         LINE#         3758
  C:2A6FH         LINE#         3761
  C:2A7CH         LINE#         3762
  C:2A88H         LINE#         3763
  C:2AADH         LINE#         3764
  C:2AB2H         LINE#         3765
  C:2AC0H         LINE#         3766
  C:2AC6H         LINE#         3767
  C:2AC8H         LINE#         3773
  C:2AC8H         LINE#         3774
  C:2ADAH         LINE#         3775
  C:2ADAH         LINE#         3776
  C:2ADAH         LINE#         3777
  C:2AE7H         LINE#         3778
  C:2AF5H         LINE#         3779
  C:2AFEH         LINE#         3780
  C:2AFEH         LINE#         3781
  C:2B10H         LINE#         3782
  C:2B24H         LINE#         3783
  C:2B39H         LINE#         3784
  C:2B40H         LINE#         3785
  C:2B48H         LINE#         3786
  C:2B60H         LINE#         3787
  C:2B6FH         LINE#         3788
  C:2B6FH         LINE#         3789
  C:2B9DH         LINE#         3792
  C:2BBDH         LINE#         3793
  C:2BF0H         LINE#         3794
  C:2BF0H         LINE#         3801
  C:2BFDH         LINE#         3802
BL51 BANKED LINKER/LOCATER V6.22                                                      04/05/2019  05:01:37  PAGE 68


  C:2C00H         LINE#         3803
  C:2C00H         LINE#         3815
  C:2C09H         LINE#         3816
  C:2C09H         LINE#         3817
  C:2C16H         LINE#         3818
  C:2C29H         LINE#         3820
  C:2C45H         LINE#         3821
  C:2C63H         LINE#         3825
  C:2C63H         LINE#         3761
  C:2CA4H         LINE#         3827
  C:2CA6H         LINE#         3828
  -------         ENDPROC       _F_READ
  -------         PROC          _F_WRITE
  X:8D64H         SYMBOL        fp
  X:8D67H         SYMBOL        buff
  X:8D6AH         SYMBOL        btw
  X:8D6CH         SYMBOL        bw
  -------         DO            
  D:0007H         SYMBOL        res
  X:8D6FH         SYMBOL        fs
  X:8D72H         SYMBOL        clst
  X:8D76H         SYMBOL        sect
  X:8D7AH         SYMBOL        wcnt
  X:8D7CH         SYMBOL        cc
  X:8D7EH         SYMBOL        csect
  X:8D80H         SYMBOL        wbuff
  -------         ENDDO         
  C:1DA2H         LINE#         3838
  C:1DA8H         LINE#         3844
  C:1DA8H         LINE#         3849
  C:1DB4H         LINE#         3852
  C:1DBAH         LINE#         3853
  C:1DC7H         LINE#         3854
  C:1DD4H         LINE#         3855
  C:1DDDH         LINE#         3858
  C:1DF5H         LINE#         3859
  C:1E0AH         LINE#         3860
  C:1E0AH         LINE#         3863
  C:1E17H         LINE#         3864
  C:1E26H         LINE#         3865
  C:1E43H         LINE#         3866
  C:1E48H         LINE#         3867
  C:1E53H         LINE#         3868
  C:1E5CH         LINE#         3869
  C:1E67H         LINE#         3870
  C:1E6DH         LINE#         3871
  C:1E6DH         LINE#         3872
  C:1E6FH         LINE#         3878
  C:1E6FH         LINE#         3879
  C:1E81H         LINE#         3880
  C:1E81H         LINE#         3881
  C:1E81H         LINE#         3882
  C:1E91H         LINE#         3883
  C:1E9FH         LINE#         3884
  C:1EADH         LINE#         3885
  C:1EB3H         LINE#         3886
  C:1EC4H         LINE#         3887
BL51 BANKED LINKER/LOCATER V6.22                                                      04/05/2019  05:01:37  PAGE 69


  C:1EC4H         LINE#         3889
  C:1EDEH         LINE#         3896
  C:1EEDH         LINE#         3897
  C:1F01H         LINE#         3898
  C:1F16H         LINE#         3899
  C:1F1DH         LINE#         3900
  C:1F25H         LINE#         3901
  C:1F40H         LINE#         3902
  C:1F53H         LINE#         3903
  C:1F53H         LINE#         3904
  C:1F7EH         LINE#         3907
  C:1F99H         LINE#         3908
  C:1FCFH         LINE#         3909
  C:1FD9H         LINE#         3910
  C:1FD9H         LINE#         3918
  C:1FE6H         LINE#         3919
  C:1FE9H         LINE#         3920
  C:1FE9H         LINE#         3922
  C:1FF5H         LINE#         3923
  C:2000H         LINE#         3924
  C:200CH         LINE#         3925
  C:200CH         LINE#         3933
  C:2015H         LINE#         3934
  C:2015H         LINE#         3935
  C:2022H         LINE#         3936
  C:2035H         LINE#         3938
  C:2048H         LINE#         3939
  C:2075H         LINE#         3940
  C:207BH         LINE#         3945
  C:207BH         LINE#         3863
  C:20E2H         LINE#         3947
  C:20EDH         LINE#         3949
  C:20EFH         LINE#         3950
  -------         ENDPROC       _F_WRITE
  C:4D1FH         SYMBOL        L?1040
  -------         PROC          _F_SYNC
  X:83A6H         SYMBOL        fp
  -------         DO            
  D:0007H         SYMBOL        res
  X:83A9H         SYMBOL        fs
  X:83ACH         SYMBOL        tm
  X:83B0H         SYMBOL        dir
  -------         ENDDO         
  C:4C2DH         LINE#         3959
  C:4C33H         LINE#         3962
  C:4C33H         LINE#         3969
  C:4C4BH         LINE#         3970
  C:4C51H         LINE#         3971
  C:4C5DH         LINE#         3979
  C:4C67H         LINE#         4011
  C:4C67H         LINE#         4012
  C:4C79H         LINE#         4013
  C:4C7FH         LINE#         4014
  C:4C8EH         LINE#         4015
  C:4C9FH         LINE#         4016
  C:4CCFH         LINE#         4017
  C:4CEAH         LINE#         4018
BL51 BANKED LINKER/LOCATER V6.22                                                      04/05/2019  05:01:37  PAGE 70


  C:4CFAH         LINE#         4019
  C:4D0AH         LINE#         4020
  C:4D10H         LINE#         4021
  C:4D13H         LINE#         4022
  C:4D1EH         LINE#         4023
  C:4D1EH         LINE#         4024
  C:4D1EH         LINE#         4025
  C:4D1EH         LINE#         4026
  C:4D1EH         LINE#         4028
  C:4D1EH         LINE#         4029
  -------         ENDPROC       _F_SYNC
  -------         PROC          _F_CLOSE
  X:83A0H         SYMBOL        fp
  -------         DO            
  D:0007H         SYMBOL        res
  X:83A3H         SYMBOL        fs
  -------         ENDDO         
  C:5E1DH         LINE#         4040
  C:5E23H         LINE#         4043
  C:5E23H         LINE#         4048
  C:5E26H         LINE#         4049
  C:5E29H         LINE#         4051
  C:5E29H         LINE#         4052
  C:5E3BH         LINE#         4053
  C:5E3EH         LINE#         4058
  C:5E50H         LINE#         4063
  C:5E50H         LINE#         4064
  C:5E50H         LINE#         4065
  C:5E50H         LINE#         4066
  -------         ENDPROC       _F_CLOSE
  -------         PROC          _F_LSEEK
  X:83A0H         SYMBOL        fp
  X:83A3H         SYMBOL        ofs
  -------         DO            
  X:83A7H         SYMBOL        res
  X:83A8H         SYMBOL        fs
  X:83ABH         SYMBOL        clst
  X:83AFH         SYMBOL        bcs
  X:83B3H         SYMBOL        nsect
  X:83B7H         SYMBOL        ifptr
  -------         ENDDO         
  C:272EH         LINE#         4255
  C:2737H         LINE#         4259
  C:2737H         LINE#         4268
  C:2754H         LINE#         4269
  C:2760H         LINE#         4275
  C:2768H         LINE#         4330
  C:2768H         LINE#         4334
  C:277FH         LINE#         4335
  C:2785H         LINE#         4336
  C:2785H         LINE#         4337
  C:2791H         LINE#         4338
  C:27A5H         LINE#         4339
  C:27B5H         LINE#         4340
  C:27C1H         LINE#         4341
  C:27FDH         LINE#         4342
  C:27FDH         LINE#         4343
BL51 BANKED LINKER/LOCATER V6.22                                                      04/05/2019  05:01:37  PAGE 71


  C:2818H         LINE#         4344
  C:2824H         LINE#         4345
  C:2830H         LINE#         4346
  C:2833H         LINE#         4347
  C:283CH         LINE#         4349
  C:2847H         LINE#         4350
  C:2853H         LINE#         4351
  C:2861H         LINE#         4352
  C:286FH         LINE#         4353
  C:2878H         LINE#         4354
  C:2878H         LINE#         4356
  C:287EH         LINE#         4357
  C:287EH         LINE#         4358
  C:288EH         LINE#         4359
  C:289FH         LINE#         4360
  C:28C9H         LINE#         4362
  C:28D2H         LINE#         4363
  C:28D2H         LINE#         4364
  C:28D2H         LINE#         4365
  C:28D2H         LINE#         4366
  C:28D2H         LINE#         4367
  C:28DBH         LINE#         4368
  C:28E6H         LINE#         4369
  C:28F2H         LINE#         4370
  C:28F2H         LINE#         4371
  C:28F2H         LINE#         4373
  C:28F2H         LINE#         4374
  C:2901H         LINE#         4375
  C:2901H         LINE#         4376
  C:2913H         LINE#         4377
  C:292EH         LINE#         4378
  C:2934H         LINE#         4379
  C:2937H         LINE#         4380
  C:2955H         LINE#         4381
  C:2960H         LINE#         4382
  C:296FH         LINE#         4383
  C:2983H         LINE#         4384
  C:29ABH         LINE#         4385
  C:29ABH         LINE#         4386
  C:29ABH         LINE#         4387
  C:29ABH         LINE#         4388
  C:29B7H         LINE#         4389
  C:29C3H         LINE#         4390
  C:29CBH         LINE#         4391
  C:29CBH         LINE#         4392
  C:29E4H         LINE#         4402
  C:29EDH         LINE#         4403
  C:29EDH         LINE#         4404
  C:29EDH         LINE#         4406
  C:29F2H         LINE#         4407
  -------         ENDPROC       _F_LSEEK
  -------         PROC          _F_OPENDIR
  X:8DBCH         SYMBOL        dp
  X:8DBFH         SYMBOL        path
  -------         DO            
  X:8DC2H         SYMBOL        res
  X:8DC3H         SYMBOL        fs
BL51 BANKED LINKER/LOCATER V6.22                                                      04/05/2019  05:01:37  PAGE 72


  -------         ENDDO         
  C:4FD5H         LINE#         4416
  C:4FD8H         LINE#         4420
  C:4FD8H         LINE#         4426
  C:4FE0H         LINE#         4429
  C:4FFAH         LINE#         4430
  C:4FFFH         LINE#         4431
  C:500FH         LINE#         4433
  C:5020H         LINE#         4434
  C:5022H         LINE#         4435
  C:502BH         LINE#         4436
  C:5034H         LINE#         4445
  C:5034H         LINE#         4446
  C:5052H         LINE#         4447
  C:5052H         LINE#         4448
  C:5054H         LINE#         4449
  C:505AH         LINE#         4450
  C:505AH         LINE#         4451
  C:505AH         LINE#         4452
  C:5060H         LINE#         4453
  C:5075H         LINE#         4454
  C:5080H         LINE#         4465
  C:5080H         LINE#         4466
  C:5080H         LINE#         4468
  C:508AH         LINE#         4469
  C:508AH         LINE#         4470
  C:509FH         LINE#         4472
  C:50A4H         LINE#         4473
  -------         ENDPROC       _F_OPENDIR
  -------         PROC          _F_CLOSEDIR
  X:8DDFH         SYMBOL        dp
  -------         DO            
  D:0007H         SYMBOL        res
  X:8DE2H         SYMBOL        fs
  -------         ENDDO         
  C:5E51H         LINE#         4482
  C:5E57H         LINE#         4485
  C:5E57H         LINE#         4490
  C:5E6FH         LINE#         4491
  C:5E72H         LINE#         4496
  C:5E84H         LINE#         4501
  C:5E84H         LINE#         4502
  C:5E84H         LINE#         4503
  -------         ENDPROC       _F_CLOSEDIR
  -------         PROC          _F_READDIR
  X:8DC6H         SYMBOL        dp
  X:8DC9H         SYMBOL        fno
  -------         DO            
  D:0007H         SYMBOL        res
  X:8DCCH         SYMBOL        fs
  -------         ENDDO         
  C:5A26H         LINE#         4512
  C:5A2CH         LINE#         4516
  C:5A2CH         LINE#         4522
  C:5A44H         LINE#         4523
  C:5A47H         LINE#         4524
  C:5A4FH         LINE#         4525
BL51 BANKED LINKER/LOCATER V6.22                                                      04/05/2019  05:01:37  PAGE 73


  C:5A58H         LINE#         4526
  C:5A5AH         LINE#         4528
  C:5A60H         LINE#         4529
  C:5A66H         LINE#         4530
  C:5A69H         LINE#         4531
  C:5A7EH         LINE#         4532
  C:5A84H         LINE#         4533
  C:5A8AH         LINE#         4534
  C:5A8AH         LINE#         4536
  C:5A8AH         LINE#         4537
  C:5A8AH         LINE#         4538
  C:5A8AH         LINE#         4539
  -------         ENDPROC       _F_READDIR
  -------         PROC          _F_GETLABEL
  X:8D23H         SYMBOL        path
  X:8D26H         SYMBOL        label
  X:8D29H         SYMBOL        vsn
  -------         DO            
  X:8D2CH         SYMBOL        res
  X:8D2DH         SYMBOL        dj
  X:8D5BH         SYMBOL        fs
  X:8D5EH         SYMBOL        si
  X:8D60H         SYMBOL        di
  X:8D62H         SYMBOL        wc
  -------         ENDDO         
  C:3C2EH         LINE#         5156
  C:3C34H         LINE#         5161
  C:3C34H         LINE#         5169
  C:3C4EH         LINE#         5172
  C:3C5EH         LINE#         5173
  C:3C71H         LINE#         5174
  C:3C82H         LINE#         5175
  C:3C87H         LINE#         5176
  C:3C98H         LINE#         5177
  C:3C9DH         LINE#         5196
  C:3C9DH         LINE#         5197
  C:3CA9H         LINE#         5198
  C:3CB1H         LINE#         5199
  C:3CBEH         LINE#         5201
  C:3CE4H         LINE#         5202
  C:3CF0H         LINE#         5203
  C:3D16H         LINE#         5204
  C:3D26H         LINE#         5205
  C:3D2CH         LINE#         5209
  C:3D2FH         LINE#         5210
  C:3D2FH         LINE#         5211
  C:3D3FH         LINE#         5212
  C:3D43H         LINE#         5213
  C:3D50H         LINE#         5214
  C:3D50H         LINE#         5215
  C:3D50H         LINE#         5216
  C:3D50H         LINE#         5217
  C:3D57H         LINE#         5218
  C:3D61H         LINE#         5219
  C:3D65H         LINE#         5220
  C:3D65H         LINE#         5221
  C:3D65H         LINE#         5224
BL51 BANKED LINKER/LOCATER V6.22                                                      04/05/2019  05:01:37  PAGE 74


  C:3D73H         LINE#         5225
  C:3D87H         LINE#         5226
  C:3D89H         LINE#         5227
  C:3D96H         LINE#         5228
  C:3D96H         LINE#         5229
  C:3D9EH         LINE#         5231
  C:3D9EH         LINE#         5232
  C:3DA6H         LINE#         5234
  C:3DA6H         LINE#         5235
  C:3DACH         LINE#         5236
  C:3DACH         LINE#         5237
  C:3DC1H         LINE#         5238
  C:3DC1H         LINE#         5239
  C:3DC1H         LINE#         5241
  C:3DC6H         LINE#         5242
  -------         ENDPROC       _F_GETLABEL
  -------         PROC          _F_SETLABEL
  X:8CD0H         SYMBOL        label
  -------         DO            
  X:8CD3H         SYMBOL        res
  X:8CD4H         SYMBOL        dj
  X:8D02H         SYMBOL        fs
  X:8D05H         SYMBOL        dirvn
  X:8D1BH         SYMBOL        di
  X:8D1DH         SYMBOL        wc
  X:882CH         SYMBOL        badchr
  X:8D1FH         SYMBOL        dc
  -------         ENDDO         
  C:355EH         LINE#         5251
  C:3564H         LINE#         5254
  C:3564H         LINE#         5267
  C:357FH         LINE#         5268
  C:3584H         LINE#         5290
  C:3584H         LINE#         5291
  C:3597H         LINE#         5292
  C:359EH         LINE#         5293
  C:35ADH         LINE#         5295
  C:35BCH         LINE#         5296
  C:35E6H         LINE#         5307
  C:3623H         LINE#         5308
  C:3626H         LINE#         5309
  C:3626H         LINE#         5310
  C:363AH         LINE#         5311
  C:3649H         LINE#         5312
  C:364CH         LINE#         5313
  C:3656H         LINE#         5314
  C:3674H         LINE#         5315
  C:3674H         LINE#         5318
  C:368AH         LINE#         5319
  C:3698H         LINE#         5320
  C:369DH         LINE#         5321
  C:36ABH         LINE#         5322
  C:36ADH         LINE#         5323
  C:36ADH         LINE#         5324
  C:36ADH         LINE#         5325
  C:36ADH         LINE#         5326
  C:36ADH         LINE#         5327
BL51 BANKED LINKER/LOCATER V6.22                                                      04/05/2019  05:01:37  PAGE 75


  C:36B7H         LINE#         5328
  C:36C0H         LINE#         5329
  C:36C2H         LINE#         5330
  C:36CAH         LINE#         5331
  C:36CAH         LINE#         5332
  C:36CAH         LINE#         5333
  C:36CAH         LINE#         5334
  C:36CAH         LINE#         5335
  C:36CCH         LINE#         5336
  C:36D4H         LINE#         5337
  C:36D5H         LINE#         5338
  C:36DFH         LINE#         5339
  C:36EEH         LINE#         5340
  C:36F0H         LINE#         5341
  C:36F9H         LINE#         5342
  C:36F9H         LINE#         5343
  C:36F9H         LINE#         5344
  C:36F9H         LINE#         5345
  C:36F9H         LINE#         5346
  C:36F9H         LINE#         5347
  C:3704H         LINE#         5348
  C:3716H         LINE#         5349
  C:3716H         LINE#         5350
  C:371CH         LINE#         5351
  C:3724H         LINE#         5352
  C:3724H         LINE#         5353
  C:3724H         LINE#         5354
  C:3724H         LINE#         5355
  C:3724H         LINE#         5356
  C:3724H         LINE#         5358
  C:3729H         LINE#         5359
  -------         ENDPROC       _F_SETLABEL
  -------         ENDMOD        FF

  -------         MODULE        FFSYSTEM
  C:0000H         SYMBOL        _ICE_DUMMY_
  -------         ENDMOD        FFSYSTEM

  -------         MODULE        CFDISKIO
  C:0000H         SYMBOL        _ICE_DUMMY_
  C:627BH         PUBLIC        _CF_disk_status
  C:62BAH         PUBLIC        _CF_disk_initialize
  C:6023H         PUBLIC        _CF_disk_read
  C:6049H         PUBLIC        _CF_disk_write
  C:5D34H         PUBLIC        _CF_disk_ioctl
  D:0090H         PUBLIC        P1
  D:00B0H         PUBLIC        P3
  D:00D0H         PUBLIC        PSW
  D:0088H         PUBLIC        TCON
  D:00A8H         PUBLIC        IE
  D:00B8H         PUBLIC        IP
  D:0098H         PUBLIC        SCON
  D:00C8H         PUBLIC        T2CON
  -------         PROC          _CF_DISK_STATUS
  X:842DH         SYMBOL        device
  C:627BH         LINE#         4
  C:6280H         LINE#         5
BL51 BANKED LINKER/LOCATER V6.22                                                      04/05/2019  05:01:37  PAGE 76


  C:6280H         LINE#         6
  C:6283H         LINE#         7
  -------         ENDPROC       _CF_DISK_STATUS
  -------         PROC          _CF_DISK_INITIALIZE
  D:0007H         SYMBOL        device
  C:62BAH         LINE#         9
  C:62BAH         LINE#         10
  C:62BAH         LINE#         11
  C:62BDH         LINE#         13
  C:62C0H         LINE#         14
  -------         ENDPROC       _CF_DISK_INITIALIZE
  -------         PROC          _CF_DISK_READ
  D:0007H         SYMBOL        device
  D:0001H         SYMBOL        buff
  X:8467H         SYMBOL        sector
  X:846BH         SYMBOL        count
  C:6023H         LINE#         16
  C:6023H         LINE#         17
  C:6023H         LINE#         18
  C:6045H         LINE#         20
  C:6048H         LINE#         21
  -------         ENDPROC       _CF_DISK_READ
  -------         PROC          _CF_DISK_WRITE
  D:0007H         SYMBOL        device
  D:0001H         SYMBOL        buff
  X:846BH         SYMBOL        sector
  X:846FH         SYMBOL        count
  C:6049H         LINE#         23
  C:6049H         LINE#         24
  C:6049H         LINE#         25
  C:606BH         LINE#         27
  C:606EH         LINE#         28
  -------         ENDPROC       _CF_DISK_WRITE
  -------         PROC          _CF_DISK_IOCTL
  X:8DFAH         SYMBOL        device
  D:0005H         SYMBOL        cmd
  D:0001H         SYMBOL        buff
  -------         DO            
  D:0004H         SYMBOL        res
  -------         ENDDO         
  C:5D34H         LINE#         30
  C:5D39H         LINE#         31
  C:5D39H         LINE#         33
  C:5D47H         LINE#         34
  C:5D47H         LINE#         35
  C:5D47H         LINE#         36
  C:5D49H         LINE#         37
  C:5D4BH         LINE#         38
  C:5D4BH         LINE#         39
  C:5D52H         LINE#         40
  C:5D54H         LINE#         41
  C:5D56H         LINE#         42
  C:5D56H         LINE#         43
  C:5D5DH         LINE#         44
  C:5D5FH         LINE#         45
  C:5D61H         LINE#         46
  C:5D61H         LINE#         47
BL51 BANKED LINKER/LOCATER V6.22                                                      04/05/2019  05:01:37  PAGE 77


  C:5D68H         LINE#         48
  C:5D6AH         LINE#         49
  C:5D6CH         LINE#         50
  C:5D6CH         LINE#         51
  C:5D6EH         LINE#         52
  C:5D6EH         LINE#         53
  C:5D6EH         LINE#         55
  C:5D72H         LINE#         56
  -------         ENDPROC       _CF_DISK_IOCTL
  -------         ENDMOD        CFDISKIO

  -------         MODULE        DVDDISKIO
  C:0000H         SYMBOL        _ICE_DUMMY_
  C:6284H         PUBLIC        _DVD_disk_status
  C:628DH         PUBLIC        _DVD_disk_initialize
  C:62C1H         PUBLIC        _DVD_disk_read
  C:62C8H         PUBLIC        _DVD_disk_write
  C:5D73H         PUBLIC        _DVD_disk_ioctl
  C:624BH         SYMBOL        Com000C
  C:624BH         SYMBOL        L?0013
  -------         PROC          COM000C
  -------         ENDPROC       COM000C
  -------         PROC          _DVD_DISK_STATUS
  X:842DH         SYMBOL        device
  C:6284H         LINE#         3
  C:6289H         LINE#         4
  C:6289H         LINE#         5
  C:628CH         LINE#         6
  -------         ENDPROC       _DVD_DISK_STATUS
  -------         PROC          _DVD_DISK_INITIALIZE
  X:842EH         SYMBOL        device
  C:628DH         LINE#         8
  C:6292H         LINE#         9
  C:6292H         LINE#         10
  C:6295H         LINE#         11
  -------         ENDPROC       _DVD_DISK_INITIALIZE
  -------         PROC          _DVD_DISK_READ
  X:8463H         SYMBOL        device
  X:8464H         SYMBOL        buff
  X:8467H         SYMBOL        sector
  X:846BH         SYMBOL        count
  C:62C1H         LINE#         13
  C:62C4H         LINE#         14
  C:62C4H         LINE#         15
  C:62C7H         LINE#         16
  -------         ENDPROC       _DVD_DISK_READ
  -------         PROC          _DVD_DISK_WRITE
  X:8467H         SYMBOL        device
  X:8468H         SYMBOL        buff
  X:846BH         SYMBOL        sector
  X:846FH         SYMBOL        count
  C:62C8H         LINE#         18
  C:62CBH         LINE#         19
  C:62CBH         LINE#         20
  C:62CEH         LINE#         21
  -------         ENDPROC       _DVD_DISK_WRITE
  -------         PROC          _DVD_DISK_IOCTL
BL51 BANKED LINKER/LOCATER V6.22                                                      04/05/2019  05:01:37  PAGE 78


  X:8DFBH         SYMBOL        device
  D:0005H         SYMBOL        cmd
  D:0001H         SYMBOL        buff
  -------         DO            
  D:0004H         SYMBOL        res
  -------         ENDDO         
  C:5D73H         LINE#         23
  C:5D78H         LINE#         24
  C:5D78H         LINE#         26
  C:5D86H         LINE#         27
  C:5D86H         LINE#         28
  C:5D86H         LINE#         29
  C:5D88H         LINE#         30
  C:5D8AH         LINE#         31
  C:5D8AH         LINE#         32
  C:5D91H         LINE#         33
  C:5D93H         LINE#         34
  C:5D95H         LINE#         35
  C:5D95H         LINE#         36
  C:5D9CH         LINE#         37
  C:5D9EH         LINE#         38
  C:5DA0H         LINE#         39
  C:5DA0H         LINE#         40
  C:5DA7H         LINE#         41
  C:5DA9H         LINE#         42
  C:5DABH         LINE#         43
  C:5DABH         LINE#         44
  C:5DADH         LINE#         45
  C:5DADH         LINE#         46
  C:5DADH         LINE#         48
  C:5DB1H         LINE#         49
  -------         ENDPROC       _DVD_DISK_IOCTL
  -------         ENDMOD        DVDDISKIO

  -------         MODULE        FFUNICODE
  C:0000H         SYMBOL        _ICE_DUMMY_
  C:5BFFH         PUBLIC        _ff_oem2uni
  C:574AH         PUBLIC        _ff_uni2oem
  C:3F5AH         PUBLIC        _ff_wtoupper
  X:872CH         SYMBOL        uc437
  C:5CF4H         SYMBOL        Com002C
  C:5CF4H         SYMBOL        L?0045
  C:5CFAH         SYMBOL        L?0046
  C:5D01H         SYMBOL        L?0047
  C:5D10H         SYMBOL        L?0048
  C:5D1DH         SYMBOL        L?0049
  C:5D1EH         SYMBOL        L?0050
  C:5D25H         SYMBOL        L?0051
  C:5D2DH         SYMBOL        L?0052
  C:5D2DH         SYMBOL        L?0053
  -------         PROC          COM002C
  -------         ENDPROC       COM002C
  -------         PROC          _FF_UNI2OEM
  X:8417H         SYMBOL        uni
  X:841BH         SYMBOL        cp
  -------         DO            
  X:841DH         SYMBOL        c
BL51 BANKED LINKER/LOCATER V6.22                                                      04/05/2019  05:01:37  PAGE 79


  X:841FH         SYMBOL        p
  -------         ENDDO         
  C:574AH         LINE#         15226
  C:5750H         LINE#         15230
  C:5750H         LINE#         15231
  C:5757H         LINE#         15232
  C:5761H         LINE#         15235
  C:576FH         LINE#         15236
  C:5779H         LINE#         15238
  C:577BH         LINE#         15239
  C:5791H         LINE#         15240
  C:57C4H         LINE#         15241
  C:57D3H         LINE#         15242
  C:57D3H         LINE#         15243
  C:57D3H         LINE#         15245
  C:57DBH         LINE#         15246
  -------         ENDPROC       _FF_UNI2OEM
  -------         PROC          _FF_OEM2UNI
  X:8DEFH         SYMBOL        oem
  X:8DF1H         SYMBOL        cp
  -------         DO            
  D:0004H         SYMBOL        c
  D:0001H         SYMBOL        p
  -------         ENDDO         
  C:5BFFH         LINE#         15248
  C:5C0FH         LINE#         15252
  C:5C0FH         LINE#         15253
  C:5C12H         LINE#         15254
  C:5C18H         LINE#         15257
  C:5C21H         LINE#         15258
  C:5C29H         LINE#         15260
  C:5C2BH         LINE#         15261
  C:5C37H         LINE#         15262
  C:5C56H         LINE#         15263
  C:5C56H         LINE#         15264
  C:5C56H         LINE#         15266
  C:5C5AH         LINE#         15267
  -------         ENDPROC       _FF_OEM2UNI
  -------         PROC          _FF_WTOUPPER
  X:8423H         SYMBOL        uni
  -------         DO            
  X:8427H         SYMBOL        p
  X:842AH         SYMBOL        uc
  X:842CH         SYMBOL        bc
  X:842EH         SYMBOL        nc
  X:8430H         SYMBOL        cmd
  X:847EH         SYMBOL        cvt1
  X:8670H         SYMBOL        cvt2
  -------         ENDDO         
  C:3F5AH         LINE#         15468
  C:3F60H         LINE#         15471
  C:3F60H         LINE#         15567
  C:3F6BH         LINE#         15568
  C:3F79H         LINE#         15569
  C:3F91H         LINE#         15570
  C:3F91H         LINE#         15571
  C:3F9DH         LINE#         15572
BL51 BANKED LINKER/LOCATER V6.22                                                      04/05/2019  05:01:37  PAGE 80


  C:3FBBH         LINE#         15573
  C:3FDCH         LINE#         15574
  C:3FF9H         LINE#         15575
  C:402AH         LINE#         15576
  C:4045H         LINE#         15577
  C:4069H         LINE#         15578
  C:4073H         LINE#         15579
  C:407DH         LINE#         15580
  C:4087H         LINE#         15581
  C:4091H         LINE#         15582
  C:409AH         LINE#         15583
  C:40A4H         LINE#         15584
  C:40B1H         LINE#         15585
  C:40B1H         LINE#         15586
  C:40B1H         LINE#         15587
  C:40B1H         LINE#         15588
  C:40D2H         LINE#         15589
  C:40D5H         LINE#         15590
  C:40E6H         LINE#         15591
  C:40E6H         LINE#         15593
  C:40ECH         LINE#         15594
  -------         ENDPROC       _FF_WTOUPPER
  -------         ENDMOD        FFUNICODE

  -------         MODULE        RAMDISKIO
  C:0000H         SYMBOL        _ICE_DUMMY_
  C:6296H         PUBLIC        _RAM_disk_status
  C:629FH         PUBLIC        _RAM_disk_initialize
  C:62CFH         PUBLIC        _RAM_disk_read
  C:62D6H         PUBLIC        _RAM_disk_write
  C:6235H         PUBLIC        _RAM_disk_ioctl
  C:6255H         SYMBOL        Com0006
  C:6255H         SYMBOL        L?0007
  C:6256H         SYMBOL        L?0008
  -------         PROC          COM0006
  -------         ENDPROC       COM0006
  -------         PROC          _RAM_DISK_STATUS
  X:842DH         SYMBOL        device
  C:6296H         LINE#         3
  C:629BH         LINE#         4
  C:629BH         LINE#         5
  C:629EH         LINE#         6
  -------         ENDPROC       _RAM_DISK_STATUS
  -------         PROC          _RAM_DISK_INITIALIZE
  X:842EH         SYMBOL        device
  C:629FH         LINE#         8
  C:62A4H         LINE#         9
  C:62A4H         LINE#         10
  C:62A7H         LINE#         11
  -------         ENDPROC       _RAM_DISK_INITIALIZE
  -------         PROC          _RAM_DISK_READ
  X:8463H         SYMBOL        device
  X:8464H         SYMBOL        buff
  X:8467H         SYMBOL        sector
  X:846BH         SYMBOL        count
  C:62CFH         LINE#         13
  C:62D2H         LINE#         14
BL51 BANKED LINKER/LOCATER V6.22                                                      04/05/2019  05:01:37  PAGE 81


  C:62D2H         LINE#         15
  C:62D5H         LINE#         16
  -------         ENDPROC       _RAM_DISK_READ
  -------         PROC          _RAM_DISK_WRITE
  X:8467H         SYMBOL        device
  X:8468H         SYMBOL        buff
  X:846BH         SYMBOL        sector
  X:846FH         SYMBOL        count
  C:62D6H         LINE#         18
  C:62D9H         LINE#         19
  C:62D9H         LINE#         20
  C:62DCH         LINE#         21
  -------         ENDPROC       _RAM_DISK_WRITE
  -------         PROC          _RAM_DISK_IOCTL
  X:8DE5H         SYMBOL        device
  X:8DE6H         SYMBOL        cmd
  X:8DE7H         SYMBOL        buff
  C:6235H         LINE#         23
  C:623CH         LINE#         24
  C:623CH         LINE#         25
  C:623FH         LINE#         26
  -------         ENDPROC       _RAM_DISK_IOCTL
  -------         ENDMOD        RAMDISKIO

  -------         MODULE        SDDISKIO
  C:0000H         SYMBOL        _ICE_DUMMY_
  C:62A8H         PUBLIC        _SD_disk_status
  C:62B1H         PUBLIC        _SD_disk_initialize
  C:62DDH         PUBLIC        _SD_disk_read
  C:62E4H         PUBLIC        _SD_disk_write
  C:6240H         PUBLIC        _SD_disk_ioctl
  C:625FH         SYMBOL        Com0006
  C:625FH         SYMBOL        L?0007
  C:6260H         SYMBOL        L?0008
  -------         PROC          COM0006
  -------         ENDPROC       COM0006
  -------         PROC          _SD_DISK_STATUS
  X:842DH         SYMBOL        device
  C:62A8H         LINE#         3
  C:62ADH         LINE#         4
  C:62ADH         LINE#         5
  C:62B0H         LINE#         6
  -------         ENDPROC       _SD_DISK_STATUS
  -------         PROC          _SD_DISK_INITIALIZE
  X:842EH         SYMBOL        device
  C:62B1H         LINE#         8
  C:62B6H         LINE#         9
  C:62B6H         LINE#         10
  C:62B9H         LINE#         11
  -------         ENDPROC       _SD_DISK_INITIALIZE
  -------         PROC          _SD_DISK_READ
  X:8463H         SYMBOL        device
  X:8464H         SYMBOL        buff
  X:8467H         SYMBOL        sector
  X:846BH         SYMBOL        count
  C:62DDH         LINE#         13
  C:62E0H         LINE#         14
BL51 BANKED LINKER/LOCATER V6.22                                                      04/05/2019  05:01:37  PAGE 82


  C:62E0H         LINE#         15
  C:62E3H         LINE#         16
  -------         ENDPROC       _SD_DISK_READ
  -------         PROC          _SD_DISK_WRITE
  X:8467H         SYMBOL        device
  X:8468H         SYMBOL        buff
  X:846BH         SYMBOL        sector
  X:846FH         SYMBOL        count
  C:62E4H         LINE#         18
  C:62E7H         LINE#         19
  C:62E7H         LINE#         20
  C:62EAH         LINE#         21
  -------         ENDPROC       _SD_DISK_WRITE
  -------         PROC          _SD_DISK_IOCTL
  X:8DEAH         SYMBOL        device
  X:8DEBH         SYMBOL        cmd
  X:8DECH         SYMBOL        buff
  C:6240H         LINE#         23
  C:6247H         LINE#         24
  C:6247H         LINE#         25
  C:624AH         LINE#         26
  -------         ENDPROC       _SD_DISK_IOCTL
  -------         ENDMOD        SDDISKIO

  -------         MODULE        ?C?CLDPTR
  C:0864H         PUBLIC        ?C?CLDPTR
  -------         ENDMOD        ?C?CLDPTR

  -------         MODULE        ?C?CLDOPTR
  C:087DH         PUBLIC        ?C?CLDOPTR
  -------         ENDMOD        ?C?CLDOPTR

  -------         MODULE        ?C?CSTPTR
  C:08AAH         PUBLIC        ?C?CSTPTR
  -------         ENDMOD        ?C?CSTPTR

  -------         MODULE        ?C?CSTOPTR
  C:08BCH         PUBLIC        ?C?CSTOPTR
  -------         ENDMOD        ?C?CSTOPTR

  -------         MODULE        ?C?IMUL
  C:08DEH         PUBLIC        ?C?IMUL
  -------         ENDMOD        ?C?IMUL

  -------         MODULE        ?C?UIDIV
  C:08F0H         PUBLIC        ?C?UIDIV
  -------         ENDMOD        ?C?UIDIV

  -------         MODULE        ?C?IILDX
  C:0945H         PUBLIC        ?C?IILDX
  -------         ENDMOD        ?C?IILDX

  -------         MODULE        ?C?ILDIX
  C:095BH         PUBLIC        ?C?ILDIX
  -------         ENDMOD        ?C?ILDIX

  -------         MODULE        ?C?ILDPTR
BL51 BANKED LINKER/LOCATER V6.22                                                      04/05/2019  05:01:37  PAGE 83


  C:0971H         PUBLIC        ?C?ILDPTR
  -------         ENDMOD        ?C?ILDPTR

  -------         MODULE        ?C?ILDOPTR
  C:099CH         PUBLIC        ?C?ILDOPTR
  -------         ENDMOD        ?C?ILDOPTR

  -------         MODULE        ?C?IILDPTR
  C:09D4H         PUBLIC        ?C?IILDPTR
  -------         ENDMOD        ?C?IILDPTR

  -------         MODULE        ?C?ISTPTR
  C:0A0CH         PUBLIC        ?C?ISTPTR
  -------         ENDMOD        ?C?ISTPTR

  -------         MODULE        ?C?ISTOPTR
  C:0A2BH         PUBLIC        ?C?ISTOPTR
  -------         ENDMOD        ?C?ISTOPTR

  -------         MODULE        ?C?LADD
  C:0A58H         PUBLIC        ?C?LADD
  -------         ENDMOD        ?C?LADD

  -------         MODULE        ?C?LSUB
  C:0A65H         PUBLIC        ?C?LSUB
  -------         ENDMOD        ?C?LSUB

  -------         MODULE        ?C?LMUL
  C:0A73H         PUBLIC        ?C?LMUL
  -------         ENDMOD        ?C?LMUL

  -------         MODULE        ?C?ULDIV
  C:0AFEH         PUBLIC        ?C?ULDIV
  -------         ENDMOD        ?C?ULDIV

  -------         MODULE        ?C?LAND
  C:0B90H         PUBLIC        ?C?LAND
  -------         ENDMOD        ?C?LAND

  -------         MODULE        ?C?LOR
  C:0B9DH         PUBLIC        ?C?LOR
  -------         ENDMOD        ?C?LOR

  -------         MODULE        ?C?LNOT
  C:0BAAH         PUBLIC        ?C?LNOT
  -------         ENDMOD        ?C?LNOT

  -------         MODULE        ?C?ULCMP
  C:0BB7H         PUBLIC        ?C?ULCMP
  -------         ENDMOD        ?C?ULCMP

  -------         MODULE        ?C?ULSHR
  C:0BC8H         PUBLIC        ?C?ULSHR
  -------         ENDMOD        ?C?ULSHR

  -------         MODULE        ?C?LSHL
  C:0BDBH         PUBLIC        ?C?LSHL
BL51 BANKED LINKER/LOCATER V6.22                                                      04/05/2019  05:01:37  PAGE 84


  -------         ENDMOD        ?C?LSHL

  -------         MODULE        ?C?LLDPTR
  C:0BEEH         PUBLIC        ?C?LLDPTR
  -------         ENDMOD        ?C?LLDPTR

  -------         MODULE        ?C?LLDOPTR
  C:0C0EH         PUBLIC        ?C?LLDOPTR
  -------         ENDMOD        ?C?LLDOPTR

  -------         MODULE        ?C?LSTPTR
  C:0C3EH         PUBLIC        ?C?LSTPTR
  -------         ENDMOD        ?C?LSTPTR

  -------         MODULE        ?C?LSTOPTR
  C:0C58H         PUBLIC        ?C?LSTOPTR
  -------         ENDMOD        ?C?LSTOPTR

  -------         MODULE        ?C?LLDXDATA
  C:0C7CH         PUBLIC        ?C?LLDXDATA
  -------         ENDMOD        ?C?LLDXDATA

  -------         MODULE        ?C?LLDXDATA0
  C:0C88H         PUBLIC        ?C?LLDXDATA0
  -------         ENDMOD        ?C?LLDXDATA0

  -------         MODULE        ?C?LLDPTR0
  C:0C94H         PUBLIC        ?C?LLDPTR0
  -------         ENDMOD        ?C?LLDPTR0

  -------         MODULE        ?C?LLDOPTR0
  C:0CB4H         PUBLIC        ?C?LLDOPTR0
  -------         ENDMOD        ?C?LLDOPTR0

  -------         MODULE        ?C?LSTXDATA
  C:0CE4H         PUBLIC        ?C?LSTXDATA
  -------         ENDMOD        ?C?LSTXDATA

  -------         MODULE        ?C?LSTKXDATA
  C:0CF0H         PUBLIC        ?C?LSTKXDATA
  -------         ENDMOD        ?C?LSTKXDATA

  -------         MODULE        ?C?LSTKPTR
  C:0D21H         PUBLIC        ?C?LSTKPTR
  -------         ENDMOD        ?C?LSTKPTR

  -------         MODULE        ?C?LSTKOPTR
  C:0D3BH         PUBLIC        ?C?LSTKOPTR
  -------         ENDMOD        ?C?LSTKOPTR

  -------         MODULE        ?C?OFFXADD
  C:0D5FH         PUBLIC        ?C?OFFXADD
  -------         ENDMOD        ?C?OFFXADD

  -------         MODULE        ?C?PLDXDATA
  C:0D6BH         PUBLIC        ?C?PLDXDATA
  -------         ENDMOD        ?C?PLDXDATA
BL51 BANKED LINKER/LOCATER V6.22                                                      04/05/2019  05:01:37  PAGE 85



  -------         MODULE        ?C?PLDIXDATA
  C:0D74H         PUBLIC        ?C?PLDIXDATA
  -------         ENDMOD        ?C?PLDIXDATA

  -------         MODULE        ?C?PSTXDATA
  C:0D8BH         PUBLIC        ?C?PSTXDATA
  -------         ENDMOD        ?C?PSTXDATA

  -------         MODULE        ?C?PLDPTR
  C:0D94H         PUBLIC        ?C?PLDPTR
  -------         ENDMOD        ?C?PLDPTR

  -------         MODULE        ?C?PSTPTR
  C:0DB4H         PUBLIC        ?C?PSTPTR
  -------         ENDMOD        ?C?PSTPTR

  -------         MODULE        ?C?PLDOPTR
  C:0E03H         PUBLIC        ?C?PLDOPTR
  -------         ENDMOD        ?C?PLDOPTR

  -------         MODULE        ?C?PSTOPTR
  C:0E33H         PUBLIC        ?C?PSTOPTR
  -------         ENDMOD        ?C?PSTOPTR

  -------         MODULE        ?C?CCASE
  C:0E8CH         PUBLIC        ?C?CCASE
  -------         ENDMOD        ?C?CCASE

  -------         MODULE        ?C_XBP
  D:0008H         PUBLIC        ?C_XBP
  -------         ENDMOD        ?C_XBP

  -------         MODULE        ?C?LIMUL
  C:0EB2H         PUBLIC        ?C?LIMUL
  -------         ENDMOD        ?C?LIMUL

  -------         MODULE        ISD_CORE_FUNCTIONS
  N:0064H         PUBLIC        ?ISD?CORE
  C:2F0AH         PUBLIC        ?ISD?READCMEM
  C:2F17H         PUBLIC        ?ISD?READIMEM
  C:2EFAH         PUBLIC        ?ISD?READXMEM
  C:2F28H         PUBLIC        ?ISD?WRITEIMEM
  C:2F20H         PUBLIC        ?ISD?WRITEXMEM
  -------         ENDMOD        ISD_CORE_FUNCTIONS

  -------         MODULE        ?C?LLDIDATA
  C:0EDFH         PUBLIC        ?C?LLDIDATA
  -------         ENDMOD        ?C?LLDIDATA

  -------         MODULE        ?C?LLDPDATA
  C:0EEBH         PUBLIC        ?C?LLDPDATA
  -------         ENDMOD        ?C?LLDPDATA

  -------         MODULE        ?C?LLDCODE
  C:0EF7H         PUBLIC        ?C?LLDCODE
  -------         ENDMOD        ?C?LLDCODE
BL51 BANKED LINKER/LOCATER V6.22                                                      04/05/2019  05:01:37  PAGE 86



  -------         MODULE        ?C?LLDIDATA0
  C:0F07H         PUBLIC        ?C?LLDIDATA0
  -------         ENDMOD        ?C?LLDIDATA0

  -------         MODULE        ?C?LLDPDATA0
  C:0F14H         PUBLIC        ?C?LLDPDATA0
  -------         ENDMOD        ?C?LLDPDATA0

  -------         MODULE        ?C?LLDCODE0
  C:0F21H         PUBLIC        ?C?LLDCODE0
  -------         ENDMOD        ?C?LLDCODE0

  -------         MODULE        ?C?LSTIDATA
  C:0F31H         PUBLIC        ?C?LSTIDATA
  -------         ENDMOD        ?C?LSTIDATA

  -------         MODULE        ?C?LSTPDATA
  C:0F3DH         PUBLIC        ?C?LSTPDATA
  -------         ENDMOD        ?C?LSTPDATA

  -------         MODULE        ?C?LSTKIDATA
  C:0F49H         PUBLIC        ?C?LSTKIDATA
  -------         ENDMOD        ?C?LSTKIDATA

  -------         MODULE        ?C?LSTKPDATA
  C:0F62H         PUBLIC        ?C?LSTKPDATA
  -------         ENDMOD        ?C?LSTKPDATA

  -------         MODULE        ?C?PLDIDATA
  C:0F7BH         PUBLIC        ?C?PLDIDATA
  -------         ENDMOD        ?C?PLDIDATA

  -------         MODULE        ?C?PSTIDATA
  C:0F84H         PUBLIC        ?C?PSTIDATA
  -------         ENDMOD        ?C?PSTIDATA

  -------         MODULE        ?C?PLDPDATA
  C:0F8DH         PUBLIC        ?C?PLDPDATA
  -------         ENDMOD        ?C?PLDPDATA

  -------         MODULE        ?C?PSTPDATA
  C:0F96H         PUBLIC        ?C?PSTPDATA
  -------         ENDMOD        ?C?PSTPDATA

  -------         MODULE        ?C?PLDCODE
  C:0F9FH         PUBLIC        ?C?PLDCODE
  -------         ENDMOD        ?C?PLDCODE



FUNCTION REGISTER MASKS


FUNCTION . . . . . . . . REG MASK
---------------------------------

BL51 BANKED LINKER/LOCATER V6.22                                                      04/05/2019  05:01:37  PAGE 87


LEDINIT. . . . . . . . . @0x8000
LEDTEST. . . . . . . . . @0x8000
_CFDISKGETSECTORCOUNT. . @0xe30f
_CFWAITCOMMANDREADY. . . @0xf301
_CFWAITDATAREADY . . . . @0xf301
_CFWAITIDLE. . . . . . . @0xa300
_CFWRITESECTOR . . . . . @0xff8f
_CF_DISK_IOCTL . . . . . @0xff8f
_CF_DISK_STATUS. . . . . @0xe303
_CF_DISK_WRITE . . . . . @0xff8f
_DELAY_MS. . . . . . . . @0xe03b
_DELAY_US. . . . . . . . @0xe00b
_DISK_IOCTL. . . . . . . @0xf381
_DISK_STATUS . . . . . . @0xf387
_DVD_DISK_INITIALIZE . . @0xe303
_DVD_DISK_IOCTL. . . . . @0xff8f
_DVD_DISK_READ . . . . . @0xe303
_DVD_DISK_STATUS . . . . @0xe303
_DVD_DISK_WRITE. . . . . @0xe303
_FF_OEM2UNI. . . . . . . @0xf7ff
_F_CLOSEDIR. . . . . . . @0xfff7
_PIOTEST . . . . . . . . @0xf3fb
_RAM_DISK_INITIALIZE . . @0xe303
_RAM_DISK_IOCTL. . . . . @0xe303
_RAM_DISK_READ . . . . . @0xe303
_RAM_DISK_STATUS . . . . @0xe303
_RAM_DISK_WRITE. . . . . @0xe303
_SD_DISK_INITIALIZE. . . @0xe303
_SD_DISK_IOCTL . . . . . @0xe303
_SD_DISK_READ. . . . . . @0xe303
_SD_DISK_STATUS. . . . . @0xe303
_SD_DISK_WRITE . . . . . @0xe303
_SIOCLOSE. . . . . . . . @0xe300
_SIOINIT . . . . . . . . @0xa300
_SIORX . . . . . . . . . @0xe301
_SIORXBUF. . . . . . . . @0xf7f1
_SIORXSTR. . . . . . . . @0xf7f1
_SIOTX . . . . . . . . . @0xe301
_SIOTXBUF. . . . . . . . @0xf7f5
_SIOTXSTR. . . . . . . . @0xfff7
_SIOWAITRXDONE . . . . . @0xa300
_SIOWAITTXDONE . . . . . @0xa300

*** WARNING L16: UNCALLED SEGMENT, IGNORED FOR OVERLAY PROCESS
    SEGMENT: ?PR?_CFDISKGETSECTORCOUNT?COMPACTFLASH

*** WARNING L16: UNCALLED SEGMENT, IGNORED FOR OVERLAY PROCESS
    SEGMENT: ?PR?LEDINIT?LED

*** WARNING L16: UNCALLED SEGMENT, IGNORED FOR OVERLAY PROCESS
    SEGMENT: ?PR?_PIOTEST?TEST

*** WARNING L16: UNCALLED SEGMENT, IGNORED FOR OVERLAY PROCESS
    SEGMENT: ?PR?_CFTEST?TEST

*** WARNING L16: UNCALLED SEGMENT, IGNORED FOR OVERLAY PROCESS
    SEGMENT: ?PR?_SIOCLOSE?SIO
BL51 BANKED LINKER/LOCATER V6.22                                                      04/05/2019  05:01:37  PAGE 88



*** WARNING L16: UNCALLED SEGMENT, IGNORED FOR OVERLAY PROCESS
    SEGMENT: ?PR?_SIOWAITTXDONE?SIO

*** WARNING L16: UNCALLED SEGMENT, IGNORED FOR OVERLAY PROCESS
    SEGMENT: ?PR?_SIOWAITRXDONE?SIO

*** WARNING L16: UNCALLED SEGMENT, IGNORED FOR OVERLAY PROCESS
    SEGMENT: ?PR?_SIORXSTR?SIO

*** WARNING L16: UNCALLED SEGMENT, IGNORED FOR OVERLAY PROCESS
    SEGMENT: ?PR?_SIORXBUF?SIO

*** WARNING L16: UNCALLED SEGMENT, IGNORED FOR OVERLAY PROCESS
    SEGMENT: ?PR?_F_WRITE?FF

*** WARNING L16: UNCALLED SEGMENT, IGNORED FOR OVERLAY PROCESS
    SEGMENT: ?PR?_F_OPENDIR?FF

*** WARNING L16: UNCALLED SEGMENT, IGNORED FOR OVERLAY PROCESS
    SEGMENT: ?PR?_F_CLOSEDIR?FF

*** WARNING L16: UNCALLED SEGMENT, IGNORED FOR OVERLAY PROCESS
    SEGMENT: ?PR?_F_READDIR?FF

*** WARNING L16: UNCALLED SEGMENT, IGNORED FOR OVERLAY PROCESS
    SEGMENT: ?PR?_F_GETLABEL?FF

*** WARNING L16: UNCALLED SEGMENT, IGNORED FOR OVERLAY PROCESS
    SEGMENT: ?PR?_F_SETLABEL?FF

*** WARNING L16: UNCALLED SEGMENT, IGNORED FOR OVERLAY PROCESS
    SEGMENT: ?PR?_CF_DISK_IOCTL?CFDISKIO

*** WARNING L16: UNCALLED SEGMENT, IGNORED FOR OVERLAY PROCESS
    SEGMENT: ?PR?_DVD_DISK_IOCTL?DVDDISKIO

*** WARNING L16: UNCALLED SEGMENT, IGNORED FOR OVERLAY PROCESS
    SEGMENT: ?PR?_RAM_DISK_IOCTL?RAMDISKIO

*** WARNING L16: UNCALLED SEGMENT, IGNORED FOR OVERLAY PROCESS
    SEGMENT: ?PR?_SD_DISK_IOCTL?SDDISKIO

Program Size: data=12.0 xdata=3580 code=25333
LINK/LOCATE RUN COMPLETE.  19 WARNING(S),  0 ERROR(S)
