ASxxxx Linker V03.00 + NoICE + sdld,  page 1.
Hexadecimal  [32-Bits]

Area                                    Addr        Size        Decimal Bytes (Attributes)
--------------------------------        ----        ----        ------- ----- ------------
CABS                                00000000    00000000 =           0. bytes (ABS,CON,CODE)

      Value  Global                              Global Defined In Module
      -----  --------------------------------   ------------------------
C:   00000000  l_BSEG                          
C:   00000000  l_BSEG_BYTES                    
C:   00000000  l_CABS                          
C:   00000000  l_GSINIT                        
C:   00000000  l_GSINIT1                       
C:   00000000  l_GSINIT5                       
C:   00000000  l_IABS                          
C:   00000000  l_ISEG                          
C:   00000000  l_OSEG                          
C:   00000000  l_PSEG                          
C:   00000000  l_REG_BANK_1                    
C:   00000000  l_REG_BANK_2                    
C:   00000000  l_REG_BANK_3                    
C:   00000000  l_RSEG                          
C:   00000000  l_RSEG0                         
C:   00000000  l_RSEG1                         
C:   00000000  l_XABS                          
C:   00000000  l__CODE                         
C:   00000000  s_BSEG                          
C:   00000000  s_CABS                          
C:   00000000  s_DSEG                          
C:   00000000  s_HOME                          
C:   00000000  s_IABS                          
C:   00000000  s_ISEG                          
C:   00000000  s_REG_BANK_0                    
C:   00000000  s_RSEG                          
C:   00000000  s_RSEG0                         
C:   00000000  s_RSEG1                         
C:   00000000  s_XABS                          
C:   00000001  l_BIT_BANK                      
C:   00000002  l_XINIT                         
C:   00000002  l_XISEG                         
C:   00000003  l_GSFINAL                       
C:   00000003  l_GSINIT0                       
C:   00000006  l_HOME                          
C:   00000006  s_GSINIT0                       
C:   00000008  l_REG_BANK_0                    
C:   00000008  s_REG_BANK_1                    
C:   00000009  s_GSINIT1                       
C:   00000009  s_GSINIT2                       
C:   0000000A  l_GSINIT2                       
C:   00000010  s_REG_BANK_2                    
C:   00000013  s_GSINIT3                       
C:   00000018  s_REG_BANK_3                    
C:   00000020  s_BIT_BANK                      
C:   00000020  s_BSEG_BYTES                    
C:   00000020  s_OSEG                          
C:   00000020  s__CODE                         
C:   00000021  s_SSEG                          
C:   00000022  l_GSINIT3                       
ASxxxx Linker V03.00 + NoICE + sdld,  page 2.
Hexadecimal  [32-Bits]

Area                                    Addr        Size        Decimal Bytes (Attributes)
--------------------------------        ----        ----        ------- ----- ------------
CABS                                00000000    00000000 =           0. bytes (ABS,CON,CODE)

      Value  Global                              Global Defined In Module
      -----  --------------------------------   ------------------------
C:   0000002A  l_GSINIT4                       
C:   00000035  s_GSINIT4                       
C:   0000005F  s_GSFINAL                       
C:   0000005F  s_GSINIT                        
C:   0000005F  s_GSINIT5                       
C:   00000062  s_CSEG                          
C:   00000069  l_DSEG                          
C:   000000DF  l_SSEG                          
C:   00000100  l_IRAM                          
C:   000001B3  l_CONST                         
C:   0000045F  l_XSEG                          
C:   00003CB7  l_CSEG                          
C:   00003D19  s_CONST                         
C:   00003ECC  s_XINIT                         
C:   00008000  s_PSEG                          
C:   00008000  s_XSEG                          
C:   0000845F  s_XISEG                         

ASxxxx Linker V03.00 + NoICE + sdld,  page 3.
Hexadecimal  [32-Bits]

Area                                    Addr        Size        Decimal Bytes (Attributes)
--------------------------------        ----        ----        ------- ----- ------------
.  .ABS.                            00000000    00000000 =           0. bytes (ABS,CON)

      Value  Global                              Global Defined In Module
      -----  --------------------------------   ------------------------
     00000000  .__.ABS.                           _startup
     00000080  G$P0$0_0$0                         test
     00000080  G$P0_0$0_0$0                       test
     00000080  _P0                                test
     00000080  _P0_0                              test
     00000081  G$P0_1$0_0$0                       test
     00000081  G$SP$0_0$0                         test
     00000081  _P0_1                              test
     00000081  _SP                                test
     00000082  G$DPL$0_0$0                        test
     00000082  G$P0_2$0_0$0                       test
     00000082  _DPL                               test
     00000082  _P0_2                              test
     00000083  G$DPH$0_0$0                        test
     00000083  G$P0_3$0_0$0                       test
     00000083  _DPH                               test
     00000083  _P0_3                              test
     00000084  G$P0_4$0_0$0                       test
     00000084  _P0_4                              test
     00000085  G$P0_5$0_0$0                       test
     00000085  _P0_5                              test
     00000086  G$P0_6$0_0$0                       test
     00000086  _P0_6                              test
     00000087  G$P0_7$0_0$0                       test
     00000087  G$PCON$0_0$0                       test
     00000087  _P0_7                              test
     00000087  _PCON                              test
     00000088  G$IT0$0_0$0                        test
     00000088  G$TCON$0_0$0                       test
     00000088  _IT0                               test
     00000088  _TCON                              test
     00000089  G$IE0$0_0$0                        test
     00000089  G$TMOD$0_0$0                       test
     00000089  _IE0                               test
     00000089  _TMOD                              test
     0000008A  G$IT1$0_0$0                        test
     0000008A  G$TL0$0_0$0                        test
     0000008A  _IT1                               test
     0000008A  _TL0                               test
     0000008B  G$IE1$0_0$0                        test
     0000008B  G$TL1$0_0$0                        test
     0000008B  _IE1                               test
     0000008B  _TL1                               test
     0000008C  G$TH0$0_0$0                        test
     0000008C  G$TR0$0_0$0                        test
     0000008C  _TH0                               test
     0000008C  _TR0                               test
     0000008D  G$TF0$0_0$0                        test
     0000008D  G$TH1$0_0$0                        test
     0000008D  _TF0                               test
ASxxxx Linker V03.00 + NoICE + sdld,  page 4.
Hexadecimal  [32-Bits]

Area                                    Addr        Size        Decimal Bytes (Attributes)
--------------------------------        ----        ----        ------- ----- ------------
.  .ABS.                            00000000    00000000 =           0. bytes (ABS,CON)

      Value  Global                              Global Defined In Module
      -----  --------------------------------   ------------------------
     0000008D  _TH1                               test
     0000008E  G$TR1$0_0$0                        test
     0000008E  _TR1                               test
     0000008F  G$TF1$0_0$0                        test
     0000008F  _TF1                               test
     00000090  G$P1$0_0$0                         test
     00000090  G$P1_0$0_0$0                       test
     00000090  _P1                                test
     00000090  _P1_0                              test
     00000091  G$P1_1$0_0$0                       test
     00000091  _P1_1                              test
     00000092  G$P1_2$0_0$0                       test
     00000092  _P1_2                              test
     00000093  G$P1_3$0_0$0                       test
     00000093  _P1_3                              test
     00000094  G$P1_4$0_0$0                       test
     00000094  _P1_4                              test
     00000095  G$P1_5$0_0$0                       test
     00000095  _P1_5                              test
     00000096  G$P1_6$0_0$0                       test
     00000096  _P1_6                              test
     00000097  G$P1_7$0_0$0                       test
     00000097  _P1_7                              test
     00000098  G$RI$0_0$0                         test
     00000098  G$SCON$0_0$0                       test
     00000098  _RI                                test
     00000098  _SCON                              test
     00000099  G$SBUF$0_0$0                       test
     00000099  G$TI$0_0$0                         test
     00000099  _SBUF                              test
     00000099  _TI                                test
     0000009A  G$RB8$0_0$0                        test
     0000009A  _RB8                               test
     0000009B  G$TB8$0_0$0                        test
     0000009B  _TB8                               test
     0000009C  G$REN$0_0$0                        test
     0000009C  _REN                               test
     0000009D  G$SM2$0_0$0                        test
     0000009D  _SM2                               test
     0000009E  G$SM1$0_0$0                        test
     0000009E  _SM1                               test
     0000009F  G$SM0$0_0$0                        test
     0000009F  _SM0                               test
     000000A0  G$P2$0_0$0                         test
     000000A0  G$P2_0$0_0$0                       test
     000000A0  _P2                                test
     000000A0  _P2_0                              test
     000000A0  __XPAGE                            
     000000A1  G$P2_1$0_0$0                       test
     000000A1  _P2_1                              test
     000000A2  G$P2_2$0_0$0                       test
ASxxxx Linker V03.00 + NoICE + sdld,  page 5.
Hexadecimal  [32-Bits]

Area                                    Addr        Size        Decimal Bytes (Attributes)
--------------------------------        ----        ----        ------- ----- ------------
.  .ABS.                            00000000    00000000 =           0. bytes (ABS,CON)

      Value  Global                              Global Defined In Module
      -----  --------------------------------   ------------------------
     000000A2  _P2_2                              test
     000000A3  G$P2_3$0_0$0                       test
     000000A3  _P2_3                              test
     000000A4  G$P2_4$0_0$0                       test
     000000A4  _P2_4                              test
     000000A5  G$P2_5$0_0$0                       test
     000000A5  _P2_5                              test
     000000A6  G$P2_6$0_0$0                       test
     000000A6  _P2_6                              test
     000000A7  G$P2_7$0_0$0                       test
     000000A7  _P2_7                              test
     000000A8  G$EX0$0_0$0                        test
     000000A8  G$IE$0_0$0                         test
     000000A8  _EX0                               test
     000000A8  _IE                                test
     000000A9  G$ET0$0_0$0                        test
     000000A9  _ET0                               test
     000000AA  G$EX1$0_0$0                        test
     000000AA  _EX1                               test
     000000AB  G$ET1$0_0$0                        test
     000000AB  _ET1                               test
     000000AC  G$ES$0_0$0                         test
     000000AC  _ES                                test
     000000AF  G$EA$0_0$0                         test
     000000AF  _EA                                test
     000000B0  G$P3$0_0$0                         test
     000000B0  G$P3_0$0_0$0                       test
     000000B0  G$RXD$0_0$0                        test
     000000B0  _P3                                test
     000000B0  _P3_0                              test
     000000B0  _RXD                               test
     000000B1  G$P3_1$0_0$0                       test
     000000B1  G$TXD$0_0$0                        test
     000000B1  _P3_1                              test
     000000B1  _TXD                               test
     000000B2  G$INT0$0_0$0                       test
     000000B2  G$P3_2$0_0$0                       test
     000000B2  _INT0                              test
     000000B2  _P3_2                              test
     000000B3  G$INT1$0_0$0                       test
     000000B3  G$P3_3$0_0$0                       test
     000000B3  _INT1                              test
     000000B3  _P3_3                              test
     000000B4  G$P3_4$0_0$0                       test
     000000B4  G$T0$0_0$0                         test
     000000B4  _P3_4                              test
     000000B4  _T0                                test
     000000B5  G$P3_5$0_0$0                       test
     000000B5  G$T1$0_0$0                         test
     000000B5  _P3_5                              test
     000000B5  _T1                                test
ASxxxx Linker V03.00 + NoICE + sdld,  page 6.
Hexadecimal  [32-Bits]

Area                                    Addr        Size        Decimal Bytes (Attributes)
--------------------------------        ----        ----        ------- ----- ------------
.  .ABS.                            00000000    00000000 =           0. bytes (ABS,CON)

      Value  Global                              Global Defined In Module
      -----  --------------------------------   ------------------------
     000000B6  G$P3_6$0_0$0                       test
     000000B6  G$WR$0_0$0                         test
     000000B6  _P3_6                              test
     000000B6  _WR                                test
     000000B7  G$P3_7$0_0$0                       test
     000000B7  G$RD$0_0$0                         test
     000000B7  _P3_7                              test
     000000B7  _RD                                test
     000000B8  G$IP$0_0$0                         test
     000000B8  G$PX0$0_0$0                        test
     000000B8  _IP                                test
     000000B8  _PX0                               test
     000000B9  G$PT0$0_0$0                        test
     000000B9  _PT0                               test
     000000BA  G$PX1$0_0$0                        test
     000000BA  _PX1                               test
     000000BB  G$PT1$0_0$0                        test
     000000BB  _PT1                               test
     000000BC  G$PS$0_0$0                         test
     000000BC  _PS                                test
     000000D0  G$P$0_0$0                          test
     000000D0  G$PSW$0_0$0                        test
     000000D0  _P                                 test
     000000D0  _PSW                               test
     000000D1  G$F1$0_0$0                         test
     000000D1  _F1                                test
     000000D2  G$OV$0_0$0                         test
     000000D2  _OV                                test
     000000D3  G$RS0$0_0$0                        test
     000000D3  _RS0                               test
     000000D4  G$RS1$0_0$0                        test
     000000D4  _RS1                               test
     000000D5  G$F0$0_0$0                         test
     000000D5  _F0                                test
     000000D6  G$AC$0_0$0                         test
     000000D6  _AC                                test
     000000D7  G$CY$0_0$0                         test
     000000D7  _CY                                test
     000000E0  G$ACC$0_0$0                        test
     000000E0  _ACC                               test
     000000F0  G$B$0_0$0                          test
     000000F0  _B                                 test
     000000F5  _B_5                               _gptrget
     000000F6  _B_6                               _gptrget
     000000F7  _B_7                               _gptrget

ASxxxx Linker V03.00 + NoICE + sdld,  page 7.
Hexadecimal  [32-Bits]

Area                                    Addr        Size        Decimal Bytes (Attributes)
--------------------------------        ----        ----        ------- ----- ------------
REG_BANK_0                          00000000    00000008 =           8. bytes (REL,OVR)

      Value  Global                              Global Defined In Module
      -----  --------------------------------   ------------------------
ASxxxx Linker V03.00 + NoICE + sdld,  page 8.
Hexadecimal  [32-Bits]

Area                                    Addr        Size        Decimal Bytes (Attributes)
--------------------------------        ----        ----        ------- ----- ------------
BIT_BANK                            00000020    00000001 =           1. bytes (REL,OVR)

      Value  Global                              Global Defined In Module
      -----  --------------------------------   ------------------------
ASxxxx Linker V03.00 + NoICE + sdld,  page 9.
Hexadecimal  [32-Bits]

Area                                    Addr        Size        Decimal Bytes (Attributes)
--------------------------------        ----        ----        ------- ----- ------------
DSEG                                00000000    00000069 =         105. bytes (REL,CON)

      Value  Global                              Global Defined In Module
      -----  --------------------------------   ------------------------
     00000008  _bp                                _bp

ASxxxx Linker V03.00 + NoICE + sdld,  page 10.
Hexadecimal  [32-Bits]

Area                                    Addr        Size        Decimal Bytes (Attributes)
--------------------------------        ----        ----        ------- ----- ------------
SSEG                                00000021    000000DF =         223. bytes (REL,OVR)

      Value  Global                              Global Defined In Module
      -----  --------------------------------   ------------------------
     00000021  __start__stack                     main

ASxxxx Linker V03.00 + NoICE + sdld,  page 11.
Hexadecimal  [32-Bits]

Area                                    Addr        Size        Decimal Bytes (Attributes)
--------------------------------        ----        ----        ------- ----- ------------
XSEG                                00008000    0000045F =        1119. bytes (REL,CON,XDATA)

      Value  Global                              Global Defined In Module
      -----  --------------------------------   ------------------------
D:   00008000  G$diskioCacheBuf$0_0$0             diskio
D:   00008000  _diskioCacheBuf                    diskio
D:   00008200  G$lastSector$0_0$0                 diskio
D:   00008200  _lastSector                        diskio
D:   00008204  G$writingSector$0_0$0              diskio
D:   00008204  _writingSector                     diskio
D:   00008208  Fpff$FatFs$0_0$0                   pff
D:   0000820B  G$buf$0_0$0                        test
D:   0000820B  _buf                               test
D:   0000840B  G$fs$0_0$0                         test
D:   0000840B  _fs                                test
D:   00008435  G$dj$0_0$0                         test
D:   00008435  _dj                                test
D:   00008446  G$filInfo$0_0$0                    test
D:   00008446  _filInfo                           test
D:   0000845C  G$siofs$0_0$0                      test
D:   0000845C  _siofs                             test
D:   0000845D  G$siofile$0_0$0                    test
D:   0000845D  _siofile                           test
D:   0000845E  G$siodir$0_0$0                     test
D:   0000845E  _siodir                            test
ASxxxx Linker V03.00 + NoICE + sdld,  page 12.
Hexadecimal  [32-Bits]

Area                                    Addr        Size        Decimal Bytes (Attributes)
--------------------------------        ----        ----        ------- ----- ------------
XISEG                               0000845F    00000002 =           2. bytes (REL,CON,XDATA)

      Value  Global                              Global Defined In Module
      -----  --------------------------------   ------------------------
D:   0000845F  G$PSBANK$0_0$0                     main
D:   0000845F  _PSBANK                            main
D:   00008460  G$firstRead$0_0$0                  diskio
D:   00008460  _firstRead                         diskio

ASxxxx Linker V03.00 + NoICE + sdld,  page 13.
Hexadecimal  [32-Bits]

Area                                    Addr        Size        Decimal Bytes (Attributes)
--------------------------------        ----        ----        ------- ----- ------------
HOME                                00000000    00000006 =           6. bytes (REL,CON,CODE)

      Value  Global                              Global Defined In Module
      -----  --------------------------------   ------------------------
C:   00000000  A$mainDebug\main$379               main
C:   00000003  A$mainDebug\main$401               main
C:   00000003  __sdcc_program_startup             main
ASxxxx Linker V03.00 + NoICE + sdld,  page 14.
Hexadecimal  [32-Bits]

Area                                    Addr        Size        Decimal Bytes (Attributes)
--------------------------------        ----        ----        ------- ----- ------------
GSINIT0                             00000006    00000003 =           3. bytes (REL,CON,CODE)

      Value  Global                              Global Defined In Module
      -----  --------------------------------   ------------------------
C:   00000006  __sdcc_gsinit_startup              

ASxxxx Linker V03.00 + NoICE + sdld,  page 15.
Hexadecimal  [32-Bits]

Area                                    Addr        Size        Decimal Bytes (Attributes)
--------------------------------        ----        ----        ------- ----- ------------
GSINIT2                             00000009    0000000A =          10. bytes (REL,CON,CODE)

      Value  Global                              Global Defined In Module
      -----  --------------------------------   ------------------------
ASxxxx Linker V03.00 + NoICE + sdld,  page 16.
Hexadecimal  [32-Bits]

Area                                    Addr        Size        Decimal Bytes (Attributes)
--------------------------------        ----        ----        ------- ----- ------------
GSINIT3                             00000013    00000022 =          34. bytes (REL,CON,CODE)

      Value  Global                              Global Defined In Module
      -----  --------------------------------   ------------------------
C:   00000013  __mcs51_genXINIT                   

ASxxxx Linker V03.00 + NoICE + sdld,  page 17.
Hexadecimal  [32-Bits]

Area                                    Addr        Size        Decimal Bytes (Attributes)
--------------------------------        ----        ----        ------- ----- ------------
GSINIT4                             00000035    0000002A =          42. bytes (REL,CON,CODE)

      Value  Global                              Global Defined In Module
      -----  --------------------------------   ------------------------
C:   00000035  __mcs51_genRAMCLEAR                
C:   0000003B  __mcs51_genXRAMCLEAR               

ASxxxx Linker V03.00 + NoICE + sdld,  page 18.
Hexadecimal  [32-Bits]

Area                                    Addr        Size        Decimal Bytes (Attributes)
--------------------------------        ----        ----        ------- ----- ------------
GSFINAL                             0000005F    00000003 =           3. bytes (REL,CON,CODE)

      Value  Global                              Global Defined In Module
      -----  --------------------------------   ------------------------
C:   0000005F  A$mainDebug\main$394               main

ASxxxx Linker V03.00 + NoICE + sdld,  page 19.
Hexadecimal  [32-Bits]

Area                                    Addr        Size        Decimal Bytes (Attributes)
--------------------------------        ----        ----        ------- ----- ------------
CSEG                                00000062    00003CB7 =       15543. bytes (REL,CON,CODE)

      Value  Global                              Global Defined In Module
      -----  --------------------------------   ------------------------
C:   00000062  A$compactflashmpactflash$406       compactflash
C:   00000062  C$compactflash.c$5$0_0$33          compactflash
C:   00000062  C$compactflash.c$7$1_0$33          compactflash
C:   00000062  G$cfInit$0$0                       compactflash
C:   00000062  _cfInit                            compactflash
C:   00000064  A$compactflashmpactflash$407       compactflash
C:   00000066  A$compactflashmpactflash$408       compactflash
C:   00000069  A$compactflashmpactflash$409       compactflash
C:   0000006B  A$compactflashmpactflash$412       compactflash
C:   0000006B  C$compactflash.c$9$1_0$33          compactflash
C:   0000006E  A$compactflashmpactflash$413       compactflash
C:   00000070  A$compactflashmpactflash$414       compactflash
C:   00000071  A$compactflashmpactflash$417       compactflash
C:   00000071  C$compactflash.c$11$1_0$33         compactflash
C:   00000073  A$compactflashmpactflash$418       compactflash
C:   00000076  A$compactflashmpactflash$421       compactflash
C:   00000076  C$compactflash.c$13$1_0$33         compactflash
C:   00000079  A$compactflashmpactflash$422       compactflash
C:   0000007B  A$compactflashmpactflash$423       compactflash
C:   0000007C  A$compactflashmpactflash$428       compactflash
C:   0000007C  C$compactflash.c$14$1_0$33         compactflash
C:   0000007C  XG$cfInit$0$0                      compactflash
C:   0000007D  A$compactflashmpactflash$444       compactflash
C:   0000007D  C$compactflash.c$16$1_0$35         compactflash
C:   0000007D  C$compactflash.c$18$1_0$35         compactflash
C:   0000007D  G$cfWaitIdle$0$0                   compactflash
C:   0000007D  _cfWaitIdle                        compactflash
C:   00000080  A$compactflashmpactflash$445       compactflash
C:   00000081  A$compactflashmpactflash$446       compactflash
C:   00000084  A$compactflashmpactflash$451       compactflash
C:   00000084  C$compactflash.c$19$1_0$35         compactflash
C:   00000084  XG$cfWaitIdle$0$0                  compactflash
C:   00000085  A$compactflashmpactflash$467       compactflash
C:   00000085  C$compactflash.c$21$1_0$37         compactflash
C:   00000085  C$compactflash.c$23$1_0$37         compactflash
C:   00000085  G$cfWaitCommandReady$0$0           compactflash
C:   00000085  _cfWaitCommandReady                compactflash
C:   00000088  A$compactflashmpactflash$468       compactflash
C:   00000089  A$compactflashmpactflash$469       compactflash
C:   0000008A  A$compactflashmpactflash$470       compactflash
C:   0000008D  A$compactflashmpactflash$471       compactflash
C:   0000008F  A$compactflashmpactflash$472       compactflash
C:   00000092  A$compactflashmpactflash$473       compactflash
C:   00000095  A$compactflashmpactflash$478       compactflash
C:   00000095  C$compactflash.c$24$1_0$37         compactflash
C:   00000095  XG$cfWaitCommandReady$0$0          compactflash
C:   00000096  A$compactflashmpactflash$494       compactflash
C:   00000096  C$compactflash.c$26$1_0$39         compactflash
C:   00000096  C$compactflash.c$28$1_0$39         compactflash
C:   00000096  G$cfWaitDataReady$0$0              compactflash
ASxxxx Linker V03.00 + NoICE + sdld,  page 20.
Hexadecimal  [32-Bits]

Area                                    Addr        Size        Decimal Bytes (Attributes)
--------------------------------        ----        ----        ------- ----- ------------
CSEG                                00000062    00003CB7 =       15543. bytes (REL,CON,CODE)

      Value  Global                              Global Defined In Module
      -----  --------------------------------   ------------------------
C:   00000096  _cfWaitDataReady                   compactflash
C:   00000099  A$compactflashmpactflash$495       compactflash
C:   0000009A  A$compactflashmpactflash$496       compactflash
C:   0000009B  A$compactflashmpactflash$497       compactflash
C:   0000009E  A$compactflashmpactflash$498       compactflash
C:   000000A0  A$compactflashmpactflash$499       compactflash
C:   000000A3  A$compactflashmpactflash$500       compactflash
C:   000000A6  A$compactflashmpactflash$505       compactflash
C:   000000A6  C$compactflash.c$29$1_0$39         compactflash
C:   000000A6  XG$cfWaitDataReady$0$0             compactflash
C:   000000A7  A$compactflashmpactflash$524       compactflash
C:   000000A7  C$compactflash.c$31$1_0$41         compactflash
C:   000000A7  G$cfReadSector$0$0                 compactflash
C:   000000A7  _cfReadSector                      compactflash
C:   000000A9  A$compactflashmpactflash$525       compactflash
C:   000000AB  A$compactflashmpactflash$526       compactflash
C:   000000AD  A$compactflashmpactflash$527       compactflash
C:   000000AF  A$compactflashmpactflash$528       compactflash
C:   000000B1  A$compactflashmpactflash$529       compactflash
C:   000000B3  A$compactflashmpactflash$532       compactflash
C:   000000B3  C$compactflash.c$37$1_0$41         compactflash
C:   000000B6  A$compactflashmpactflash$533       compactflash
C:   000000B8  A$compactflashmpactflash$534       compactflash
C:   000000B9  A$compactflashmpactflash$537       compactflash
C:   000000B9  C$compactflash.c$39$1_0$41         compactflash
C:   000000BB  A$compactflashmpactflash$538       compactflash
C:   000000BD  A$compactflashmpactflash$539       compactflash
C:   000000C0  A$compactflashmpactflash$540       compactflash
C:   000000C2  A$compactflashmpactflash$543       compactflash
C:   000000C2  C$compactflash.c$41$1_0$41         compactflash
C:   000000C4  A$compactflashmpactflash$544       compactflash
C:   000000C6  A$compactflashmpactflash$545       compactflash
C:   000000C7  A$compactflashmpactflash$546       compactflash
C:   000000C9  A$compactflashmpactflash$547       compactflash
C:   000000CC  A$compactflashmpactflash$548       compactflash
C:   000000CD  A$compactflashmpactflash$549       compactflash
C:   000000CE  A$compactflashmpactflash$552       compactflash
C:   000000CE  C$compactflash.c$43$1_0$41         compactflash
C:   000000D0  A$compactflashmpactflash$553       compactflash
C:   000000D2  A$compactflashmpactflash$554       compactflash
C:   000000D5  A$compactflashmpactflash$557       compactflash
C:   000000D5  C$compactflash.c$45$1_0$41         compactflash
C:   000000D7  A$compactflashmpactflash$558       compactflash
C:   000000D9  A$compactflashmpactflash$559       compactflash
C:   000000DA  A$compactflashmpactflash$560       compactflash
C:   000000DB  A$compactflashmpactflash$561       compactflash
C:   000000DD  A$compactflashmpactflash$562       compactflash
C:   000000E0  A$compactflashmpactflash$563       compactflash
C:   000000E1  A$compactflashmpactflash$564       compactflash
C:   000000E2  A$compactflashmpactflash$567       compactflash
C:   000000E2  C$compactflash.c$47$1_0$41         compactflash
ASxxxx Linker V03.00 + NoICE + sdld,  page 21.
Hexadecimal  [32-Bits]

Area                                    Addr        Size        Decimal Bytes (Attributes)
--------------------------------        ----        ----        ------- ----- ------------
CSEG                                00000062    00003CB7 =       15543. bytes (REL,CON,CODE)

      Value  Global                              Global Defined In Module
      -----  --------------------------------   ------------------------
C:   000000E4  A$compactflashmpactflash$568       compactflash
C:   000000E6  A$compactflashmpactflash$569       compactflash
C:   000000E8  A$compactflashmpactflash$570       compactflash
C:   000000EA  A$compactflashmpactflash$571       compactflash
C:   000000EC  A$compactflashmpactflash$572       compactflash
C:   000000EE  A$compactflashmpactflash$573       compactflash
C:   000000F1  A$compactflashmpactflash$574       compactflash
C:   000000F4  A$compactflashmpactflash$575       compactflash
C:   000000F6  A$compactflashmpactflash$576       compactflash
C:   000000F8  A$compactflashmpactflash$577       compactflash
C:   000000FA  A$compactflashmpactflash$578       compactflash
C:   000000FC  A$compactflashmpactflash$581       compactflash
C:   000000FC  C$compactflash.c$48$1_0$41         compactflash
C:   000000FE  A$compactflashmpactflash$582       compactflash
C:   00000100  A$compactflashmpactflash$583       compactflash
C:   00000103  A$compactflashmpactflash$584       compactflash
C:   00000105  A$compactflashmpactflash$587       compactflash
C:   00000105  C$compactflash.c$50$1_0$41         compactflash
C:   00000107  A$compactflashmpactflash$588       compactflash
C:   00000109  A$compactflashmpactflash$589       compactflash
C:   0000010A  A$compactflashmpactflash$590       compactflash
C:   0000010B  A$compactflashmpactflash$591       compactflash
C:   0000010C  A$compactflashmpactflash$592       compactflash
C:   0000010E  A$compactflashmpactflash$593       compactflash
C:   00000111  A$compactflashmpactflash$594       compactflash
C:   00000112  A$compactflashmpactflash$595       compactflash
C:   00000113  A$compactflashmpactflash$598       compactflash
C:   00000113  C$compactflash.c$52$1_0$41         compactflash
C:   00000115  A$compactflashmpactflash$599       compactflash
C:   00000117  A$compactflashmpactflash$600       compactflash
C:   0000011A  A$compactflashmpactflash$603       compactflash
C:   0000011A  C$compactflash.c$54$1_0$41         compactflash
C:   0000011C  A$compactflashmpactflash$604       compactflash
C:   0000011E  A$compactflashmpactflash$605       compactflash
C:   0000011F  A$compactflashmpactflash$606       compactflash
C:   00000120  A$compactflashmpactflash$607       compactflash
C:   00000121  A$compactflashmpactflash$608       compactflash
C:   00000122  A$compactflashmpactflash$609       compactflash
C:   00000124  A$compactflashmpactflash$610       compactflash
C:   00000127  A$compactflashmpactflash$611       compactflash
C:   0000012A  A$compactflashmpactflash$612       compactflash
C:   0000012D  A$compactflashmpactflash$613       compactflash
C:   0000012E  A$compactflashmpactflash$614       compactflash
C:   0000012F  A$compactflashmpactflash$617       compactflash
C:   0000012F  C$compactflash.c$56$1_0$41         compactflash
C:   00000131  A$compactflashmpactflash$618       compactflash
C:   00000133  A$compactflashmpactflash$619       compactflash
C:   00000135  A$compactflashmpactflash$620       compactflash
C:   00000137  A$compactflashmpactflash$621       compactflash
C:   00000139  A$compactflashmpactflash$622       compactflash
C:   0000013B  A$compactflashmpactflash$623       compactflash
ASxxxx Linker V03.00 + NoICE + sdld,  page 22.
Hexadecimal  [32-Bits]

Area                                    Addr        Size        Decimal Bytes (Attributes)
--------------------------------        ----        ----        ------- ----- ------------
CSEG                                00000062    00003CB7 =       15543. bytes (REL,CON,CODE)

      Value  Global                              Global Defined In Module
      -----  --------------------------------   ------------------------
C:   0000013E  A$compactflashmpactflash$624       compactflash
C:   00000141  A$compactflashmpactflash$625       compactflash
C:   00000143  A$compactflashmpactflash$626       compactflash
C:   00000145  A$compactflashmpactflash$627       compactflash
C:   00000147  A$compactflashmpactflash$628       compactflash
C:   00000149  A$compactflashmpactflash$631       compactflash
C:   00000149  C$compactflash.c$58$2_0$42         compactflash
C:   0000014B  A$compactflashmpactflash$632       compactflash
C:   0000014D  A$compactflashmpactflash$633       compactflash
C:   0000014E  A$compactflashmpactflash$634       compactflash
C:   0000014F  A$compactflashmpactflash$635       compactflash
C:   00000150  A$compactflashmpactflash$636       compactflash
C:   00000151  A$compactflashmpactflash$637       compactflash
C:   00000152  A$compactflashmpactflash$638       compactflash
C:   00000154  A$compactflashmpactflash$639       compactflash
C:   00000156  A$compactflashmpactflash$640       compactflash
C:   00000157  A$compactflashmpactflash$641       compactflash
C:   00000159  A$compactflashmpactflash$642       compactflash
C:   0000015A  A$compactflashmpactflash$643       compactflash
C:   0000015C  A$compactflashmpactflash$645       compactflash
C:   0000015E  A$compactflashmpactflash$646       compactflash
C:   00000160  A$compactflashmpactflash$647       compactflash
C:   00000161  A$compactflashmpactflash$648       compactflash
C:   00000164  A$compactflashmpactflash$649       compactflash
C:   00000165  A$compactflashmpactflash$651       compactflash
C:   00000166  A$compactflashmpactflash$652       compactflash
C:   00000167  A$compactflashmpactflash$653       compactflash
C:   00000169  A$compactflashmpactflash$654       compactflash
C:   0000016C  A$compactflashmpactflash$658       compactflash
C:   0000016C  C$compactflash.c$60$2_0$42         compactflash
C:   0000016E  A$compactflashmpactflash$659       compactflash
C:   00000170  A$compactflashmpactflash$660       compactflash
C:   00000172  A$compactflashmpactflash$661       compactflash
C:   00000174  A$compactflashmpactflash$662       compactflash
C:   00000176  A$compactflashmpactflash$663       compactflash
C:   00000178  A$compactflashmpactflash$664       compactflash
C:   0000017A  A$compactflashmpactflash$665       compactflash
C:   0000017C  A$compactflashmpactflash$666       compactflash
C:   0000017E  A$compactflashmpactflash$667       compactflash
C:   00000181  A$compactflashmpactflash$668       compactflash
C:   00000184  A$compactflashmpactflash$669       compactflash
C:   00000186  A$compactflashmpactflash$670       compactflash
C:   00000188  A$compactflashmpactflash$671       compactflash
C:   0000018A  A$compactflashmpactflash$672       compactflash
C:   0000018C  A$compactflashmpactflash$673       compactflash
C:   0000018E  A$compactflashmpactflash$674       compactflash
C:   00000190  A$compactflashmpactflash$680       compactflash
C:   00000190  C$compactflash.c$61$2_0$42         compactflash
C:   00000190  C$compactflash.c$63$3_0$43         compactflash
C:   00000192  A$compactflashmpactflash$681       compactflash
C:   00000194  A$compactflashmpactflash$682       compactflash
ASxxxx Linker V03.00 + NoICE + sdld,  page 23.
Hexadecimal  [32-Bits]

Area                                    Addr        Size        Decimal Bytes (Attributes)
--------------------------------        ----        ----        ------- ----- ------------
CSEG                                00000062    00003CB7 =       15543. bytes (REL,CON,CODE)

      Value  Global                              Global Defined In Module
      -----  --------------------------------   ------------------------
C:   00000196  A$compactflashmpactflash$683       compactflash
C:   00000198  A$compactflashmpactflash$684       compactflash
C:   0000019A  A$compactflashmpactflash$685       compactflash
C:   0000019C  A$compactflashmpactflash$686       compactflash
C:   0000019E  A$compactflashmpactflash$687       compactflash
C:   000001A0  A$compactflashmpactflash$688       compactflash
C:   000001A2  A$compactflashmpactflash$689       compactflash
C:   000001A5  A$compactflashmpactflash$690       compactflash
C:   000001A8  A$compactflashmpactflash$691       compactflash
C:   000001AA  A$compactflashmpactflash$692       compactflash
C:   000001AC  A$compactflashmpactflash$693       compactflash
C:   000001AE  A$compactflashmpactflash$694       compactflash
C:   000001B0  A$compactflashmpactflash$695       compactflash
C:   000001B2  A$compactflashmpactflash$696       compactflash
C:   000001B4  A$compactflashmpactflash$699       compactflash
C:   000001B4  C$compactflash.c$64$3_0$43         compactflash
C:   000001B6  A$compactflashmpactflash$700       compactflash
C:   000001B8  A$compactflashmpactflash$701       compactflash
C:   000001BA  A$compactflashmpactflash$702       compactflash
C:   000001BC  A$compactflashmpactflash$703       compactflash
C:   000001BF  A$compactflashmpactflash$706       compactflash
C:   000001BF  C$compactflash.c$66$3_0$43         compactflash
C:   000001C1  A$compactflashmpactflash$707       compactflash
C:   000001C3  A$compactflashmpactflash$708       compactflash
C:   000001C5  A$compactflashmpactflash$709       compactflash
C:   000001C7  A$compactflashmpactflash$710       compactflash
C:   000001C9  A$compactflashmpactflash$711       compactflash
C:   000001CB  A$compactflashmpactflash$712       compactflash
C:   000001CE  A$compactflashmpactflash$713       compactflash
C:   000001D1  A$compactflashmpactflash$714       compactflash
C:   000001D3  A$compactflashmpactflash$715       compactflash
C:   000001D5  A$compactflashmpactflash$716       compactflash
C:   000001D7  A$compactflashmpactflash$719       compactflash
C:   000001D7  C$compactflash.c$67$3_0$43         compactflash
C:   000001DA  A$compactflashmpactflash$720       compactflash
C:   000001DC  A$compactflashmpactflash$721       compactflash
C:   000001DD  A$compactflashmpactflash$724       compactflash
C:   000001DD  C$compactflash.c$69$3_0$43         compactflash
C:   000001DF  A$compactflashmpactflash$725       compactflash
C:   000001E1  A$compactflashmpactflash$726       compactflash
C:   000001E3  A$compactflashmpactflash$727       compactflash
C:   000001E5  A$compactflashmpactflash$728       compactflash
C:   000001E7  A$compactflashmpactflash$729       compactflash
C:   000001E9  A$compactflashmpactflash$730       compactflash
C:   000001EC  A$compactflashmpactflash$731       compactflash
C:   000001EF  A$compactflashmpactflash$732       compactflash
C:   000001F1  A$compactflashmpactflash$733       compactflash
C:   000001F3  A$compactflashmpactflash$734       compactflash
C:   000001F5  A$compactflashmpactflash$735       compactflash
C:   000001F7  A$compactflashmpactflash$736       compactflash
C:   000001F9  A$compactflashmpactflash$737       compactflash
ASxxxx Linker V03.00 + NoICE + sdld,  page 24.
Hexadecimal  [32-Bits]

Area                                    Addr        Size        Decimal Bytes (Attributes)
--------------------------------        ----        ----        ------- ----- ------------
CSEG                                00000062    00003CB7 =       15543. bytes (REL,CON,CODE)

      Value  Global                              Global Defined In Module
      -----  --------------------------------   ------------------------
C:   000001FB  A$compactflashmpactflash$740       compactflash
C:   000001FB  C$compactflash.c$70$3_0$43         compactflash
C:   000001FD  A$compactflashmpactflash$741       compactflash
C:   000001FF  A$compactflashmpactflash$742       compactflash
C:   00000201  A$compactflashmpactflash$743       compactflash
C:   00000203  A$compactflashmpactflash$744       compactflash
C:   00000206  A$compactflashmpactflash$745       compactflash
C:   00000208  A$compactflashmpactflash$746       compactflash
C:   0000020A  A$compactflashmpactflash$747       compactflash
C:   0000020C  A$compactflashmpactflash$750       compactflash
C:   0000020C  C$compactflash.c$72$3_0$43         compactflash
C:   0000020F  A$compactflashmpactflash$751       compactflash
C:   00000210  A$compactflashmpactflash$754       compactflash
C:   00000210  C$compactflash.c$74$2_0$42         compactflash
C:   00000211  A$compactflashmpactflash$755       compactflash
C:   00000214  A$compactflashmpactflash$756       compactflash
C:   00000217  A$compactflashmpactflash$760       compactflash
C:   00000217  C$compactflash.c$76$2_0$42         compactflash
C:   00000219  A$compactflashmpactflash$761       compactflash
C:   0000021B  A$compactflashmpactflash$762       compactflash
C:   0000021D  A$compactflashmpactflash$763       compactflash
C:   0000021F  A$compactflashmpactflash$764       compactflash
C:   00000221  A$compactflashmpactflash$765       compactflash
C:   00000223  A$compactflashmpactflash$766       compactflash
C:   00000225  A$compactflashmpactflash$767       compactflash
C:   00000227  A$compactflashmpactflash$768       compactflash
C:   00000229  A$compactflashmpactflash$769       compactflash
C:   0000022C  A$compactflashmpactflash$770       compactflash
C:   0000022F  A$compactflashmpactflash$771       compactflash
C:   00000231  A$compactflashmpactflash$772       compactflash
C:   00000233  A$compactflashmpactflash$773       compactflash
C:   00000235  A$compactflashmpactflash$774       compactflash
C:   00000237  A$compactflashmpactflash$775       compactflash
C:   00000239  A$compactflashmpactflash$776       compactflash
C:   0000023B  A$compactflashmpactflash$779       compactflash
C:   0000023B  C$compactflash.c$78$1_0$41         compactflash
C:   0000023D  A$compactflashmpactflash$780       compactflash
C:   0000023E  A$compactflashmpactflash$781       compactflash
C:   0000023F  A$compactflashmpactflash$782       compactflash
C:   00000240  A$compactflashmpactflash$783       compactflash
C:   00000241  A$compactflashmpactflash$784       compactflash
C:   00000242  A$compactflashmpactflash$786       compactflash
C:   00000244  A$compactflashmpactflash$787       compactflash
C:   00000245  A$compactflashmpactflash$788       compactflash
C:   00000246  A$compactflashmpactflash$789       compactflash
C:   00000247  A$compactflashmpactflash$790       compactflash
C:   00000248  A$compactflashmpactflash$791       compactflash
C:   0000024A  A$compactflashmpactflash$792       compactflash
C:   0000024C  A$compactflashmpactflash$795       compactflash
C:   0000024C  C$compactflash.c$80$1_0$41         compactflash
C:   0000024E  A$compactflashmpactflash$796       compactflash
ASxxxx Linker V03.00 + NoICE + sdld,  page 25.
Hexadecimal  [32-Bits]

Area                                    Addr        Size        Decimal Bytes (Attributes)
--------------------------------        ----        ----        ------- ----- ------------
CSEG                                00000062    00003CB7 =       15543. bytes (REL,CON,CODE)

      Value  Global                              Global Defined In Module
      -----  --------------------------------   ------------------------
C:   00000250  A$compactflashmpactflash$797       compactflash
C:   00000252  A$compactflashmpactflash$798       compactflash
C:   00000254  A$compactflashmpactflash$799       compactflash
C:   00000256  A$compactflashmpactflash$800       compactflash
C:   00000258  A$compactflashmpactflash$801       compactflash
C:   0000025B  A$compactflashmpactflash$802       compactflash
C:   0000025D  A$compactflashmpactflash$803       compactflash
C:   0000025F  A$compactflashmpactflash$804       compactflash
C:   00000261  A$compactflashmpactflash$807       compactflash
C:   00000261  C$compactflash.c$82$3_0$44         compactflash
C:   00000263  A$compactflashmpactflash$808       compactflash
C:   00000264  A$compactflashmpactflash$809       compactflash
C:   00000266  A$compactflashmpactflash$810       compactflash
C:   00000268  A$compactflashmpactflash$811       compactflash
C:   00000269  A$compactflashmpactflash$812       compactflash
C:   0000026A  A$compactflashmpactflash$813       compactflash
C:   0000026B  A$compactflashmpactflash$814       compactflash
C:   0000026C  A$compactflashmpactflash$815       compactflash
C:   0000026D  A$compactflashmpactflash$816       compactflash
C:   0000026E  A$compactflashmpactflash$817       compactflash
C:   0000026F  A$compactflashmpactflash$818       compactflash
C:   00000270  A$compactflashmpactflash$819       compactflash
C:   00000271  A$compactflashmpactflash$820       compactflash
C:   00000273  A$compactflashmpactflash$821       compactflash
C:   00000275  A$compactflashmpactflash$822       compactflash
C:   00000276  A$compactflashmpactflash$823       compactflash
C:   00000277  A$compactflashmpactflash$824       compactflash
C:   00000278  A$compactflashmpactflash$825       compactflash
C:   00000279  A$compactflashmpactflash$826       compactflash
C:   0000027A  A$compactflashmpactflash$827       compactflash
C:   0000027B  A$compactflashmpactflash$828       compactflash
C:   0000027C  A$compactflashmpactflash$829       compactflash
C:   0000027D  A$compactflashmpactflash$830       compactflash
C:   0000027E  A$compactflashmpactflash$831       compactflash
C:   00000280  A$compactflashmpactflash$832       compactflash
C:   00000283  A$compactflashmpactflash$833       compactflash
C:   00000284  A$compactflashmpactflash$834       compactflash
C:   00000285  A$compactflashmpactflash$835       compactflash
C:   00000287  A$compactflashmpactflash$836       compactflash
C:   00000289  A$compactflashmpactflash$837       compactflash
C:   0000028B  A$compactflashmpactflash$838       compactflash
C:   0000028E  A$compactflashmpactflash$841       compactflash
C:   0000028E  C$compactflash.c$84$3_0$44         compactflash
C:   00000290  A$compactflashmpactflash$842       compactflash
C:   00000291  A$compactflashmpactflash$843       compactflash
C:   00000292  A$compactflashmpactflash$844       compactflash
C:   00000295  A$compactflashmpactflash$845       compactflash
C:   00000296  A$compactflashmpactflash$846       compactflash
C:   00000297  A$compactflashmpactflash$848       compactflash
C:   00000299  A$compactflashmpactflash$849       compactflash
C:   0000029B  A$compactflashmpactflash$850       compactflash
ASxxxx Linker V03.00 + NoICE + sdld,  page 26.
Hexadecimal  [32-Bits]

Area                                    Addr        Size        Decimal Bytes (Attributes)
--------------------------------        ----        ----        ------- ----- ------------
CSEG                                00000062    00003CB7 =       15543. bytes (REL,CON,CODE)

      Value  Global                              Global Defined In Module
      -----  --------------------------------   ------------------------
C:   0000029D  A$compactflashmpactflash$854       compactflash
C:   0000029D  C$compactflash.c$86$2_0$42         compactflash
C:   0000029F  A$compactflashmpactflash$855       compactflash
C:   000002A1  A$compactflashmpactflash$856       compactflash
C:   000002A2  A$compactflashmpactflash$857       compactflash
C:   000002A4  A$compactflashmpactflash$858       compactflash
C:   000002A5  A$compactflashmpactflash$859       compactflash
C:   000002A6  A$compactflashmpactflash$860       compactflash
C:   000002A7  A$compactflashmpactflash$863       compactflash
C:   000002A7  C$compactflash.c$87$2_0$42         compactflash
C:   000002A9  A$compactflashmpactflash$864       compactflash
C:   000002AB  A$compactflashmpactflash$865       compactflash
C:   000002AD  A$compactflashmpactflash$866       compactflash
C:   000002AF  A$compactflashmpactflash$867       compactflash
C:   000002B1  A$compactflashmpactflash$868       compactflash
C:   000002B3  A$compactflashmpactflash$869       compactflash
C:   000002B5  A$compactflashmpactflash$870       compactflash
C:   000002B7  A$compactflashmpactflash$871       compactflash
C:   000002B9  A$compactflashmpactflash$872       compactflash
C:   000002BC  A$compactflashmpactflash$873       compactflash
C:   000002BF  A$compactflashmpactflash$874       compactflash
C:   000002C1  A$compactflashmpactflash$875       compactflash
C:   000002C3  A$compactflashmpactflash$876       compactflash
C:   000002C5  A$compactflashmpactflash$877       compactflash
C:   000002C7  A$compactflashmpactflash$878       compactflash
C:   000002C9  A$compactflashmpactflash$879       compactflash
C:   000002CB  A$compactflashmpactflash$880       compactflash
C:   000002CE  A$compactflashmpactflash$884       compactflash
C:   000002CE  C$compactflash.c$90$1_0$41         compactflash
C:   000002D0  A$compactflashmpactflash$885       compactflash
C:   000002D2  A$compactflashmpactflash$886       compactflash
C:   000002D4  A$compactflashmpactflash$887       compactflash
C:   000002D6  A$compactflashmpactflash$888       compactflash
C:   000002D8  A$compactflashmpactflash$889       compactflash
C:   000002DA  A$compactflashmpactflash$890       compactflash
C:   000002DD  A$compactflashmpactflash$891       compactflash
C:   000002E0  A$compactflashmpactflash$892       compactflash
C:   000002E2  A$compactflashmpactflash$893       compactflash
C:   000002E4  A$compactflashmpactflash$894       compactflash
C:   000002E6  A$compactflashmpactflash$897       compactflash
C:   000002E9  A$compactflashmpactflash$898       compactflash
C:   000002EB  A$compactflashmpactflash$901       compactflash
C:   000002EB  C$compactflash.c$91$1_0$41         compactflash
C:   000002EB  XG$cfReadSector$0$0                compactflash
C:   000002EC  A$compactflashmpactflash$920       compactflash
C:   000002EC  C$compactflash.c$93$1_0$46         compactflash
C:   000002EC  G$cfWriteSector$0$0                compactflash
C:   000002EC  _cfWriteSector                     compactflash
C:   000002EE  A$compactflashmpactflash$921       compactflash
C:   000002F1  A$compactflashmpactflash$922       compactflash
C:   000002F3  A$compactflashmpactflash$923       compactflash
ASxxxx Linker V03.00 + NoICE + sdld,  page 27.
Hexadecimal  [32-Bits]

Area                                    Addr        Size        Decimal Bytes (Attributes)
--------------------------------        ----        ----        ------- ----- ------------
CSEG                                00000062    00003CB7 =       15543. bytes (REL,CON,CODE)

      Value  Global                              Global Defined In Module
      -----  --------------------------------   ------------------------
C:   000002F5  A$compactflashmpactflash$928       compactflash
C:   000002F5  C$compactflash.c$100$1_0$46        compactflash
C:   000002F5  C$compactflash.c$99$1_0$46         compactflash
C:   000002F7  A$compactflashmpactflash$929       compactflash
C:   000002FA  A$compactflashmpactflash$930       compactflash
C:   000002FC  A$compactflashmpactflash$931       compactflash
C:   000002FF  A$compactflashmpactflash$932       compactflash
C:   00000301  A$compactflashmpactflash$935       compactflash
C:   00000301  C$compactflash.c$102$1_0$46        compactflash
C:   00000304  A$compactflashmpactflash$938       compactflash
C:   00000304  C$compactflash.c$103$1_0$46        compactflash
C:   00000307  A$compactflashmpactflash$939       compactflash
C:   00000309  A$compactflashmpactflash$940       compactflash
C:   0000030A  A$compactflashmpactflash$943       compactflash
C:   0000030A  C$compactflash.c$105$1_0$46        compactflash
C:   0000030D  A$compactflashmpactflash$946       compactflash
C:   0000030D  C$compactflash.c$106$1_0$46        compactflash
C:   0000030F  A$compactflashmpactflash$947       compactflash
C:   00000311  A$compactflashmpactflash$948       compactflash
C:   00000314  A$compactflashmpactflash$949       compactflash
C:   00000316  A$compactflashmpactflash$952       compactflash
C:   00000316  C$compactflash.c$108$1_0$46        compactflash
C:   00000319  A$compactflashmpactflash$955       compactflash
C:   00000319  C$compactflash.c$109$1_0$46        compactflash
C:   0000031B  A$compactflashmpactflash$956       compactflash
C:   0000031D  A$compactflashmpactflash$957       compactflash
C:   0000031E  A$compactflashmpactflash$958       compactflash
C:   00000320  A$compactflashmpactflash$959       compactflash
C:   00000323  A$compactflashmpactflash$960       compactflash
C:   00000324  A$compactflashmpactflash$961       compactflash
C:   00000325  A$compactflashmpactflash$964       compactflash
C:   00000325  C$compactflash.c$111$1_0$46        compactflash
C:   00000328  A$compactflashmpactflash$967       compactflash
C:   00000328  C$compactflash.c$112$1_0$46        compactflash
C:   0000032A  A$compactflashmpactflash$968       compactflash
C:   0000032C  A$compactflashmpactflash$969       compactflash
C:   0000032F  A$compactflashmpactflash$970       compactflash
C:   00000331  A$compactflashmpactflash$973       compactflash
C:   00000331  C$compactflash.c$114$1_0$46        compactflash
C:   00000334  A$compactflashmpactflash$976       compactflash
C:   00000334  C$compactflash.c$115$1_0$46        compactflash
C:   00000336  A$compactflashmpactflash$977       compactflash
C:   00000338  A$compactflashmpactflash$978       compactflash
C:   00000339  A$compactflashmpactflash$979       compactflash
C:   0000033A  A$compactflashmpactflash$980       compactflash
C:   0000033C  A$compactflashmpactflash$981       compactflash
C:   0000033F  A$compactflashmpactflash$982       compactflash
C:   00000340  A$compactflashmpactflash$983       compactflash
C:   00000341  A$compactflashmpactflash$986       compactflash
C:   00000341  C$compactflash.c$117$1_0$46        compactflash
C:   00000344  A$compactflashmpactflash$989       compactflash
ASxxxx Linker V03.00 + NoICE + sdld,  page 28.
Hexadecimal  [32-Bits]

Area                                    Addr        Size        Decimal Bytes (Attributes)
--------------------------------        ----        ----        ------- ----- ------------
CSEG                                00000062    00003CB7 =       15543. bytes (REL,CON,CODE)

      Value  Global                              Global Defined In Module
      -----  --------------------------------   ------------------------
C:   00000344  C$compactflash.c$118$1_0$46        compactflash
C:   00000346  A$compactflashmpactflash$990       compactflash
C:   00000348  A$compactflashmpactflash$991       compactflash
C:   0000034B  A$compactflashmpactflash$992       compactflash
C:   0000034D  A$compactflashmpactflash$995       compactflash
C:   0000034D  C$compactflash.c$120$1_0$46        compactflash
C:   00000350  A$compactflashmpactflash$998       compactflash
C:   00000350  C$compactflash.c$121$1_0$46        compactflash
C:   00000352  A$compactflashmpactflash$999       compactflash
C:   00000354  A$compactflashmpactflash$1000      compactflash
C:   00000355  A$compactflashmpactflash$1001      compactflash
C:   00000356  A$compactflashmpactflash$1002      compactflash
C:   00000357  A$compactflashmpactflash$1003      compactflash
C:   00000359  A$compactflashmpactflash$1004      compactflash
C:   0000035C  A$compactflashmpactflash$1005      compactflash
C:   0000035D  A$compactflashmpactflash$1006      compactflash
C:   0000035E  A$compactflashmpactflash$1009      compactflash
C:   0000035E  C$compactflash.c$123$1_0$46        compactflash
C:   00000361  A$compactflashmpactflash$1012      compactflash
C:   00000361  C$compactflash.c$124$1_0$46        compactflash
C:   00000363  A$compactflashmpactflash$1013      compactflash
C:   00000365  A$compactflashmpactflash$1014      compactflash
C:   00000368  A$compactflashmpactflash$1015      compactflash
C:   0000036A  A$compactflashmpactflash$1018      compactflash
C:   0000036A  C$compactflash.c$126$1_0$46        compactflash
C:   0000036D  A$compactflashmpactflash$1021      compactflash
C:   0000036D  C$compactflash.c$127$1_0$46        compactflash
C:   0000036F  A$compactflashmpactflash$1022      compactflash
C:   00000371  A$compactflashmpactflash$1023      compactflash
C:   00000372  A$compactflashmpactflash$1024      compactflash
C:   00000373  A$compactflashmpactflash$1025      compactflash
C:   00000374  A$compactflashmpactflash$1026      compactflash
C:   00000375  A$compactflashmpactflash$1027      compactflash
C:   00000377  A$compactflashmpactflash$1028      compactflash
C:   00000379  A$compactflashmpactflash$1029      compactflash
C:   0000037C  A$compactflashmpactflash$1030      compactflash
C:   0000037F  A$compactflashmpactflash$1031      compactflash
C:   00000380  A$compactflashmpactflash$1032      compactflash
C:   00000381  A$compactflashmpactflash$1035      compactflash
C:   00000381  C$compactflash.c$130$1_0$46        compactflash
C:   00000383  A$compactflashmpactflash$1036      compactflash
C:   00000384  A$compactflashmpactflash$1037      compactflash
C:   00000385  A$compactflashmpactflash$1038      compactflash
C:   00000386  A$compactflashmpactflash$1039      compactflash
C:   00000387  A$compactflashmpactflash$1040      compactflash
C:   00000388  A$compactflashmpactflash$1041      compactflash
C:   0000038A  A$compactflashmpactflash$1042      compactflash
C:   0000038C  A$compactflashmpactflash$1043      compactflash
C:   0000038D  A$compactflashmpactflash$1044      compactflash
C:   0000038F  A$compactflashmpactflash$1045      compactflash
C:   00000390  A$compactflashmpactflash$1046      compactflash
ASxxxx Linker V03.00 + NoICE + sdld,  page 29.
Hexadecimal  [32-Bits]

Area                                    Addr        Size        Decimal Bytes (Attributes)
--------------------------------        ----        ----        ------- ----- ------------
CSEG                                00000062    00003CB7 =       15543. bytes (REL,CON,CODE)

      Value  Global                              Global Defined In Module
      -----  --------------------------------   ------------------------
C:   00000392  A$compactflashmpactflash$1048      compactflash
C:   00000394  A$compactflashmpactflash$1049      compactflash
C:   00000396  A$compactflashmpactflash$1050      compactflash
C:   00000397  A$compactflashmpactflash$1051      compactflash
C:   0000039A  A$compactflashmpactflash$1052      compactflash
C:   0000039B  A$compactflashmpactflash$1054      compactflash
C:   0000039C  A$compactflashmpactflash$1055      compactflash
C:   0000039D  A$compactflashmpactflash$1056      compactflash
C:   0000039F  A$compactflashmpactflash$1057      compactflash
C:   000003A2  A$compactflashmpactflash$1064      compactflash
C:   000003A2  C$compactflash.c$132$2_0$47        compactflash
C:   000003A2  C$compactflash.c$134$3_0$48        compactflash
C:   000003A5  A$compactflashmpactflash$1067      compactflash
C:   000003A5  C$compactflash.c$135$3_0$48        compactflash
C:   000003A7  A$compactflashmpactflash$1068      compactflash
C:   000003A9  A$compactflashmpactflash$1069      compactflash
C:   000003AB  A$compactflashmpactflash$1070      compactflash
C:   000003AD  A$compactflashmpactflash$1071      compactflash
C:   000003B0  A$compactflashmpactflash$1072      compactflash
C:   000003B2  A$compactflashmpactflash$1073      compactflash
C:   000003B4  A$compactflashmpactflash$1074      compactflash
C:   000003B6  A$compactflashmpactflash$1077      compactflash
C:   000003B6  C$compactflash.c$137$3_0$48        compactflash
C:   000003B9  A$compactflashmpactflash$1080      compactflash
C:   000003B9  C$compactflash.c$138$3_0$48        compactflash
C:   000003BC  A$compactflashmpactflash$1081      compactflash
C:   000003BE  A$compactflashmpactflash$1082      compactflash
C:   000003BF  A$compactflashmpactflash$1085      compactflash
C:   000003BF  C$compactflash.c$140$3_0$48        compactflash
C:   000003C2  A$compactflashmpactflash$1088      compactflash
C:   000003C2  C$compactflash.c$141$3_0$48        compactflash
C:   000003C4  A$compactflashmpactflash$1089      compactflash
C:   000003C6  A$compactflashmpactflash$1090      compactflash
C:   000003C8  A$compactflashmpactflash$1091      compactflash
C:   000003CA  A$compactflashmpactflash$1092      compactflash
C:   000003CD  A$compactflashmpactflash$1093      compactflash
C:   000003CF  A$compactflashmpactflash$1094      compactflash
C:   000003D1  A$compactflashmpactflash$1095      compactflash
C:   000003D3  A$compactflashmpactflash$1098      compactflash
C:   000003D3  C$compactflash.c$143$3_0$48        compactflash
C:   000003D6  A$compactflashmpactflash$1101      compactflash
C:   000003D6  C$compactflash.c$144$3_0$48        compactflash
C:   000003D9  A$compactflashmpactflash$1102      compactflash
C:   000003DA  A$compactflashmpactflash$1107      compactflash
C:   000003DA  C$compactflash.c$146$3_0$48        compactflash
C:   000003DA  C$compactflash.c$148$2_0$47        compactflash
C:   000003DD  A$compactflashmpactflash$1108      compactflash
C:   000003E0  A$compactflashmpactflash$1111      compactflash
C:   000003E0  C$compactflash.c$151$1_0$46        compactflash
C:   000003E2  A$compactflashmpactflash$1112      compactflash
C:   000003E4  A$compactflashmpactflash$1114      compactflash
ASxxxx Linker V03.00 + NoICE + sdld,  page 30.
Hexadecimal  [32-Bits]

Area                                    Addr        Size        Decimal Bytes (Attributes)
--------------------------------        ----        ----        ------- ----- ------------
CSEG                                00000062    00003CB7 =       15543. bytes (REL,CON,CODE)

      Value  Global                              Global Defined In Module
      -----  --------------------------------   ------------------------
C:   000003E6  A$compactflashmpactflash$1115      compactflash
C:   000003E7  A$compactflashmpactflash$1116      compactflash
C:   000003E9  A$compactflashmpactflash$1119      compactflash
C:   000003E9  C$compactflash.c$153$1_0$46        compactflash
C:   000003EB  A$compactflashmpactflash$1120      compactflash
C:   000003ED  A$compactflashmpactflash$1121      compactflash
C:   000003F0  A$compactflashmpactflash$1124      compactflash
C:   000003F0  C$compactflash.c$154$3_0$49        compactflash
C:   000003F2  A$compactflashmpactflash$1125      compactflash
C:   000003F4  A$compactflashmpactflash$1126      compactflash
C:   000003F6  A$compactflashmpactflash$1127      compactflash
C:   000003F8  A$compactflashmpactflash$1128      compactflash
C:   000003FA  A$compactflashmpactflash$1129      compactflash
C:   000003FC  A$compactflashmpactflash$1130      compactflash
C:   000003FF  A$compactflashmpactflash$1131      compactflash
C:   00000401  A$compactflashmpactflash$1132      compactflash
C:   00000403  A$compactflashmpactflash$1133      compactflash
C:   00000405  A$compactflashmpactflash$1134      compactflash
C:   00000407  A$compactflashmpactflash$1135      compactflash
C:   00000409  A$compactflashmpactflash$1138      compactflash
C:   00000409  C$compactflash.c$156$3_0$49        compactflash
C:   0000040C  A$compactflashmpactflash$1141      compactflash
C:   0000040C  C$compactflash.c$157$3_0$49        compactflash
C:   0000040E  A$compactflashmpactflash$1142      compactflash
C:   0000040F  A$compactflashmpactflash$1143      compactflash
C:   00000410  A$compactflashmpactflash$1144      compactflash
C:   00000411  A$compactflashmpactflash$1145      compactflash
C:   00000412  A$compactflashmpactflash$1146      compactflash
C:   00000413  A$compactflashmpactflash$1147      compactflash
C:   00000414  A$compactflashmpactflash$1148      compactflash
C:   00000415  A$compactflashmpactflash$1149      compactflash
C:   00000416  A$compactflashmpactflash$1150      compactflash
C:   00000418  A$compactflashmpactflash$1151      compactflash
C:   0000041A  A$compactflashmpactflash$1152      compactflash
C:   0000041B  A$compactflashmpactflash$1153      compactflash
C:   0000041C  A$compactflashmpactflash$1154      compactflash
C:   0000041D  A$compactflashmpactflash$1155      compactflash
C:   0000041E  A$compactflashmpactflash$1156      compactflash
C:   0000041F  A$compactflashmpactflash$1157      compactflash
C:   00000420  A$compactflashmpactflash$1158      compactflash
C:   00000421  A$compactflashmpactflash$1159      compactflash
C:   00000422  A$compactflashmpactflash$1160      compactflash
C:   00000423  A$compactflashmpactflash$1161      compactflash
C:   00000425  A$compactflashmpactflash$1162      compactflash
C:   00000427  A$compactflashmpactflash$1163      compactflash
C:   00000429  A$compactflashmpactflash$1164      compactflash
C:   0000042B  A$compactflashmpactflash$1165      compactflash
C:   0000042E  A$compactflashmpactflash$1166      compactflash
C:   0000042F  A$compactflashmpactflash$1167      compactflash
C:   00000432  A$compactflashmpactflash$1168      compactflash
C:   00000433  A$compactflashmpactflash$1171      compactflash
ASxxxx Linker V03.00 + NoICE + sdld,  page 31.
Hexadecimal  [32-Bits]

Area                                    Addr        Size        Decimal Bytes (Attributes)
--------------------------------        ----        ----        ------- ----- ------------
CSEG                                00000062    00003CB7 =       15543. bytes (REL,CON,CODE)

      Value  Global                              Global Defined In Module
      -----  --------------------------------   ------------------------
C:   00000433  C$compactflash.c$159$3_0$49        compactflash
C:   00000434  A$compactflashmpactflash$1172      compactflash
C:   00000437  A$compactflashmpactflash$1173      compactflash
C:   00000438  A$compactflashmpactflash$1177      compactflash
C:   00000438  C$compactflash.c$161$3_0$49        compactflash
C:   0000043B  A$compactflashmpactflash$1178      compactflash
C:   0000043D  A$compactflashmpactflash$1179      compactflash
C:   0000043F  A$compactflashmpactflash$1180      compactflash
C:   00000441  A$compactflashmpactflash$1184      compactflash
C:   00000441  C$compactflash.c$163$2_0$47        compactflash
C:   00000443  A$compactflashmpactflash$1185      compactflash
C:   00000444  A$compactflashmpactflash$1186      compactflash
C:   00000446  A$compactflashmpactflash$1187      compactflash
C:   00000447  A$compactflashmpactflash$1188      compactflash
C:   00000448  A$compactflashmpactflash$1189      compactflash
C:   00000449  A$compactflashmpactflash$1190      compactflash
C:   0000044C  A$compactflashmpactflash$1194      compactflash
C:   0000044C  C$compactflash.c$166$1_0$46        compactflash
C:   0000044F  A$compactflashmpactflash$1197      compactflash
C:   00000452  A$compactflashmpactflash$1198      compactflash
C:   00000454  A$compactflashmpactflash$1201      compactflash
C:   00000454  C$compactflash.c$167$1_0$46        compactflash
C:   00000454  XG$cfWriteSector$0$0               compactflash
C:   00000455  A$compactflashmpactflash$1216      compactflash
C:   00000455  C$compactflash.c$169$1_0$51        compactflash
C:   00000455  C$compactflash.c$171$1_0$51        compactflash
C:   00000455  G$cfDiskGetSectorCount$0$0         compactflash
C:   00000455  _cfDiskGetSectorCount              compactflash
C:   00000458  A$compactflashmpactflash$1217      compactflash
C:   00000459  A$compactflashmpactflash$1218      compactflash
C:   0000045B  A$compactflashmpactflash$1223      compactflash
C:   0000045B  C$compactflash.c$172$1_0$51        compactflash
C:   0000045B  XG$cfDiskGetSectorCount$0$0        compactflash
C:   0000045C  A$delayebug\delay$400              delay
C:   0000045C  C$delay.c$26$1_0$4                 delay
C:   0000045C  C$delay.c$5$0_0$4                  delay
C:   0000045C  G$delay_us$0$0                     delay
C:   0000045C  _delay_us                          delay
C:   0000045E  A$delayebug\delay$401              delay
C:   00000460  A$delayebug\delay$402              delay
C:   00000462  A$delayebug\delay$403              delay
C:   00000463  A$delayebug\delay$404              delay
C:   00000465  A$delayebug\delay$405              delay
C:   00000467  A$delayebug\delay$406              delay
C:   00000468  A$delayebug\delay$407              delay
C:   0000046A  A$delayebug\delay$408              delay
C:   0000046C  A$delayebug\delay$410              delay
C:   0000046E  A$delayebug\delay$412              delay
C:   00000470  A$delayebug\delay$413              delay
C:   00000472  A$delayebug\delay$414              delay
C:   00000474  A$delayebug\delay$415              delay
ASxxxx Linker V03.00 + NoICE + sdld,  page 32.
Hexadecimal  [32-Bits]

Area                                    Addr        Size        Decimal Bytes (Attributes)
--------------------------------        ----        ----        ------- ----- ------------
CSEG                                00000062    00003CB7 =       15543. bytes (REL,CON,CODE)

      Value  Global                              Global Defined In Module
      -----  --------------------------------   ------------------------
C:   00000476  A$delayebug\delay$420              delay
C:   00000476  C$delay.c$27$1_0$4                 delay
C:   00000476  XG$delay_us$0$0                    delay
C:   00000477  A$delayebug\delay$435              delay
C:   00000477  C$delay.c$29$1_0$6                 delay
C:   00000477  C$delay.c$57$1_0$6                 delay
C:   00000477  G$delay_ms$0$0                     delay
C:   00000477  _delay_ms                          delay
C:   00000479  A$delayebug\delay$436              delay
C:   0000047B  A$delayebug\delay$437              delay
C:   0000047D  A$delayebug\delay$438              delay
C:   0000047F  A$delayebug\delay$439              delay
C:   00000481  A$delayebug\delay$440              delay
C:   00000482  A$delayebug\delay$441              delay
C:   00000484  A$delayebug\delay$442              delay
C:   00000486  A$delayebug\delay$443              delay
C:   00000487  A$delayebug\delay$444              delay
C:   00000489  A$delayebug\delay$445              delay
C:   0000048B  A$delayebug\delay$447              delay
C:   0000048D  A$delayebug\delay$449              delay
C:   0000048F  A$delayebug\delay$451              delay
C:   00000491  A$delayebug\delay$453              delay
C:   00000493  A$delayebug\delay$454              delay
C:   00000495  A$delayebug\delay$455              delay
C:   00000497  A$delayebug\delay$456              delay
C:   00000499  A$delayebug\delay$457              delay
C:   0000049B  A$delayebug\delay$458              delay
C:   0000049D  A$delayebug\delay$459              delay
C:   0000049F  A$delayebug\delay$460              delay
C:   000004A1  A$delayebug\delay$465              delay
C:   000004A1  C$delay.c$58$1_0$6                 delay
C:   000004A1  XG$delay_ms$0$0                    delay
C:   000004A2  A$led\Debug\led$399                led
C:   000004A2  C$led.c$6$0_0$4                    led
C:   000004A2  C$led.c$8$0_0$4                    led
C:   000004A2  G$ledInit$0$0                      led
C:   000004A2  XG$ledInit$0$0                     led
C:   000004A2  _ledInit                           led
C:   000004A3  A$mainDebug\main$430               main
C:   000004A3  C$main.c$13$1_0$25                 main
C:   000004A3  C$main.c$7$0_0$25                  main
C:   000004A3  G$main$0$0                         main
C:   000004A3  _main                              main
C:   000004A6  A$mainDebug\main$433               main
C:   000004A6  C$main.c$20$2_0$26                 main
C:   000004A9  A$mainDebug\main$434               main
C:   000004AA  A$mainDebug\main$435               main
C:   000004AB  A$mainDebug\main$438               main
C:   000004AB  C$main.c$22$2_0$26                 main
C:   000004AE  A$mainDebug\main$441               main
C:   000004AE  C$main.c$38$2_0$26                 main
ASxxxx Linker V03.00 + NoICE + sdld,  page 33.
Hexadecimal  [32-Bits]

Area                                    Addr        Size        Decimal Bytes (Attributes)
--------------------------------        ----        ----        ------- ----- ------------
CSEG                                00000062    00003CB7 =       15543. bytes (REL,CON,CODE)

      Value  Global                              Global Defined In Module
      -----  --------------------------------   ------------------------
C:   000004B1  A$mainDebug\main$442               main
C:   000004B4  A$mainDebug\main$446               main
C:   000004B4  C$main.c$50$1_0$25                 main
C:   000004B6  A$mainDebug\main$451               main
C:   000004B6  C$main.c$51$1_0$25                 main
C:   000004B6  XG$main$0$0                        main
C:   000004B7  A$diskiobug\pff3a\diskio$419       diskio
C:   000004B7  C$diskio.c$12$0_0$19               diskio
C:   000004B7  C$diskio.c$17$1_0$19               diskio
C:   000004B7  G$disk_initialize$0$0              diskio
C:   000004B7  _disk_initialize                   diskio
C:   000004BA  A$diskiobug\pff3a\diskio$420       diskio
C:   000004BD  A$diskiobug\pff3a\diskio$423       diskio
C:   000004BD  C$diskio.c$20$1_0$19               diskio
C:   000004C0  A$diskiobug\pff3a\diskio$428       diskio
C:   000004C0  C$diskio.c$21$1_0$19               diskio
C:   000004C0  XG$disk_initialize$0$0             diskio
C:   000004C1  A$diskiobug\pff3a\diskio$446       diskio
C:   000004C1  C$diskio.c$29$1_0$21               diskio
C:   000004C1  G$disk_readp$0$0                   diskio
C:   000004C1  _disk_readp                        diskio
C:   000004C3  A$diskiobug\pff3a\diskio$447       diskio
C:   000004C6  A$diskiobug\pff3a\diskio$448       diskio
C:   000004C8  A$diskiobug\pff3a\diskio$449       diskio
C:   000004CA  A$diskiobug\pff3a\diskio$450       diskio
C:   000004CC  A$diskiobug\pff3a\diskio$451       diskio
C:   000004CE  A$diskiobug\pff3a\diskio$452       diskio
C:   000004D0  A$diskiobug\pff3a\diskio$455       diskio
C:   000004D0  C$diskio.c$40$1_0$21               diskio
C:   000004D3  A$diskiobug\pff3a\diskio$456       diskio
C:   000004D4  A$diskiobug\pff3a\diskio$457       diskio
C:   000004D6  A$diskiobug\pff3a\diskio$458       diskio
C:   000004D9  A$diskiobug\pff3a\diskio$459       diskio
C:   000004DA  A$diskiobug\pff3a\diskio$460       diskio
C:   000004DB  A$diskiobug\pff3a\diskio$461       diskio
C:   000004DC  A$diskiobug\pff3a\diskio$462       diskio
C:   000004DD  A$diskiobug\pff3a\diskio$463       diskio
C:   000004DE  A$diskiobug\pff3a\diskio$464       diskio
C:   000004DF  A$diskiobug\pff3a\diskio$465       diskio
C:   000004E0  A$diskiobug\pff3a\diskio$466       diskio
C:   000004E1  A$diskiobug\pff3a\diskio$467       diskio
C:   000004E2  A$diskiobug\pff3a\diskio$468       diskio
C:   000004E3  A$diskiobug\pff3a\diskio$469       diskio
C:   000004E4  A$diskiobug\pff3a\diskio$470       diskio
C:   000004E6  A$diskiobug\pff3a\diskio$471       diskio
C:   000004E8  A$diskiobug\pff3a\diskio$472       diskio
C:   000004E9  A$diskiobug\pff3a\diskio$473       diskio
C:   000004EA  A$diskiobug\pff3a\diskio$474       diskio
C:   000004ED  A$diskiobug\pff3a\diskio$475       diskio
C:   000004EE  A$diskiobug\pff3a\diskio$476       diskio
C:   000004EF  A$diskiobug\pff3a\diskio$477       diskio
ASxxxx Linker V03.00 + NoICE + sdld,  page 34.
Hexadecimal  [32-Bits]

Area                                    Addr        Size        Decimal Bytes (Attributes)
--------------------------------        ----        ----        ------- ----- ------------
CSEG                                00000062    00003CB7 =       15543. bytes (REL,CON,CODE)

      Value  Global                              Global Defined In Module
      -----  --------------------------------   ------------------------
C:   000004F2  A$diskiobug\pff3a\diskio$478       diskio
C:   000004F3  A$diskiobug\pff3a\diskio$479       diskio
C:   000004F4  A$diskiobug\pff3a\diskio$480       diskio
C:   000004F7  A$diskiobug\pff3a\diskio$481       diskio
C:   000004F8  A$diskiobug\pff3a\diskio$482       diskio
C:   000004F9  A$diskiobug\pff3a\diskio$483       diskio
C:   000004FC  A$diskiobug\pff3a\diskio$484       diskio
C:   000004FE  A$diskiobug\pff3a\diskio$489       diskio
C:   000004FE  C$diskio.c$42$2_0$22               diskio
C:   00000500  A$diskiobug\pff3a\diskio$490       diskio
C:   00000502  A$diskiobug\pff3a\diskio$491       diskio
C:   00000503  A$diskiobug\pff3a\diskio$492       diskio
C:   00000505  A$diskiobug\pff3a\diskio$493       diskio
C:   00000507  A$diskiobug\pff3a\diskio$494       diskio
C:   00000509  A$diskiobug\pff3a\diskio$495       diskio
C:   0000050A  A$diskiobug\pff3a\diskio$496       diskio
C:   0000050B  A$diskiobug\pff3a\diskio$497       diskio
C:   0000050D  A$diskiobug\pff3a\diskio$498       diskio
C:   0000050E  A$diskiobug\pff3a\diskio$499       diskio
C:   0000050F  A$diskiobug\pff3a\diskio$500       diskio
C:   00000511  A$diskiobug\pff3a\diskio$501       diskio
C:   00000512  A$diskiobug\pff3a\diskio$502       diskio
C:   00000513  A$diskiobug\pff3a\diskio$503       diskio
C:   00000515  A$diskiobug\pff3a\diskio$504       diskio
C:   00000516  A$diskiobug\pff3a\diskio$505       diskio
C:   00000517  A$diskiobug\pff3a\diskio$506       diskio
C:   00000519  A$diskiobug\pff3a\diskio$507       diskio
C:   0000051B  A$diskiobug\pff3a\diskio$508       diskio
C:   0000051D  A$diskiobug\pff3a\diskio$509       diskio
C:   0000051F  A$diskiobug\pff3a\diskio$510       diskio
C:   00000521  A$diskiobug\pff3a\diskio$511       diskio
C:   00000522  A$diskiobug\pff3a\diskio$512       diskio
C:   00000524  A$diskiobug\pff3a\diskio$513       diskio
C:   00000527  A$diskiobug\pff3a\diskio$514       diskio
C:   0000052A  A$diskiobug\pff3a\diskio$515       diskio
C:   0000052C  A$diskiobug\pff3a\diskio$516       diskio
C:   0000052E  A$diskiobug\pff3a\diskio$517       diskio
C:   00000530  A$diskiobug\pff3a\diskio$520       diskio
C:   00000530  C$diskio.c$43$2_0$22               diskio
C:   00000533  A$diskiobug\pff3a\diskio$521       diskio
C:   00000534  A$diskiobug\pff3a\diskio$522       diskio
C:   00000535  A$diskiobug\pff3a\diskio$525       diskio
C:   00000535  C$diskio.c$44$2_0$22               diskio
C:   00000537  A$diskiobug\pff3a\diskio$526       diskio
C:   00000539  A$diskiobug\pff3a\diskio$527       diskio
C:   0000053A  A$diskiobug\pff3a\diskio$528       diskio
C:   0000053D  A$diskiobug\pff3a\diskio$529       diskio
C:   0000053E  A$diskiobug\pff3a\diskio$530       diskio
C:   0000053F  A$diskiobug\pff3a\diskio$531       diskio
C:   00000540  A$diskiobug\pff3a\diskio$532       diskio
C:   00000541  A$diskiobug\pff3a\diskio$533       diskio
ASxxxx Linker V03.00 + NoICE + sdld,  page 35.
Hexadecimal  [32-Bits]

Area                                    Addr        Size        Decimal Bytes (Attributes)
--------------------------------        ----        ----        ------- ----- ------------
CSEG                                00000062    00003CB7 =       15543. bytes (REL,CON,CODE)

      Value  Global                              Global Defined In Module
      -----  --------------------------------   ------------------------
C:   00000542  A$diskiobug\pff3a\diskio$534       diskio
C:   00000543  A$diskiobug\pff3a\diskio$535       diskio
C:   00000544  A$diskiobug\pff3a\diskio$536       diskio
C:   00000545  A$diskiobug\pff3a\diskio$537       diskio
C:   00000546  A$diskiobug\pff3a\diskio$538       diskio
C:   00000547  A$diskiobug\pff3a\diskio$539       diskio
C:   00000548  A$diskiobug\pff3a\diskio$540       diskio
C:   00000549  A$diskiobug\pff3a\diskio$541       diskio
C:   0000054A  A$diskiobug\pff3a\diskio$542       diskio
C:   0000054B  A$diskiobug\pff3a\diskio$546       diskio
C:   0000054B  C$diskio.c$47$1_0$21               diskio
C:   0000054D  A$diskiobug\pff3a\diskio$547       diskio
C:   0000054F  A$diskiobug\pff3a\diskio$548       diskio
C:   00000550  A$diskiobug\pff3a\diskio$549       diskio
C:   00000551  A$diskiobug\pff3a\diskio$550       diskio
C:   00000552  A$diskiobug\pff3a\diskio$551       diskio
C:   00000553  A$diskiobug\pff3a\diskio$552       diskio
C:   00000554  A$diskiobug\pff3a\diskio$554       diskio
C:   00000556  A$diskiobug\pff3a\diskio$555       diskio
C:   00000558  A$diskiobug\pff3a\diskio$556       diskio
C:   00000559  A$diskiobug\pff3a\diskio$557       diskio
C:   0000055B  A$diskiobug\pff3a\diskio$558       diskio
C:   0000055D  A$diskiobug\pff3a\diskio$559       diskio
C:   0000055E  A$diskiobug\pff3a\diskio$560       diskio
C:   0000055F  A$diskiobug\pff3a\diskio$561       diskio
C:   00000560  A$diskiobug\pff3a\diskio$562       diskio
C:   00000561  A$diskiobug\pff3a\diskio$563       diskio
C:   00000562  A$diskiobug\pff3a\diskio$564       diskio
C:   00000563  A$diskiobug\pff3a\diskio$565       diskio
C:   00000564  A$diskiobug\pff3a\diskio$566       diskio
C:   00000565  A$diskiobug\pff3a\diskio$567       diskio
C:   00000567  A$diskiobug\pff3a\diskio$570       diskio
C:   00000567  C$diskio.c$49$3_0$24               diskio
C:   00000569  A$diskiobug\pff3a\diskio$571       diskio
C:   0000056A  A$diskiobug\pff3a\diskio$572       diskio
C:   0000056C  A$diskiobug\pff3a\diskio$573       diskio
C:   0000056E  A$diskiobug\pff3a\diskio$574       diskio
C:   0000056F  A$diskiobug\pff3a\diskio$575       diskio
C:   00000570  A$diskiobug\pff3a\diskio$576       diskio
C:   00000571  A$diskiobug\pff3a\diskio$577       diskio
C:   00000572  A$diskiobug\pff3a\diskio$578       diskio
C:   00000573  A$diskiobug\pff3a\diskio$579       diskio
C:   00000574  A$diskiobug\pff3a\diskio$580       diskio
C:   00000575  A$diskiobug\pff3a\diskio$581       diskio
C:   00000576  A$diskiobug\pff3a\diskio$582       diskio
C:   00000577  A$diskiobug\pff3a\diskio$583       diskio
C:   00000578  A$diskiobug\pff3a\diskio$584       diskio
C:   0000057A  A$diskiobug\pff3a\diskio$585       diskio
C:   0000057C  A$diskiobug\pff3a\diskio$586       diskio
C:   0000057E  A$diskiobug\pff3a\diskio$587       diskio
C:   0000057F  A$diskiobug\pff3a\diskio$588       diskio
ASxxxx Linker V03.00 + NoICE + sdld,  page 36.
Hexadecimal  [32-Bits]

Area                                    Addr        Size        Decimal Bytes (Attributes)
--------------------------------        ----        ----        ------- ----- ------------
CSEG                                00000062    00003CB7 =       15543. bytes (REL,CON,CODE)

      Value  Global                              Global Defined In Module
      -----  --------------------------------   ------------------------
C:   00000581  A$diskiobug\pff3a\diskio$589       diskio
C:   00000583  A$diskiobug\pff3a\diskio$590       diskio
C:   00000584  A$diskiobug\pff3a\diskio$591       diskio
C:   00000585  A$diskiobug\pff3a\diskio$592       diskio
C:   00000586  A$diskiobug\pff3a\diskio$593       diskio
C:   00000587  A$diskiobug\pff3a\diskio$594       diskio
C:   00000588  A$diskiobug\pff3a\diskio$595       diskio
C:   00000589  A$diskiobug\pff3a\diskio$596       diskio
C:   0000058A  A$diskiobug\pff3a\diskio$597       diskio
C:   0000058B  A$diskiobug\pff3a\diskio$598       diskio
C:   0000058C  A$diskiobug\pff3a\diskio$599       diskio
C:   0000058D  A$diskiobug\pff3a\diskio$600       diskio
C:   0000058F  A$diskiobug\pff3a\diskio$601       diskio
C:   00000591  A$diskiobug\pff3a\diskio$602       diskio
C:   00000592  A$diskiobug\pff3a\diskio$603       diskio
C:   00000594  A$diskiobug\pff3a\diskio$604       diskio
C:   00000596  A$diskiobug\pff3a\diskio$605       diskio
C:   00000597  A$diskiobug\pff3a\diskio$606       diskio
C:   00000598  A$diskiobug\pff3a\diskio$607       diskio
C:   0000059A  A$diskiobug\pff3a\diskio$608       diskio
C:   0000059C  A$diskiobug\pff3a\diskio$609       diskio
C:   0000059E  A$diskiobug\pff3a\diskio$610       diskio
C:   000005A1  A$diskiobug\pff3a\diskio$613       diskio
C:   000005A1  C$diskio.c$47$2_0$23               diskio
C:   000005A3  A$diskiobug\pff3a\diskio$614       diskio
C:   000005A5  A$diskiobug\pff3a\diskio$615       diskio
C:   000005A6  A$diskiobug\pff3a\diskio$616       diskio
C:   000005A7  A$diskiobug\pff3a\diskio$617       diskio
C:   000005AA  A$diskiobug\pff3a\diskio$618       diskio
C:   000005AB  A$diskiobug\pff3a\diskio$619       diskio
C:   000005AC  A$diskiobug\pff3a\diskio$621       diskio
C:   000005AE  A$diskiobug\pff3a\diskio$625       diskio
C:   000005AE  C$diskio.c$54$1_0$21               diskio
C:   000005B1  A$diskiobug\pff3a\diskio$628       diskio
C:   000005B4  A$diskiobug\pff3a\diskio$629       diskio
C:   000005B6  A$diskiobug\pff3a\diskio$632       diskio
C:   000005B6  C$diskio.c$55$1_0$21               diskio
C:   000005B6  XG$disk_readp$0$0                  diskio
C:   000005B7  A$diskiobug\pff3a\diskio$648       diskio
C:   000005B7  C$diskio.c$61$1_0$26               diskio
C:   000005B7  G$disk_writep$0$0                  diskio
C:   000005B7  _disk_writep                       diskio
C:   000005B9  A$diskiobug\pff3a\diskio$649       diskio
C:   000005BC  A$diskiobug\pff3a\diskio$650       diskio
C:   000005BE  A$diskiobug\pff3a\diskio$651       diskio
C:   000005C0  A$diskiobug\pff3a\diskio$654       diskio
C:   000005C0  C$diskio.c$69$1_0$26               diskio
C:   000005C1  A$diskiobug\pff3a\diskio$655       diskio
C:   000005C2  A$diskiobug\pff3a\diskio$656       diskio
C:   000005C4  A$diskiobug\pff3a\diskio$659       diskio
C:   000005C4  C$diskio.c$71$2_0$27               diskio
ASxxxx Linker V03.00 + NoICE + sdld,  page 37.
Hexadecimal  [32-Bits]

Area                                    Addr        Size        Decimal Bytes (Attributes)
--------------------------------        ----        ----        ------- ----- ------------
CSEG                                00000062    00003CB7 =       15543. bytes (REL,CON,CODE)

      Value  Global                              Global Defined In Module
      -----  --------------------------------   ------------------------
C:   000005C6  A$diskiobug\pff3a\diskio$660       diskio
C:   000005C8  A$diskiobug\pff3a\diskio$661       diskio
C:   000005C9  A$diskiobug\pff3a\diskio$662       diskio
C:   000005CA  A$diskiobug\pff3a\diskio$663       diskio
C:   000005CB  A$diskiobug\pff3a\diskio$664       diskio
C:   000005CC  A$diskiobug\pff3a\diskio$665       diskio
C:   000005CD  A$diskiobug\pff3a\diskio$666       diskio
C:   000005CE  A$diskiobug\pff3a\diskio$667       diskio
C:   000005CF  A$diskiobug\pff3a\diskio$668       diskio
C:   000005D0  A$diskiobug\pff3a\diskio$669       diskio
C:   000005D2  A$diskiobug\pff3a\diskio$672       diskio
C:   000005D2  C$diskio.c$75$3_0$28               diskio
C:   000005D4  A$diskiobug\pff3a\diskio$673       diskio
C:   000005D6  A$diskiobug\pff3a\diskio$674       diskio
C:   000005D7  A$diskiobug\pff3a\diskio$675       diskio
C:   000005DA  A$diskiobug\pff3a\diskio$676       diskio
C:   000005DB  A$diskiobug\pff3a\diskio$677       diskio
C:   000005DC  A$diskiobug\pff3a\diskio$678       diskio
C:   000005DD  A$diskiobug\pff3a\diskio$679       diskio
C:   000005DE  A$diskiobug\pff3a\diskio$680       diskio
C:   000005DF  A$diskiobug\pff3a\diskio$681       diskio
C:   000005E0  A$diskiobug\pff3a\diskio$682       diskio
C:   000005E1  A$diskiobug\pff3a\diskio$683       diskio
C:   000005E2  A$diskiobug\pff3a\diskio$684       diskio
C:   000005E3  A$diskiobug\pff3a\diskio$685       diskio
C:   000005E4  A$diskiobug\pff3a\diskio$686       diskio
C:   000005E5  A$diskiobug\pff3a\diskio$687       diskio
C:   000005E6  A$diskiobug\pff3a\diskio$688       diskio
C:   000005E7  A$diskiobug\pff3a\diskio$689       diskio
C:   000005E8  A$diskiobug\pff3a\diskio$692       diskio
C:   000005E8  C$diskio.c$76$3_0$28               diskio
C:   000005EA  A$diskiobug\pff3a\diskio$693       diskio
C:   000005EC  A$diskiobug\pff3a\diskio$697       diskio
C:   000005EC  C$diskio.c$82$3_0$29               diskio
C:   000005EE  A$diskiobug\pff3a\diskio$698       diskio
C:   000005F0  A$diskiobug\pff3a\diskio$702       diskio
C:   000005F0  C$diskio.c$92$2_0$30               diskio
C:   000005F2  A$diskiobug\pff3a\diskio$706       diskio
C:   000005F2  C$diskio.c$95$1_0$26               diskio
C:   000005F4  A$diskiobug\pff3a\diskio$709       diskio
C:   000005F6  A$diskiobug\pff3a\diskio$712       diskio
C:   000005F6  C$diskio.c$117$1_0$26              diskio
C:   000005F6  XG$disk_writep$0$0                 diskio
C:   000005F7  A$pff\Debug\pff3a\pff$419          pff
C:   000005F7  C$pff.c$383$0_0$12                 pff
C:   000005F7  Fpff$ld_word$0$0                   pff
C:   000005F9  A$pff\Debug\pff3a\pff$420          pff
C:   000005FB  A$pff\Debug\pff3a\pff$421          pff
C:   000005FD  A$pff\Debug\pff3a\pff$424          pff
C:   000005FD  C$pff.c$387$1_0$12                 pff
C:   000005FF  A$pff\Debug\pff3a\pff$425          pff
ASxxxx Linker V03.00 + NoICE + sdld,  page 38.
Hexadecimal  [32-Bits]

Area                                    Addr        Size        Decimal Bytes (Attributes)
--------------------------------        ----        ----        ------- ----- ------------
CSEG                                00000062    00003CB7 =       15543. bytes (REL,CON,CODE)

      Value  Global                              Global Defined In Module
      -----  --------------------------------   ------------------------
C:   00000600  A$pff\Debug\pff3a\pff$426          pff
C:   00000601  A$pff\Debug\pff3a\pff$427          pff
C:   00000602  A$pff\Debug\pff3a\pff$428          pff
C:   00000603  A$pff\Debug\pff3a\pff$429          pff
C:   00000604  A$pff\Debug\pff3a\pff$430          pff
C:   00000606  A$pff\Debug\pff3a\pff$431          pff
C:   00000608  A$pff\Debug\pff3a\pff$432          pff
C:   0000060A  A$pff\Debug\pff3a\pff$433          pff
C:   0000060C  A$pff\Debug\pff3a\pff$434          pff
C:   0000060F  A$pff\Debug\pff3a\pff$437          pff
C:   0000060F  C$pff.c$388$1_0$12                 pff
C:   00000610  A$pff\Debug\pff3a\pff$438          pff
C:   00000612  A$pff\Debug\pff3a\pff$439          pff
C:   00000614  A$pff\Debug\pff3a\pff$440          pff
C:   00000616  A$pff\Debug\pff3a\pff$441          pff
C:   00000618  A$pff\Debug\pff3a\pff$442          pff
C:   0000061B  A$pff\Debug\pff3a\pff$443          pff
C:   0000061D  A$pff\Debug\pff3a\pff$444          pff
C:   0000061F  A$pff\Debug\pff3a\pff$445          pff
C:   00000620  A$pff\Debug\pff3a\pff$446          pff
C:   00000622  A$pff\Debug\pff3a\pff$449          pff
C:   00000622  C$pff.c$389$1_0$12                 pff
C:   00000624  A$pff\Debug\pff3a\pff$450          pff
C:   00000626  A$pff\Debug\pff3a\pff$455          pff
C:   00000626  C$pff.c$390$1_0$12                 pff
C:   00000626  XFpff$ld_word$0$0                  pff
C:   00000627  A$pff\Debug\pff3a\pff$470          pff
C:   00000627  C$pff.c$392$1_0$14                 pff
C:   00000627  Fpff$ld_dword$0$0                  pff
C:   00000629  A$pff\Debug\pff3a\pff$471          pff
C:   0000062C  A$pff\Debug\pff3a\pff$472          pff
C:   0000062E  A$pff\Debug\pff3a\pff$473          pff
C:   00000630  A$pff\Debug\pff3a\pff$474          pff
C:   00000632  A$pff\Debug\pff3a\pff$475          pff
C:   00000634  A$pff\Debug\pff3a\pff$476          pff
C:   00000636  A$pff\Debug\pff3a\pff$477          pff
C:   00000638  A$pff\Debug\pff3a\pff$480          pff
C:   00000638  C$pff.c$396$1_0$14                 pff
C:   0000063A  A$pff\Debug\pff3a\pff$481          pff
C:   0000063B  A$pff\Debug\pff3a\pff$482          pff
C:   0000063D  A$pff\Debug\pff3a\pff$483          pff
C:   0000063E  A$pff\Debug\pff3a\pff$484          pff
C:   0000063F  A$pff\Debug\pff3a\pff$485          pff
C:   00000640  A$pff\Debug\pff3a\pff$486          pff
C:   00000641  A$pff\Debug\pff3a\pff$487          pff
C:   00000642  A$pff\Debug\pff3a\pff$488          pff
C:   00000643  A$pff\Debug\pff3a\pff$489          pff
C:   00000644  A$pff\Debug\pff3a\pff$490          pff
C:   00000646  A$pff\Debug\pff3a\pff$491          pff
C:   00000648  A$pff\Debug\pff3a\pff$492          pff
C:   0000064A  A$pff\Debug\pff3a\pff$493          pff
ASxxxx Linker V03.00 + NoICE + sdld,  page 39.
Hexadecimal  [32-Bits]

Area                                    Addr        Size        Decimal Bytes (Attributes)
--------------------------------        ----        ----        ------- ----- ------------
CSEG                                00000062    00003CB7 =       15543. bytes (REL,CON,CODE)

      Value  Global                              Global Defined In Module
      -----  --------------------------------   ------------------------
C:   0000064C  A$pff\Debug\pff3a\pff$494          pff
C:   0000064F  A$pff\Debug\pff3a\pff$495          pff
C:   00000650  A$pff\Debug\pff3a\pff$498          pff
C:   00000650  C$pff.c$397$1_0$14                 pff
C:   00000651  A$pff\Debug\pff3a\pff$499          pff
C:   00000652  A$pff\Debug\pff3a\pff$500          pff
C:   00000653  A$pff\Debug\pff3a\pff$501          pff
C:   00000655  A$pff\Debug\pff3a\pff$502          pff
C:   00000657  A$pff\Debug\pff3a\pff$503          pff
C:   00000658  A$pff\Debug\pff3a\pff$504          pff
C:   00000659  A$pff\Debug\pff3a\pff$505          pff
C:   0000065A  A$pff\Debug\pff3a\pff$506          pff
C:   0000065B  A$pff\Debug\pff3a\pff$507          pff
C:   0000065D  A$pff\Debug\pff3a\pff$508          pff
C:   0000065E  A$pff\Debug\pff3a\pff$509          pff
C:   00000660  A$pff\Debug\pff3a\pff$510          pff
C:   00000661  A$pff\Debug\pff3a\pff$511          pff
C:   00000663  A$pff\Debug\pff3a\pff$512          pff
C:   00000664  A$pff\Debug\pff3a\pff$513          pff
C:   00000666  A$pff\Debug\pff3a\pff$514          pff
C:   00000668  A$pff\Debug\pff3a\pff$515          pff
C:   00000669  A$pff\Debug\pff3a\pff$516          pff
C:   0000066B  A$pff\Debug\pff3a\pff$517          pff
C:   0000066C  A$pff\Debug\pff3a\pff$518          pff
C:   0000066D  A$pff\Debug\pff3a\pff$519          pff
C:   0000066E  A$pff\Debug\pff3a\pff$520          pff
C:   0000066F  A$pff\Debug\pff3a\pff$521          pff
C:   00000670  A$pff\Debug\pff3a\pff$522          pff
C:   00000671  A$pff\Debug\pff3a\pff$523          pff
C:   00000672  A$pff\Debug\pff3a\pff$524          pff
C:   00000674  A$pff\Debug\pff3a\pff$525          pff
C:   00000676  A$pff\Debug\pff3a\pff$526          pff
C:   00000678  A$pff\Debug\pff3a\pff$527          pff
C:   0000067A  A$pff\Debug\pff3a\pff$528          pff
C:   0000067D  A$pff\Debug\pff3a\pff$529          pff
C:   0000067E  A$pff\Debug\pff3a\pff$530          pff
C:   0000067F  A$pff\Debug\pff3a\pff$531          pff
C:   00000680  A$pff\Debug\pff3a\pff$532          pff
C:   00000681  A$pff\Debug\pff3a\pff$533          pff
C:   00000682  A$pff\Debug\pff3a\pff$534          pff
C:   00000684  A$pff\Debug\pff3a\pff$535          pff
C:   00000686  A$pff\Debug\pff3a\pff$536          pff
C:   00000687  A$pff\Debug\pff3a\pff$537          pff
C:   00000688  A$pff\Debug\pff3a\pff$538          pff
C:   0000068A  A$pff\Debug\pff3a\pff$539          pff
C:   0000068B  A$pff\Debug\pff3a\pff$540          pff
C:   0000068C  A$pff\Debug\pff3a\pff$541          pff
C:   0000068E  A$pff\Debug\pff3a\pff$542          pff
C:   0000068F  A$pff\Debug\pff3a\pff$543          pff
C:   00000690  A$pff\Debug\pff3a\pff$544          pff
C:   00000692  A$pff\Debug\pff3a\pff$545          pff
ASxxxx Linker V03.00 + NoICE + sdld,  page 40.
Hexadecimal  [32-Bits]

Area                                    Addr        Size        Decimal Bytes (Attributes)
--------------------------------        ----        ----        ------- ----- ------------
CSEG                                00000062    00003CB7 =       15543. bytes (REL,CON,CODE)

      Value  Global                              Global Defined In Module
      -----  --------------------------------   ------------------------
C:   00000693  A$pff\Debug\pff3a\pff$546          pff
C:   00000694  A$pff\Debug\pff3a\pff$547          pff
C:   00000696  A$pff\Debug\pff3a\pff$550          pff
C:   00000696  C$pff.c$398$1_0$14                 pff
C:   00000698  A$pff\Debug\pff3a\pff$551          pff
C:   0000069A  A$pff\Debug\pff3a\pff$552          pff
C:   0000069B  A$pff\Debug\pff3a\pff$553          pff
C:   0000069C  A$pff\Debug\pff3a\pff$554          pff
C:   0000069D  A$pff\Debug\pff3a\pff$555          pff
C:   0000069E  A$pff\Debug\pff3a\pff$556          pff
C:   000006A0  A$pff\Debug\pff3a\pff$557          pff
C:   000006A1  A$pff\Debug\pff3a\pff$558          pff
C:   000006A3  A$pff\Debug\pff3a\pff$559          pff
C:   000006A4  A$pff\Debug\pff3a\pff$560          pff
C:   000006A6  A$pff\Debug\pff3a\pff$561          pff
C:   000006A7  A$pff\Debug\pff3a\pff$562          pff
C:   000006A9  A$pff\Debug\pff3a\pff$563          pff
C:   000006AB  A$pff\Debug\pff3a\pff$564          pff
C:   000006AC  A$pff\Debug\pff3a\pff$565          pff
C:   000006AE  A$pff\Debug\pff3a\pff$566          pff
C:   000006AF  A$pff\Debug\pff3a\pff$567          pff
C:   000006B0  A$pff\Debug\pff3a\pff$568          pff
C:   000006B1  A$pff\Debug\pff3a\pff$569          pff
C:   000006B2  A$pff\Debug\pff3a\pff$570          pff
C:   000006B3  A$pff\Debug\pff3a\pff$571          pff
C:   000006B4  A$pff\Debug\pff3a\pff$572          pff
C:   000006B5  A$pff\Debug\pff3a\pff$573          pff
C:   000006B7  A$pff\Debug\pff3a\pff$574          pff
C:   000006B9  A$pff\Debug\pff3a\pff$575          pff
C:   000006BB  A$pff\Debug\pff3a\pff$576          pff
C:   000006BD  A$pff\Debug\pff3a\pff$577          pff
C:   000006C0  A$pff\Debug\pff3a\pff$578          pff
C:   000006C1  A$pff\Debug\pff3a\pff$579          pff
C:   000006C2  A$pff\Debug\pff3a\pff$580          pff
C:   000006C3  A$pff\Debug\pff3a\pff$581          pff
C:   000006C4  A$pff\Debug\pff3a\pff$582          pff
C:   000006C5  A$pff\Debug\pff3a\pff$583          pff
C:   000006C7  A$pff\Debug\pff3a\pff$584          pff
C:   000006C9  A$pff\Debug\pff3a\pff$585          pff
C:   000006CA  A$pff\Debug\pff3a\pff$586          pff
C:   000006CB  A$pff\Debug\pff3a\pff$587          pff
C:   000006CD  A$pff\Debug\pff3a\pff$588          pff
C:   000006CE  A$pff\Debug\pff3a\pff$589          pff
C:   000006CF  A$pff\Debug\pff3a\pff$590          pff
C:   000006D1  A$pff\Debug\pff3a\pff$591          pff
C:   000006D2  A$pff\Debug\pff3a\pff$592          pff
C:   000006D3  A$pff\Debug\pff3a\pff$593          pff
C:   000006D5  A$pff\Debug\pff3a\pff$594          pff
C:   000006D6  A$pff\Debug\pff3a\pff$595          pff
C:   000006D7  A$pff\Debug\pff3a\pff$596          pff
C:   000006D9  A$pff\Debug\pff3a\pff$599          pff
ASxxxx Linker V03.00 + NoICE + sdld,  page 41.
Hexadecimal  [32-Bits]

Area                                    Addr        Size        Decimal Bytes (Attributes)
--------------------------------        ----        ----        ------- ----- ------------
CSEG                                00000062    00003CB7 =       15543. bytes (REL,CON,CODE)

      Value  Global                              Global Defined In Module
      -----  --------------------------------   ------------------------
C:   000006D9  C$pff.c$399$1_0$14                 pff
C:   000006DB  A$pff\Debug\pff3a\pff$600          pff
C:   000006DD  A$pff\Debug\pff3a\pff$601          pff
C:   000006DE  A$pff\Debug\pff3a\pff$602          pff
C:   000006DF  A$pff\Debug\pff3a\pff$603          pff
C:   000006E0  A$pff\Debug\pff3a\pff$604          pff
C:   000006E1  A$pff\Debug\pff3a\pff$605          pff
C:   000006E3  A$pff\Debug\pff3a\pff$606          pff
C:   000006E4  A$pff\Debug\pff3a\pff$607          pff
C:   000006E6  A$pff\Debug\pff3a\pff$608          pff
C:   000006E7  A$pff\Debug\pff3a\pff$609          pff
C:   000006E9  A$pff\Debug\pff3a\pff$610          pff
C:   000006EA  A$pff\Debug\pff3a\pff$611          pff
C:   000006EC  A$pff\Debug\pff3a\pff$612          pff
C:   000006EE  A$pff\Debug\pff3a\pff$613          pff
C:   000006EF  A$pff\Debug\pff3a\pff$614          pff
C:   000006F1  A$pff\Debug\pff3a\pff$615          pff
C:   000006F2  A$pff\Debug\pff3a\pff$616          pff
C:   000006F4  A$pff\Debug\pff3a\pff$617          pff
C:   000006F5  A$pff\Debug\pff3a\pff$618          pff
C:   000006F7  A$pff\Debug\pff3a\pff$619          pff
C:   000006FA  A$pff\Debug\pff3a\pff$620          pff
C:   000006FB  A$pff\Debug\pff3a\pff$621          pff
C:   000006FC  A$pff\Debug\pff3a\pff$622          pff
C:   000006FD  A$pff\Debug\pff3a\pff$623          pff
C:   000006FE  A$pff\Debug\pff3a\pff$624          pff
C:   000006FF  A$pff\Debug\pff3a\pff$625          pff
C:   00000701  A$pff\Debug\pff3a\pff$626          pff
C:   00000703  A$pff\Debug\pff3a\pff$627          pff
C:   00000704  A$pff\Debug\pff3a\pff$628          pff
C:   00000705  A$pff\Debug\pff3a\pff$629          pff
C:   00000707  A$pff\Debug\pff3a\pff$630          pff
C:   00000708  A$pff\Debug\pff3a\pff$631          pff
C:   00000709  A$pff\Debug\pff3a\pff$632          pff
C:   0000070B  A$pff\Debug\pff3a\pff$633          pff
C:   0000070C  A$pff\Debug\pff3a\pff$634          pff
C:   0000070D  A$pff\Debug\pff3a\pff$635          pff
C:   0000070F  A$pff\Debug\pff3a\pff$636          pff
C:   00000710  A$pff\Debug\pff3a\pff$637          pff
C:   00000711  A$pff\Debug\pff3a\pff$638          pff
C:   00000713  A$pff\Debug\pff3a\pff$641          pff
C:   00000713  C$pff.c$400$1_0$14                 pff
C:   00000715  A$pff\Debug\pff3a\pff$642          pff
C:   00000717  A$pff\Debug\pff3a\pff$643          pff
C:   00000719  A$pff\Debug\pff3a\pff$644          pff
C:   0000071A  A$pff\Debug\pff3a\pff$647          pff
C:   0000071D  A$pff\Debug\pff3a\pff$648          pff
C:   0000071F  A$pff\Debug\pff3a\pff$651          pff
C:   0000071F  C$pff.c$401$1_0$14                 pff
C:   0000071F  XFpff$ld_dword$0$0                 pff
C:   00000720  A$pff\Debug\pff3a\pff$668          pff
ASxxxx Linker V03.00 + NoICE + sdld,  page 42.
Hexadecimal  [32-Bits]

Area                                    Addr        Size        Decimal Bytes (Attributes)
--------------------------------        ----        ----        ------- ----- ------------
CSEG                                00000062    00003CB7 =       15543. bytes (REL,CON,CODE)

      Value  Global                              Global Defined In Module
      -----  --------------------------------   ------------------------
C:   00000720  C$pff.c$410$1_0$16                 pff
C:   00000720  Fpff$mem_set$0$0                   pff
C:   00000722  A$pff\Debug\pff3a\pff$669          pff
C:   00000725  A$pff\Debug\pff3a\pff$670          pff
C:   00000727  A$pff\Debug\pff3a\pff$671          pff
C:   00000729  A$pff\Debug\pff3a\pff$672          pff
C:   0000072B  A$pff\Debug\pff3a\pff$673          pff
C:   0000072D  A$pff\Debug\pff3a\pff$674          pff
C:   0000072F  A$pff\Debug\pff3a\pff$679          pff
C:   0000072F  C$pff.c$411$1_0$16                 pff
C:   0000072F  C$pff.c$412$1_0$16                 pff
C:   00000731  A$pff\Debug\pff3a\pff$680          pff
C:   00000733  A$pff\Debug\pff3a\pff$681          pff
C:   00000734  A$pff\Debug\pff3a\pff$682          pff
C:   00000736  A$pff\Debug\pff3a\pff$683          pff
C:   00000737  A$pff\Debug\pff3a\pff$684          pff
C:   00000738  A$pff\Debug\pff3a\pff$685          pff
C:   00000739  A$pff\Debug\pff3a\pff$686          pff
C:   0000073A  A$pff\Debug\pff3a\pff$687          pff
C:   0000073B  A$pff\Debug\pff3a\pff$688          pff
C:   0000073C  A$pff\Debug\pff3a\pff$689          pff
C:   0000073D  A$pff\Debug\pff3a\pff$691          pff
C:   0000073F  A$pff\Debug\pff3a\pff$692          pff
C:   00000740  A$pff\Debug\pff3a\pff$693          pff
C:   00000742  A$pff\Debug\pff3a\pff$694          pff
C:   00000743  A$pff\Debug\pff3a\pff$695          pff
C:   00000745  A$pff\Debug\pff3a\pff$696          pff
C:   00000747  A$pff\Debug\pff3a\pff$697          pff
C:   00000748  A$pff\Debug\pff3a\pff$698          pff
C:   00000749  A$pff\Debug\pff3a\pff$699          pff
C:   0000074C  A$pff\Debug\pff3a\pff$700          pff
C:   0000074D  A$pff\Debug\pff3a\pff$701          pff
C:   0000074E  A$pff\Debug\pff3a\pff$703          pff
C:   0000074F  A$pff\Debug\pff3a\pff$704          pff
C:   00000750  A$pff\Debug\pff3a\pff$705          pff
C:   00000752  A$pff\Debug\pff3a\pff$706          pff
C:   00000754  A$pff\Debug\pff3a\pff$707          pff
C:   00000756  A$pff\Debug\pff3a\pff$708          pff
C:   00000757  A$pff\Debug\pff3a\pff$709          pff
C:   00000759  A$pff\Debug\pff3a\pff$710          pff
C:   0000075B  A$pff\Debug\pff3a\pff$711          pff
C:   0000075D  A$pff\Debug\pff3a\pff$712          pff
C:   0000075F  A$pff\Debug\pff3a\pff$713          pff
C:   00000760  A$pff\Debug\pff3a\pff$714          pff
C:   00000763  A$pff\Debug\pff3a\pff$715          pff
C:   00000764  A$pff\Debug\pff3a\pff$716          pff
C:   00000766  A$pff\Debug\pff3a\pff$717          pff
C:   00000768  A$pff\Debug\pff3a\pff$718          pff
C:   0000076A  A$pff\Debug\pff3a\pff$722          pff
C:   0000076D  A$pff\Debug\pff3a\pff$723          pff
C:   0000076F  A$pff\Debug\pff3a\pff$726          pff
ASxxxx Linker V03.00 + NoICE + sdld,  page 43.
Hexadecimal  [32-Bits]

Area                                    Addr        Size        Decimal Bytes (Attributes)
--------------------------------        ----        ----        ------- ----- ------------
CSEG                                00000062    00003CB7 =       15543. bytes (REL,CON,CODE)

      Value  Global                              Global Defined In Module
      -----  --------------------------------   ------------------------
C:   0000076F  C$pff.c$413$1_0$16                 pff
C:   0000076F  XFpff$mem_set$0$0                  pff
C:   00000770  A$pff\Debug\pff3a\pff$748          pff
C:   00000770  C$pff.c$416$1_0$18                 pff
C:   00000770  Fpff$mem_cmp$0$0                   pff
C:   00000772  A$pff\Debug\pff3a\pff$749          pff
C:   00000774  A$pff\Debug\pff3a\pff$750          pff
C:   00000776  A$pff\Debug\pff3a\pff$751          pff
C:   00000778  A$pff\Debug\pff3a\pff$752          pff
C:   0000077A  A$pff\Debug\pff3a\pff$753          pff
C:   0000077C  A$pff\Debug\pff3a\pff$754          pff
C:   0000077E  A$pff\Debug\pff3a\pff$755          pff
C:   00000780  A$pff\Debug\pff3a\pff$758          pff
C:   00000780  C$pff.c$417$1_0$18                 pff
C:   00000782  A$pff\Debug\pff3a\pff$759          pff
C:   00000784  A$pff\Debug\pff3a\pff$760          pff
C:   00000785  A$pff\Debug\pff3a\pff$761          pff
C:   00000787  A$pff\Debug\pff3a\pff$762          pff
C:   00000789  A$pff\Debug\pff3a\pff$763          pff
C:   0000078A  A$pff\Debug\pff3a\pff$764          pff
C:   0000078B  A$pff\Debug\pff3a\pff$765          pff
C:   0000078C  A$pff\Debug\pff3a\pff$766          pff
C:   0000078D  A$pff\Debug\pff3a\pff$767          pff
C:   0000078E  A$pff\Debug\pff3a\pff$768          pff
C:   0000078F  A$pff\Debug\pff3a\pff$769          pff
C:   00000790  A$pff\Debug\pff3a\pff$770          pff
C:   00000791  A$pff\Debug\pff3a\pff$771          pff
C:   00000792  A$pff\Debug\pff3a\pff$772          pff
C:   00000793  A$pff\Debug\pff3a\pff$773          pff
C:   00000794  A$pff\Debug\pff3a\pff$776          pff
C:   00000794  C$pff.c$418$1_0$18                 pff
C:   00000796  A$pff\Debug\pff3a\pff$777          pff
C:   00000797  A$pff\Debug\pff3a\pff$778          pff
C:   00000798  A$pff\Debug\pff3a\pff$779          pff
C:   00000799  A$pff\Debug\pff3a\pff$780          pff
C:   0000079A  A$pff\Debug\pff3a\pff$781          pff
C:   0000079B  A$pff\Debug\pff3a\pff$784          pff
C:   0000079B  C$pff.c$419$1_0$18                 pff
C:   0000079D  A$pff\Debug\pff3a\pff$785          pff
C:   0000079F  A$pff\Debug\pff3a\pff$786          pff
C:   000007A0  A$pff\Debug\pff3a\pff$787          pff
C:   000007A2  A$pff\Debug\pff3a\pff$788          pff
C:   000007A4  A$pff\Debug\pff3a\pff$789          pff
C:   000007A5  A$pff\Debug\pff3a\pff$790          pff
C:   000007A6  A$pff\Debug\pff3a\pff$791          pff
C:   000007A7  A$pff\Debug\pff3a\pff$792          pff
C:   000007A8  A$pff\Debug\pff3a\pff$793          pff
C:   000007A9  A$pff\Debug\pff3a\pff$794          pff
C:   000007AA  A$pff\Debug\pff3a\pff$795          pff
C:   000007AB  A$pff\Debug\pff3a\pff$797          pff
C:   000007AD  A$pff\Debug\pff3a\pff$798          pff
ASxxxx Linker V03.00 + NoICE + sdld,  page 44.
Hexadecimal  [32-Bits]

Area                                    Addr        Size        Decimal Bytes (Attributes)
--------------------------------        ----        ----        ------- ----- ------------
CSEG                                00000062    00003CB7 =       15543. bytes (REL,CON,CODE)

      Value  Global                              Global Defined In Module
      -----  --------------------------------   ------------------------
C:   000007AF  A$pff\Debug\pff3a\pff$799          pff
C:   000007B0  A$pff\Debug\pff3a\pff$800          pff
C:   000007B2  A$pff\Debug\pff3a\pff$801          pff
C:   000007B3  A$pff\Debug\pff3a\pff$802          pff
C:   000007B5  A$pff\Debug\pff3a\pff$803          pff
C:   000007B7  A$pff\Debug\pff3a\pff$804          pff
C:   000007B9  A$pff\Debug\pff3a\pff$805          pff
C:   000007BA  A$pff\Debug\pff3a\pff$806          pff
C:   000007BB  A$pff\Debug\pff3a\pff$807          pff
C:   000007BE  A$pff\Debug\pff3a\pff$808          pff
C:   000007BF  A$pff\Debug\pff3a\pff$809          pff
C:   000007C0  A$pff\Debug\pff3a\pff$811          pff
C:   000007C1  A$pff\Debug\pff3a\pff$812          pff
C:   000007C2  A$pff\Debug\pff3a\pff$813          pff
C:   000007C4  A$pff\Debug\pff3a\pff$814          pff
C:   000007C6  A$pff\Debug\pff3a\pff$815          pff
C:   000007C8  A$pff\Debug\pff3a\pff$816          pff
C:   000007CA  A$pff\Debug\pff3a\pff$817          pff
C:   000007CD  A$pff\Debug\pff3a\pff$818          pff
C:   000007CE  A$pff\Debug\pff3a\pff$819          pff
C:   000007CF  A$pff\Debug\pff3a\pff$820          pff
C:   000007D1  A$pff\Debug\pff3a\pff$821          pff
C:   000007D3  A$pff\Debug\pff3a\pff$822          pff
C:   000007D5  A$pff\Debug\pff3a\pff$823          pff
C:   000007D7  A$pff\Debug\pff3a\pff$824          pff
C:   000007D8  A$pff\Debug\pff3a\pff$825          pff
C:   000007DA  A$pff\Debug\pff3a\pff$826          pff
C:   000007DB  A$pff\Debug\pff3a\pff$827          pff
C:   000007DD  A$pff\Debug\pff3a\pff$828          pff
C:   000007DF  A$pff\Debug\pff3a\pff$829          pff
C:   000007E1  A$pff\Debug\pff3a\pff$830          pff
C:   000007E2  A$pff\Debug\pff3a\pff$831          pff
C:   000007E4  A$pff\Debug\pff3a\pff$832          pff
C:   000007E5  A$pff\Debug\pff3a\pff$833          pff
C:   000007E7  A$pff\Debug\pff3a\pff$834          pff
C:   000007E8  A$pff\Debug\pff3a\pff$835          pff
C:   000007EA  A$pff\Debug\pff3a\pff$836          pff
C:   000007ED  A$pff\Debug\pff3a\pff$837          pff
C:   000007EE  A$pff\Debug\pff3a\pff$838          pff
C:   000007EF  A$pff\Debug\pff3a\pff$839          pff
C:   000007F0  A$pff\Debug\pff3a\pff$840          pff
C:   000007F1  A$pff\Debug\pff3a\pff$841          pff
C:   000007F3  A$pff\Debug\pff3a\pff$842          pff
C:   000007F4  A$pff\Debug\pff3a\pff$843          pff
C:   000007F6  A$pff\Debug\pff3a\pff$844          pff
C:   000007F8  A$pff\Debug\pff3a\pff$845          pff
C:   000007FA  A$pff\Debug\pff3a\pff$846          pff
C:   000007FC  A$pff\Debug\pff3a\pff$847          pff
C:   000007FD  A$pff\Debug\pff3a\pff$848          pff
C:   000007FE  A$pff\Debug\pff3a\pff$849          pff
C:   000007FF  A$pff\Debug\pff3a\pff$850          pff
ASxxxx Linker V03.00 + NoICE + sdld,  page 45.
Hexadecimal  [32-Bits]

Area                                    Addr        Size        Decimal Bytes (Attributes)
--------------------------------        ----        ----        ------- ----- ------------
CSEG                                00000062    00003CB7 =       15543. bytes (REL,CON,CODE)

      Value  Global                              Global Defined In Module
      -----  --------------------------------   ------------------------
C:   00000800  A$pff\Debug\pff3a\pff$851          pff
C:   00000801  A$pff\Debug\pff3a\pff$852          pff
C:   00000802  A$pff\Debug\pff3a\pff$853          pff
C:   00000803  A$pff\Debug\pff3a\pff$854          pff
C:   00000804  A$pff\Debug\pff3a\pff$855          pff
C:   00000805  A$pff\Debug\pff3a\pff$856          pff
C:   00000807  A$pff\Debug\pff3a\pff$857          pff
C:   00000808  A$pff\Debug\pff3a\pff$858          pff
C:   0000080A  A$pff\Debug\pff3a\pff$859          pff
C:   0000080B  A$pff\Debug\pff3a\pff$860          pff
C:   0000080D  A$pff\Debug\pff3a\pff$861          pff
C:   0000080E  A$pff\Debug\pff3a\pff$862          pff
C:   0000080F  A$pff\Debug\pff3a\pff$863          pff
C:   00000811  A$pff\Debug\pff3a\pff$867          pff
C:   00000811  C$pff.c$420$1_0$18                 pff
C:   00000813  A$pff\Debug\pff3a\pff$868          pff
C:   00000814  A$pff\Debug\pff3a\pff$869          pff
C:   00000816  A$pff\Debug\pff3a\pff$870          pff
C:   00000817  A$pff\Debug\pff3a\pff$871          pff
C:   00000819  A$pff\Debug\pff3a\pff$874          pff
C:   0000081C  A$pff\Debug\pff3a\pff$875          pff
C:   0000081E  A$pff\Debug\pff3a\pff$878          pff
C:   0000081E  C$pff.c$421$1_0$18                 pff
C:   0000081E  XFpff$mem_cmp$0$0                  pff
C:   0000081F  A$pff\Debug\pff3a\pff$896          pff
C:   0000081F  C$pff.c$429$1_0$20                 pff
C:   0000081F  Fpff$get_fat$0$0                   pff
C:   00000821  A$pff\Debug\pff3a\pff$897          pff
C:   00000824  A$pff\Debug\pff3a\pff$898          pff
C:   00000826  A$pff\Debug\pff3a\pff$899          pff
C:   00000828  A$pff\Debug\pff3a\pff$900          pff
C:   0000082A  A$pff\Debug\pff3a\pff$901          pff
C:   0000082C  A$pff\Debug\pff3a\pff$902          pff
C:   0000082E  A$pff\Debug\pff3a\pff$903          pff
C:   00000830  A$pff\Debug\pff3a\pff$904          pff
C:   00000832  A$pff\Debug\pff3a\pff$907          pff
C:   00000832  C$pff.c$434$2_0$20                 pff
C:   00000835  A$pff\Debug\pff3a\pff$908          pff
C:   00000836  A$pff\Debug\pff3a\pff$909          pff
C:   00000837  A$pff\Debug\pff3a\pff$910          pff
C:   00000838  A$pff\Debug\pff3a\pff$911          pff
C:   00000839  A$pff\Debug\pff3a\pff$912          pff
C:   0000083A  A$pff\Debug\pff3a\pff$913          pff
C:   0000083B  A$pff\Debug\pff3a\pff$914          pff
C:   0000083C  A$pff\Debug\pff3a\pff$915          pff
C:   0000083D  A$pff\Debug\pff3a\pff$916          pff
C:   0000083F  A$pff\Debug\pff3a\pff$917          pff
C:   00000841  A$pff\Debug\pff3a\pff$918          pff
C:   00000842  A$pff\Debug\pff3a\pff$919          pff
C:   00000844  A$pff\Debug\pff3a\pff$920          pff
C:   00000845  A$pff\Debug\pff3a\pff$921          pff
ASxxxx Linker V03.00 + NoICE + sdld,  page 46.
Hexadecimal  [32-Bits]

Area                                    Addr        Size        Decimal Bytes (Attributes)
--------------------------------        ----        ----        ------- ----- ------------
CSEG                                00000062    00003CB7 =       15543. bytes (REL,CON,CODE)

      Value  Global                              Global Defined In Module
      -----  --------------------------------   ------------------------
C:   00000847  A$pff\Debug\pff3a\pff$922          pff
C:   00000848  A$pff\Debug\pff3a\pff$923          pff
C:   0000084A  A$pff\Debug\pff3a\pff$926          pff
C:   0000084A  C$pff.c$439$1_0$20                 pff
C:   0000084C  A$pff\Debug\pff3a\pff$927          pff
C:   0000084D  A$pff\Debug\pff3a\pff$928          pff
C:   0000084E  A$pff\Debug\pff3a\pff$929          pff
C:   0000084F  A$pff\Debug\pff3a\pff$930          pff
C:   00000851  A$pff\Debug\pff3a\pff$931          pff
C:   00000852  A$pff\Debug\pff3a\pff$932          pff
C:   00000853  A$pff\Debug\pff3a\pff$933          pff
C:   00000855  A$pff\Debug\pff3a\pff$934          pff
C:   00000856  A$pff\Debug\pff3a\pff$935          pff
C:   00000857  A$pff\Debug\pff3a\pff$936          pff
C:   00000859  A$pff\Debug\pff3a\pff$937          pff
C:   0000085A  A$pff\Debug\pff3a\pff$938          pff
C:   0000085B  A$pff\Debug\pff3a\pff$939          pff
C:   0000085D  A$pff\Debug\pff3a\pff$940          pff
C:   0000085F  A$pff\Debug\pff3a\pff$941          pff
C:   00000861  A$pff\Debug\pff3a\pff$942          pff
C:   00000863  A$pff\Debug\pff3a\pff$943          pff
C:   00000864  A$pff\Debug\pff3a\pff$944          pff
C:   00000866  A$pff\Debug\pff3a\pff$945          pff
C:   00000867  A$pff\Debug\pff3a\pff$946          pff
C:   00000868  A$pff\Debug\pff3a\pff$947          pff
C:   00000869  A$pff\Debug\pff3a\pff$948          pff
C:   0000086A  A$pff\Debug\pff3a\pff$949          pff
C:   0000086B  A$pff\Debug\pff3a\pff$950          pff
C:   0000086C  A$pff\Debug\pff3a\pff$951          pff
C:   0000086D  A$pff\Debug\pff3a\pff$952          pff
C:   0000086F  A$pff\Debug\pff3a\pff$953          pff
C:   00000871  A$pff\Debug\pff3a\pff$954          pff
C:   00000873  A$pff\Debug\pff3a\pff$955          pff
C:   00000875  A$pff\Debug\pff3a\pff$956          pff
C:   00000878  A$pff\Debug\pff3a\pff$957          pff
C:   00000879  A$pff\Debug\pff3a\pff$958          pff
C:   0000087A  A$pff\Debug\pff3a\pff$959          pff
C:   0000087D  A$pff\Debug\pff3a\pff$960          pff
C:   0000087E  A$pff\Debug\pff3a\pff$961          pff
C:   0000087F  A$pff\Debug\pff3a\pff$962          pff
C:   00000882  A$pff\Debug\pff3a\pff$963          pff
C:   00000883  A$pff\Debug\pff3a\pff$964          pff
C:   00000884  A$pff\Debug\pff3a\pff$965          pff
C:   00000887  A$pff\Debug\pff3a\pff$966          pff
C:   00000888  A$pff\Debug\pff3a\pff$967          pff
C:   0000088A  A$pff\Debug\pff3a\pff$968          pff
C:   0000088B  A$pff\Debug\pff3a\pff$969          pff
C:   0000088C  A$pff\Debug\pff3a\pff$970          pff
C:   0000088D  A$pff\Debug\pff3a\pff$971          pff
C:   0000088E  A$pff\Debug\pff3a\pff$972          pff
C:   0000088F  A$pff\Debug\pff3a\pff$973          pff
ASxxxx Linker V03.00 + NoICE + sdld,  page 47.
Hexadecimal  [32-Bits]

Area                                    Addr        Size        Decimal Bytes (Attributes)
--------------------------------        ----        ----        ------- ----- ------------
CSEG                                00000062    00003CB7 =       15543. bytes (REL,CON,CODE)

      Value  Global                              Global Defined In Module
      -----  --------------------------------   ------------------------
C:   00000890  A$pff\Debug\pff3a\pff$974          pff
C:   00000891  A$pff\Debug\pff3a\pff$975          pff
C:   00000892  A$pff\Debug\pff3a\pff$976          pff
C:   00000893  A$pff\Debug\pff3a\pff$977          pff
C:   00000894  A$pff\Debug\pff3a\pff$978          pff
C:   00000895  A$pff\Debug\pff3a\pff$979          pff
C:   00000896  A$pff\Debug\pff3a\pff$980          pff
C:   00000897  A$pff\Debug\pff3a\pff$981          pff
C:   00000899  A$pff\Debug\pff3a\pff$983          pff
C:   0000089C  A$pff\Debug\pff3a\pff$984          pff
C:   0000089D  A$pff\Debug\pff3a\pff$985          pff
C:   0000089F  A$pff\Debug\pff3a\pff$986          pff
C:   000008A2  A$pff\Debug\pff3a\pff$990          pff
C:   000008A2  C$pff.c$441$1_0$20                 pff
C:   000008A4  A$pff\Debug\pff3a\pff$991          pff
C:   000008A6  A$pff\Debug\pff3a\pff$992          pff
C:   000008A7  A$pff\Debug\pff3a\pff$993          pff
C:   000008A9  A$pff\Debug\pff3a\pff$994          pff
C:   000008AA  A$pff\Debug\pff3a\pff$995          pff
C:   000008AC  A$pff\Debug\pff3a\pff$996          pff
C:   000008AD  A$pff\Debug\pff3a\pff$997          pff
C:   000008AF  A$pff\Debug\pff3a\pff$998          pff
C:   000008B2  A$pff\Debug\pff3a\pff$999          pff
C:   000008B3  A$pff\Debug\pff3a\pff$1000         pff
C:   000008B6  A$pff\Debug\pff3a\pff$1001         pff
C:   000008B8  A$pff\Debug\pff3a\pff$1003         pff
C:   000008BB  A$pff\Debug\pff3a\pff$1004         pff
C:   000008BE  A$pff\Debug\pff3a\pff$1006         pff
C:   000008C1  A$pff\Debug\pff3a\pff$1012         pff
C:   000008C1  C$pff.c$457$2_0$21                 pff
C:   000008C1  C$pff.c$458$2_0$21                 pff
C:   000008C3  A$pff\Debug\pff3a\pff$1013         pff
C:   000008C4  A$pff\Debug\pff3a\pff$1014         pff
C:   000008C6  A$pff\Debug\pff3a\pff$1015         pff
C:   000008C7  A$pff\Debug\pff3a\pff$1016         pff
C:   000008C9  A$pff\Debug\pff3a\pff$1017         pff
C:   000008CB  A$pff\Debug\pff3a\pff$1018         pff
C:   000008CD  A$pff\Debug\pff3a\pff$1019         pff
C:   000008CF  A$pff\Debug\pff3a\pff$1020         pff
C:   000008D0  A$pff\Debug\pff3a\pff$1021         pff
C:   000008D1  A$pff\Debug\pff3a\pff$1022         pff
C:   000008D2  A$pff\Debug\pff3a\pff$1023         pff
C:   000008D3  A$pff\Debug\pff3a\pff$1024         pff
C:   000008D4  A$pff\Debug\pff3a\pff$1025         pff
C:   000008D5  A$pff\Debug\pff3a\pff$1026         pff
C:   000008D6  A$pff\Debug\pff3a\pff$1027         pff
C:   000008D7  A$pff\Debug\pff3a\pff$1028         pff
C:   000008D9  A$pff\Debug\pff3a\pff$1029         pff
C:   000008DB  A$pff\Debug\pff3a\pff$1030         pff
C:   000008DC  A$pff\Debug\pff3a\pff$1031         pff
C:   000008DE  A$pff\Debug\pff3a\pff$1032         pff
ASxxxx Linker V03.00 + NoICE + sdld,  page 48.
Hexadecimal  [32-Bits]

Area                                    Addr        Size        Decimal Bytes (Attributes)
--------------------------------        ----        ----        ------- ----- ------------
CSEG                                00000062    00003CB7 =       15543. bytes (REL,CON,CODE)

      Value  Global                              Global Defined In Module
      -----  --------------------------------   ------------------------
C:   000008DF  A$pff\Debug\pff3a\pff$1033         pff
C:   000008E0  A$pff\Debug\pff3a\pff$1034         pff
C:   000008E1  A$pff\Debug\pff3a\pff$1035         pff
C:   000008E2  A$pff\Debug\pff3a\pff$1036         pff
C:   000008E3  A$pff\Debug\pff3a\pff$1037         pff
C:   000008E4  A$pff\Debug\pff3a\pff$1038         pff
C:   000008E5  A$pff\Debug\pff3a\pff$1039         pff
C:   000008E7  A$pff\Debug\pff3a\pff$1040         pff
C:   000008E9  A$pff\Debug\pff3a\pff$1041         pff
C:   000008EB  A$pff\Debug\pff3a\pff$1042         pff
C:   000008ED  A$pff\Debug\pff3a\pff$1043         pff
C:   000008EF  A$pff\Debug\pff3a\pff$1044         pff
C:   000008F1  A$pff\Debug\pff3a\pff$1045         pff
C:   000008F2  A$pff\Debug\pff3a\pff$1046         pff
C:   000008F5  A$pff\Debug\pff3a\pff$1047         pff
C:   000008F6  A$pff\Debug\pff3a\pff$1048         pff
C:   000008F7  A$pff\Debug\pff3a\pff$1049         pff
C:   000008FA  A$pff\Debug\pff3a\pff$1050         pff
C:   000008FB  A$pff\Debug\pff3a\pff$1051         pff
C:   000008FC  A$pff\Debug\pff3a\pff$1052         pff
C:   000008FD  A$pff\Debug\pff3a\pff$1053         pff
C:   00000900  A$pff\Debug\pff3a\pff$1054         pff
C:   00000901  A$pff\Debug\pff3a\pff$1055         pff
C:   00000902  A$pff\Debug\pff3a\pff$1056         pff
C:   00000903  A$pff\Debug\pff3a\pff$1057         pff
C:   00000906  A$pff\Debug\pff3a\pff$1058         pff
C:   00000907  A$pff\Debug\pff3a\pff$1059         pff
C:   00000908  A$pff\Debug\pff3a\pff$1060         pff
C:   0000090A  A$pff\Debug\pff3a\pff$1061         pff
C:   0000090B  A$pff\Debug\pff3a\pff$1062         pff
C:   0000090C  A$pff\Debug\pff3a\pff$1063         pff
C:   0000090E  A$pff\Debug\pff3a\pff$1064         pff
C:   0000090F  A$pff\Debug\pff3a\pff$1065         pff
C:   00000911  A$pff\Debug\pff3a\pff$1066         pff
C:   00000912  A$pff\Debug\pff3a\pff$1067         pff
C:   00000914  A$pff\Debug\pff3a\pff$1068         pff
C:   00000916  A$pff\Debug\pff3a\pff$1069         pff
C:   00000918  A$pff\Debug\pff3a\pff$1070         pff
C:   0000091A  A$pff\Debug\pff3a\pff$1071         pff
C:   0000091B  A$pff\Debug\pff3a\pff$1072         pff
C:   0000091C  A$pff\Debug\pff3a\pff$1073         pff
C:   0000091D  A$pff\Debug\pff3a\pff$1074         pff
C:   0000091E  A$pff\Debug\pff3a\pff$1075         pff
C:   0000091F  A$pff\Debug\pff3a\pff$1076         pff
C:   00000920  A$pff\Debug\pff3a\pff$1077         pff
C:   00000921  A$pff\Debug\pff3a\pff$1078         pff
C:   00000922  A$pff\Debug\pff3a\pff$1079         pff
C:   00000923  A$pff\Debug\pff3a\pff$1080         pff
C:   00000924  A$pff\Debug\pff3a\pff$1081         pff
C:   00000925  A$pff\Debug\pff3a\pff$1082         pff
C:   00000926  A$pff\Debug\pff3a\pff$1083         pff
ASxxxx Linker V03.00 + NoICE + sdld,  page 49.
Hexadecimal  [32-Bits]

Area                                    Addr        Size        Decimal Bytes (Attributes)
--------------------------------        ----        ----        ------- ----- ------------
CSEG                                00000062    00003CB7 =       15543. bytes (REL,CON,CODE)

      Value  Global                              Global Defined In Module
      -----  --------------------------------   ------------------------
C:   00000927  A$pff\Debug\pff3a\pff$1084         pff
C:   00000928  A$pff\Debug\pff3a\pff$1085         pff
C:   00000929  A$pff\Debug\pff3a\pff$1086         pff
C:   0000092A  A$pff\Debug\pff3a\pff$1087         pff
C:   0000092C  A$pff\Debug\pff3a\pff$1088         pff
C:   0000092E  A$pff\Debug\pff3a\pff$1089         pff
C:   0000092F  A$pff\Debug\pff3a\pff$1090         pff
C:   00000930  A$pff\Debug\pff3a\pff$1091         pff
C:   00000932  A$pff\Debug\pff3a\pff$1092         pff
C:   00000934  A$pff\Debug\pff3a\pff$1093         pff
C:   00000936  A$pff\Debug\pff3a\pff$1094         pff
C:   00000938  A$pff\Debug\pff3a\pff$1095         pff
C:   0000093A  A$pff\Debug\pff3a\pff$1096         pff
C:   0000093B  A$pff\Debug\pff3a\pff$1097         pff
C:   0000093D  A$pff\Debug\pff3a\pff$1098         pff
C:   0000093F  A$pff\Debug\pff3a\pff$1099         pff
C:   00000941  A$pff\Debug\pff3a\pff$1100         pff
C:   00000942  A$pff\Debug\pff3a\pff$1101         pff
C:   00000943  A$pff\Debug\pff3a\pff$1102         pff
C:   00000945  A$pff\Debug\pff3a\pff$1103         pff
C:   00000946  A$pff\Debug\pff3a\pff$1104         pff
C:   00000947  A$pff\Debug\pff3a\pff$1105         pff
C:   00000949  A$pff\Debug\pff3a\pff$1106         pff
C:   0000094B  A$pff\Debug\pff3a\pff$1107         pff
C:   0000094D  A$pff\Debug\pff3a\pff$1108         pff
C:   0000094E  A$pff\Debug\pff3a\pff$1109         pff
C:   0000094F  A$pff\Debug\pff3a\pff$1110         pff
C:   00000951  A$pff\Debug\pff3a\pff$1111         pff
C:   00000952  A$pff\Debug\pff3a\pff$1112         pff
C:   00000953  A$pff\Debug\pff3a\pff$1113         pff
C:   00000955  A$pff\Debug\pff3a\pff$1114         pff
C:   00000956  A$pff\Debug\pff3a\pff$1115         pff
C:   00000957  A$pff\Debug\pff3a\pff$1116         pff
C:   00000959  A$pff\Debug\pff3a\pff$1117         pff
C:   0000095A  A$pff\Debug\pff3a\pff$1118         pff
C:   0000095B  A$pff\Debug\pff3a\pff$1119         pff
C:   0000095D  A$pff\Debug\pff3a\pff$1120         pff
C:   0000095F  A$pff\Debug\pff3a\pff$1121         pff
C:   00000961  A$pff\Debug\pff3a\pff$1122         pff
C:   00000963  A$pff\Debug\pff3a\pff$1123         pff
C:   00000966  A$pff\Debug\pff3a\pff$1124         pff
C:   00000968  A$pff\Debug\pff3a\pff$1125         pff
C:   0000096A  A$pff\Debug\pff3a\pff$1126         pff
C:   0000096C  A$pff\Debug\pff3a\pff$1127         pff
C:   0000096E  A$pff\Debug\pff3a\pff$1128         pff
C:   00000970  A$pff\Debug\pff3a\pff$1129         pff
C:   00000971  A$pff\Debug\pff3a\pff$1130         pff
C:   00000973  A$pff\Debug\pff3a\pff$1131         pff
C:   00000976  A$pff\Debug\pff3a\pff$1135         pff
C:   00000976  C$pff.c$459$2_0$21                 pff
C:   00000978  A$pff\Debug\pff3a\pff$1136         pff
ASxxxx Linker V03.00 + NoICE + sdld,  page 50.
Hexadecimal  [32-Bits]

Area                                    Addr        Size        Decimal Bytes (Attributes)
--------------------------------        ----        ----        ------- ----- ------------
CSEG                                00000062    00003CB7 =       15543. bytes (REL,CON,CODE)

      Value  Global                              Global Defined In Module
      -----  --------------------------------   ------------------------
C:   0000097A  A$pff\Debug\pff3a\pff$1137         pff
C:   0000097C  A$pff\Debug\pff3a\pff$1138         pff
C:   0000097E  A$pff\Debug\pff3a\pff$1139         pff
C:   00000980  A$pff\Debug\pff3a\pff$1140         pff
C:   00000983  A$pff\Debug\pff3a\pff$1141         pff
C:   00000985  A$pff\Debug\pff3a\pff$1142         pff
C:   00000987  A$pff\Debug\pff3a\pff$1143         pff
C:   00000989  A$pff\Debug\pff3a\pff$1144         pff
C:   0000098B  A$pff\Debug\pff3a\pff$1145         pff
C:   0000098D  A$pff\Debug\pff3a\pff$1146         pff
C:   0000098E  A$pff\Debug\pff3a\pff$1147         pff
C:   00000991  A$pff\Debug\pff3a\pff$1153         pff
C:   00000991  C$pff.c$462$2_0$21                 pff
C:   00000991  C$pff.c$463$2_0$21                 pff
C:   00000993  A$pff\Debug\pff3a\pff$1154         pff
C:   00000994  A$pff\Debug\pff3a\pff$1155         pff
C:   00000996  A$pff\Debug\pff3a\pff$1156         pff
C:   00000997  A$pff\Debug\pff3a\pff$1157         pff
C:   00000999  A$pff\Debug\pff3a\pff$1158         pff
C:   0000099C  A$pff\Debug\pff3a\pff$1159         pff
C:   0000099E  A$pff\Debug\pff3a\pff$1160         pff
C:   000009A0  A$pff\Debug\pff3a\pff$1161         pff
C:   000009A2  A$pff\Debug\pff3a\pff$1162         pff
C:   000009A3  A$pff\Debug\pff3a\pff$1163         pff
C:   000009A4  A$pff\Debug\pff3a\pff$1164         pff
C:   000009A5  A$pff\Debug\pff3a\pff$1165         pff
C:   000009A6  A$pff\Debug\pff3a\pff$1166         pff
C:   000009A7  A$pff\Debug\pff3a\pff$1167         pff
C:   000009A8  A$pff\Debug\pff3a\pff$1168         pff
C:   000009A9  A$pff\Debug\pff3a\pff$1169         pff
C:   000009AA  A$pff\Debug\pff3a\pff$1170         pff
C:   000009AB  A$pff\Debug\pff3a\pff$1171         pff
C:   000009AC  A$pff\Debug\pff3a\pff$1172         pff
C:   000009AE  A$pff\Debug\pff3a\pff$1173         pff
C:   000009AF  A$pff\Debug\pff3a\pff$1174         pff
C:   000009B0  A$pff\Debug\pff3a\pff$1175         pff
C:   000009B1  A$pff\Debug\pff3a\pff$1176         pff
C:   000009B2  A$pff\Debug\pff3a\pff$1177         pff
C:   000009B3  A$pff\Debug\pff3a\pff$1178         pff
C:   000009B5  A$pff\Debug\pff3a\pff$1179         pff
C:   000009B7  A$pff\Debug\pff3a\pff$1180         pff
C:   000009B8  A$pff\Debug\pff3a\pff$1181         pff
C:   000009BA  A$pff\Debug\pff3a\pff$1182         pff
C:   000009BB  A$pff\Debug\pff3a\pff$1183         pff
C:   000009BC  A$pff\Debug\pff3a\pff$1184         pff
C:   000009BD  A$pff\Debug\pff3a\pff$1185         pff
C:   000009BE  A$pff\Debug\pff3a\pff$1186         pff
C:   000009BF  A$pff\Debug\pff3a\pff$1187         pff
C:   000009C0  A$pff\Debug\pff3a\pff$1188         pff
C:   000009C1  A$pff\Debug\pff3a\pff$1189         pff
C:   000009C3  A$pff\Debug\pff3a\pff$1190         pff
ASxxxx Linker V03.00 + NoICE + sdld,  page 51.
Hexadecimal  [32-Bits]

Area                                    Addr        Size        Decimal Bytes (Attributes)
--------------------------------        ----        ----        ------- ----- ------------
CSEG                                00000062    00003CB7 =       15543. bytes (REL,CON,CODE)

      Value  Global                              Global Defined In Module
      -----  --------------------------------   ------------------------
C:   000009C5  A$pff\Debug\pff3a\pff$1191         pff
C:   000009C7  A$pff\Debug\pff3a\pff$1192         pff
C:   000009C9  A$pff\Debug\pff3a\pff$1193         pff
C:   000009CB  A$pff\Debug\pff3a\pff$1194         pff
C:   000009CD  A$pff\Debug\pff3a\pff$1195         pff
C:   000009CE  A$pff\Debug\pff3a\pff$1196         pff
C:   000009D1  A$pff\Debug\pff3a\pff$1197         pff
C:   000009D2  A$pff\Debug\pff3a\pff$1198         pff
C:   000009D3  A$pff\Debug\pff3a\pff$1199         pff
C:   000009D6  A$pff\Debug\pff3a\pff$1200         pff
C:   000009D7  A$pff\Debug\pff3a\pff$1201         pff
C:   000009D8  A$pff\Debug\pff3a\pff$1202         pff
C:   000009D9  A$pff\Debug\pff3a\pff$1203         pff
C:   000009DC  A$pff\Debug\pff3a\pff$1204         pff
C:   000009DD  A$pff\Debug\pff3a\pff$1205         pff
C:   000009DE  A$pff\Debug\pff3a\pff$1206         pff
C:   000009DF  A$pff\Debug\pff3a\pff$1207         pff
C:   000009E2  A$pff\Debug\pff3a\pff$1208         pff
C:   000009E3  A$pff\Debug\pff3a\pff$1209         pff
C:   000009E4  A$pff\Debug\pff3a\pff$1210         pff
C:   000009E6  A$pff\Debug\pff3a\pff$1211         pff
C:   000009E7  A$pff\Debug\pff3a\pff$1212         pff
C:   000009E9  A$pff\Debug\pff3a\pff$1213         pff
C:   000009EA  A$pff\Debug\pff3a\pff$1214         pff
C:   000009EB  A$pff\Debug\pff3a\pff$1215         pff
C:   000009ED  A$pff\Debug\pff3a\pff$1216         pff
C:   000009EE  A$pff\Debug\pff3a\pff$1217         pff
C:   000009EF  A$pff\Debug\pff3a\pff$1218         pff
C:   000009F0  A$pff\Debug\pff3a\pff$1219         pff
C:   000009F1  A$pff\Debug\pff3a\pff$1220         pff
C:   000009F2  A$pff\Debug\pff3a\pff$1221         pff
C:   000009F4  A$pff\Debug\pff3a\pff$1222         pff
C:   000009F5  A$pff\Debug\pff3a\pff$1223         pff
C:   000009F6  A$pff\Debug\pff3a\pff$1224         pff
C:   000009F7  A$pff\Debug\pff3a\pff$1225         pff
C:   000009F9  A$pff\Debug\pff3a\pff$1226         pff
C:   000009FA  A$pff\Debug\pff3a\pff$1227         pff
C:   000009FB  A$pff\Debug\pff3a\pff$1228         pff
C:   000009FD  A$pff\Debug\pff3a\pff$1229         pff
C:   000009FE  A$pff\Debug\pff3a\pff$1230         pff
C:   000009FF  A$pff\Debug\pff3a\pff$1231         pff
C:   00000A01  A$pff\Debug\pff3a\pff$1232         pff
C:   00000A02  A$pff\Debug\pff3a\pff$1233         pff
C:   00000A03  A$pff\Debug\pff3a\pff$1234         pff
C:   00000A04  A$pff\Debug\pff3a\pff$1235         pff
C:   00000A05  A$pff\Debug\pff3a\pff$1236         pff
C:   00000A06  A$pff\Debug\pff3a\pff$1237         pff
C:   00000A08  A$pff\Debug\pff3a\pff$1238         pff
C:   00000A09  A$pff\Debug\pff3a\pff$1239         pff
C:   00000A0B  A$pff\Debug\pff3a\pff$1240         pff
C:   00000A0D  A$pff\Debug\pff3a\pff$1241         pff
ASxxxx Linker V03.00 + NoICE + sdld,  page 52.
Hexadecimal  [32-Bits]

Area                                    Addr        Size        Decimal Bytes (Attributes)
--------------------------------        ----        ----        ------- ----- ------------
CSEG                                00000062    00003CB7 =       15543. bytes (REL,CON,CODE)

      Value  Global                              Global Defined In Module
      -----  --------------------------------   ------------------------
C:   00000A0E  A$pff\Debug\pff3a\pff$1242         pff
C:   00000A0F  A$pff\Debug\pff3a\pff$1243         pff
C:   00000A10  A$pff\Debug\pff3a\pff$1244         pff
C:   00000A11  A$pff\Debug\pff3a\pff$1245         pff
C:   00000A12  A$pff\Debug\pff3a\pff$1246         pff
C:   00000A13  A$pff\Debug\pff3a\pff$1247         pff
C:   00000A14  A$pff\Debug\pff3a\pff$1248         pff
C:   00000A15  A$pff\Debug\pff3a\pff$1249         pff
C:   00000A16  A$pff\Debug\pff3a\pff$1250         pff
C:   00000A17  A$pff\Debug\pff3a\pff$1251         pff
C:   00000A18  A$pff\Debug\pff3a\pff$1252         pff
C:   00000A19  A$pff\Debug\pff3a\pff$1253         pff
C:   00000A1A  A$pff\Debug\pff3a\pff$1254         pff
C:   00000A1B  A$pff\Debug\pff3a\pff$1255         pff
C:   00000A1C  A$pff\Debug\pff3a\pff$1256         pff
C:   00000A1D  A$pff\Debug\pff3a\pff$1257         pff
C:   00000A1F  A$pff\Debug\pff3a\pff$1258         pff
C:   00000A21  A$pff\Debug\pff3a\pff$1259         pff
C:   00000A22  A$pff\Debug\pff3a\pff$1260         pff
C:   00000A23  A$pff\Debug\pff3a\pff$1261         pff
C:   00000A25  A$pff\Debug\pff3a\pff$1262         pff
C:   00000A27  A$pff\Debug\pff3a\pff$1263         pff
C:   00000A29  A$pff\Debug\pff3a\pff$1264         pff
C:   00000A2B  A$pff\Debug\pff3a\pff$1265         pff
C:   00000A2D  A$pff\Debug\pff3a\pff$1266         pff
C:   00000A2E  A$pff\Debug\pff3a\pff$1267         pff
C:   00000A30  A$pff\Debug\pff3a\pff$1268         pff
C:   00000A32  A$pff\Debug\pff3a\pff$1269         pff
C:   00000A34  A$pff\Debug\pff3a\pff$1270         pff
C:   00000A35  A$pff\Debug\pff3a\pff$1271         pff
C:   00000A36  A$pff\Debug\pff3a\pff$1272         pff
C:   00000A38  A$pff\Debug\pff3a\pff$1273         pff
C:   00000A39  A$pff\Debug\pff3a\pff$1274         pff
C:   00000A3A  A$pff\Debug\pff3a\pff$1275         pff
C:   00000A3C  A$pff\Debug\pff3a\pff$1276         pff
C:   00000A3E  A$pff\Debug\pff3a\pff$1277         pff
C:   00000A40  A$pff\Debug\pff3a\pff$1278         pff
C:   00000A41  A$pff\Debug\pff3a\pff$1279         pff
C:   00000A42  A$pff\Debug\pff3a\pff$1280         pff
C:   00000A44  A$pff\Debug\pff3a\pff$1281         pff
C:   00000A45  A$pff\Debug\pff3a\pff$1282         pff
C:   00000A46  A$pff\Debug\pff3a\pff$1283         pff
C:   00000A48  A$pff\Debug\pff3a\pff$1284         pff
C:   00000A49  A$pff\Debug\pff3a\pff$1285         pff
C:   00000A4A  A$pff\Debug\pff3a\pff$1286         pff
C:   00000A4C  A$pff\Debug\pff3a\pff$1287         pff
C:   00000A4D  A$pff\Debug\pff3a\pff$1288         pff
C:   00000A4E  A$pff\Debug\pff3a\pff$1289         pff
C:   00000A50  A$pff\Debug\pff3a\pff$1290         pff
C:   00000A52  A$pff\Debug\pff3a\pff$1291         pff
C:   00000A54  A$pff\Debug\pff3a\pff$1292         pff
ASxxxx Linker V03.00 + NoICE + sdld,  page 53.
Hexadecimal  [32-Bits]

Area                                    Addr        Size        Decimal Bytes (Attributes)
--------------------------------        ----        ----        ------- ----- ------------
CSEG                                00000062    00003CB7 =       15543. bytes (REL,CON,CODE)

      Value  Global                              Global Defined In Module
      -----  --------------------------------   ------------------------
C:   00000A56  A$pff\Debug\pff3a\pff$1293         pff
C:   00000A59  A$pff\Debug\pff3a\pff$1294         pff
C:   00000A5B  A$pff\Debug\pff3a\pff$1295         pff
C:   00000A5D  A$pff\Debug\pff3a\pff$1296         pff
C:   00000A5F  A$pff\Debug\pff3a\pff$1297         pff
C:   00000A61  A$pff\Debug\pff3a\pff$1298         pff
C:   00000A63  A$pff\Debug\pff3a\pff$1299         pff
C:   00000A64  A$pff\Debug\pff3a\pff$1302         pff
C:   00000A64  C$pff.c$464$2_0$21                 pff
C:   00000A66  A$pff\Debug\pff3a\pff$1303         pff
C:   00000A67  A$pff\Debug\pff3a\pff$1304         pff
C:   00000A69  A$pff\Debug\pff3a\pff$1305         pff
C:   00000A6B  A$pff\Debug\pff3a\pff$1306         pff
C:   00000A6D  A$pff\Debug\pff3a\pff$1307         pff
C:   00000A6F  A$pff\Debug\pff3a\pff$1308         pff
C:   00000A72  A$pff\Debug\pff3a\pff$1309         pff
C:   00000A74  A$pff\Debug\pff3a\pff$1310         pff
C:   00000A76  A$pff\Debug\pff3a\pff$1311         pff
C:   00000A78  A$pff\Debug\pff3a\pff$1312         pff
C:   00000A79  A$pff\Debug\pff3a\pff$1313         pff
C:   00000A7C  A$pff\Debug\pff3a\pff$1314         pff
C:   00000A7E  A$pff\Debug\pff3a\pff$1315         pff
C:   00000A80  A$pff\Debug\pff3a\pff$1316         pff
C:   00000A82  A$pff\Debug\pff3a\pff$1317         pff
C:   00000A83  A$pff\Debug\pff3a\pff$1320         pff
C:   00000A83  C$pff.c$466$1_0$20                 pff
C:   00000A85  A$pff\Debug\pff3a\pff$1324         pff
C:   00000A85  C$pff.c$468$1_0$20                 pff
C:   00000A88  A$pff\Debug\pff3a\pff$1325         pff
C:   00000A89  A$pff\Debug\pff3a\pff$1326         pff
C:   00000A8B  A$pff\Debug\pff3a\pff$1330         pff
C:   00000A8E  A$pff\Debug\pff3a\pff$1331         pff
C:   00000A90  A$pff\Debug\pff3a\pff$1334         pff
C:   00000A90  C$pff.c$469$1_0$20                 pff
C:   00000A90  XFpff$get_fat$0$0                  pff
C:   00000A91  A$pff\Debug\pff3a\pff$1349         pff
C:   00000A91  C$pff.c$478$1_0$23                 pff
C:   00000A91  Fpff$clust2sect$0$0                pff
C:   00000A93  A$pff\Debug\pff3a\pff$1350         pff
C:   00000A96  A$pff\Debug\pff3a\pff$1351         pff
C:   00000A97  A$pff\Debug\pff3a\pff$1352         pff
C:   00000A99  A$pff\Debug\pff3a\pff$1353         pff
C:   00000A9B  A$pff\Debug\pff3a\pff$1354         pff
C:   00000A9D  A$pff\Debug\pff3a\pff$1355         pff
C:   00000A9F  A$pff\Debug\pff3a\pff$1356         pff
C:   00000AA1  A$pff\Debug\pff3a\pff$1357         pff
C:   00000AA2  A$pff\Debug\pff3a\pff$1358         pff
C:   00000AA4  A$pff\Debug\pff3a\pff$1359         pff
C:   00000AA5  A$pff\Debug\pff3a\pff$1360         pff
C:   00000AA7  A$pff\Debug\pff3a\pff$1361         pff
C:   00000AA8  A$pff\Debug\pff3a\pff$1362         pff
ASxxxx Linker V03.00 + NoICE + sdld,  page 54.
Hexadecimal  [32-Bits]

Area                                    Addr        Size        Decimal Bytes (Attributes)
--------------------------------        ----        ----        ------- ----- ------------
CSEG                                00000062    00003CB7 =       15543. bytes (REL,CON,CODE)

      Value  Global                              Global Defined In Module
      -----  --------------------------------   ------------------------
C:   00000AAA  A$pff\Debug\pff3a\pff$1363         pff
C:   00000AAB  A$pff\Debug\pff3a\pff$1364         pff
C:   00000AAC  A$pff\Debug\pff3a\pff$1367         pff
C:   00000AAC  C$pff.c$482$2_0$23                 pff
C:   00000AAF  A$pff\Debug\pff3a\pff$1368         pff
C:   00000AB0  A$pff\Debug\pff3a\pff$1369         pff
C:   00000AB1  A$pff\Debug\pff3a\pff$1370         pff
C:   00000AB2  A$pff\Debug\pff3a\pff$1371         pff
C:   00000AB3  A$pff\Debug\pff3a\pff$1372         pff
C:   00000AB4  A$pff\Debug\pff3a\pff$1373         pff
C:   00000AB5  A$pff\Debug\pff3a\pff$1374         pff
C:   00000AB6  A$pff\Debug\pff3a\pff$1375         pff
C:   00000AB7  A$pff\Debug\pff3a\pff$1376         pff
C:   00000AB9  A$pff\Debug\pff3a\pff$1377         pff
C:   00000ABB  A$pff\Debug\pff3a\pff$1378         pff
C:   00000ABC  A$pff\Debug\pff3a\pff$1379         pff
C:   00000ABE  A$pff\Debug\pff3a\pff$1380         pff
C:   00000ABF  A$pff\Debug\pff3a\pff$1381         pff
C:   00000AC1  A$pff\Debug\pff3a\pff$1382         pff
C:   00000AC2  A$pff\Debug\pff3a\pff$1383         pff
C:   00000AC4  A$pff\Debug\pff3a\pff$1386         pff
C:   00000AC4  C$pff.c$485$1_0$23                 pff
C:   00000AC6  A$pff\Debug\pff3a\pff$1387         pff
C:   00000AC8  A$pff\Debug\pff3a\pff$1388         pff
C:   00000AC9  A$pff\Debug\pff3a\pff$1389         pff
C:   00000ACB  A$pff\Debug\pff3a\pff$1390         pff
C:   00000ACC  A$pff\Debug\pff3a\pff$1391         pff
C:   00000ACD  A$pff\Debug\pff3a\pff$1392         pff
C:   00000ACF  A$pff\Debug\pff3a\pff$1393         pff
C:   00000AD0  A$pff\Debug\pff3a\pff$1394         pff
C:   00000AD1  A$pff\Debug\pff3a\pff$1395         pff
C:   00000AD2  A$pff\Debug\pff3a\pff$1396         pff
C:   00000AD4  A$pff\Debug\pff3a\pff$1397         pff
C:   00000AD5  A$pff\Debug\pff3a\pff$1398         pff
C:   00000AD6  A$pff\Debug\pff3a\pff$1399         pff
C:   00000AD7  A$pff\Debug\pff3a\pff$1400         pff
C:   00000AD8  A$pff\Debug\pff3a\pff$1401         pff
C:   00000ADA  A$pff\Debug\pff3a\pff$1402         pff
C:   00000ADB  A$pff\Debug\pff3a\pff$1403         pff
C:   00000ADC  A$pff\Debug\pff3a\pff$1404         pff
C:   00000ADD  A$pff\Debug\pff3a\pff$1405         pff
C:   00000ADE  A$pff\Debug\pff3a\pff$1406         pff
C:   00000AE0  A$pff\Debug\pff3a\pff$1407         pff
C:   00000AE1  A$pff\Debug\pff3a\pff$1408         pff
C:   00000AE2  A$pff\Debug\pff3a\pff$1411         pff
C:   00000AE2  C$pff.c$486$1_0$23                 pff
C:   00000AE4  A$pff\Debug\pff3a\pff$1412         pff
C:   00000AE6  A$pff\Debug\pff3a\pff$1413         pff
C:   00000AE7  A$pff\Debug\pff3a\pff$1414         pff
C:   00000AE9  A$pff\Debug\pff3a\pff$1415         pff
C:   00000AEA  A$pff\Debug\pff3a\pff$1416         pff
ASxxxx Linker V03.00 + NoICE + sdld,  page 55.
Hexadecimal  [32-Bits]

Area                                    Addr        Size        Decimal Bytes (Attributes)
--------------------------------        ----        ----        ------- ----- ------------
CSEG                                00000062    00003CB7 =       15543. bytes (REL,CON,CODE)

      Value  Global                              Global Defined In Module
      -----  --------------------------------   ------------------------
C:   00000AEB  A$pff\Debug\pff3a\pff$1417         pff
C:   00000AEC  A$pff\Debug\pff3a\pff$1418         pff
C:   00000AED  A$pff\Debug\pff3a\pff$1419         pff
C:   00000AEE  A$pff\Debug\pff3a\pff$1420         pff
C:   00000AEF  A$pff\Debug\pff3a\pff$1421         pff
C:   00000AF0  A$pff\Debug\pff3a\pff$1422         pff
C:   00000AF2  A$pff\Debug\pff3a\pff$1423         pff
C:   00000AF4  A$pff\Debug\pff3a\pff$1424         pff
C:   00000AF6  A$pff\Debug\pff3a\pff$1425         pff
C:   00000AF8  A$pff\Debug\pff3a\pff$1426         pff
C:   00000AFB  A$pff\Debug\pff3a\pff$1427         pff
C:   00000AFC  A$pff\Debug\pff3a\pff$1428         pff
C:   00000AFD  A$pff\Debug\pff3a\pff$1429         pff
C:   00000B00  A$pff\Debug\pff3a\pff$1430         pff
C:   00000B01  A$pff\Debug\pff3a\pff$1431         pff
C:   00000B02  A$pff\Debug\pff3a\pff$1432         pff
C:   00000B05  A$pff\Debug\pff3a\pff$1433         pff
C:   00000B06  A$pff\Debug\pff3a\pff$1434         pff
C:   00000B07  A$pff\Debug\pff3a\pff$1435         pff
C:   00000B0A  A$pff\Debug\pff3a\pff$1436         pff
C:   00000B0B  A$pff\Debug\pff3a\pff$1437         pff
C:   00000B0C  A$pff\Debug\pff3a\pff$1438         pff
C:   00000B0E  A$pff\Debug\pff3a\pff$1439         pff
C:   00000B0F  A$pff\Debug\pff3a\pff$1440         pff
C:   00000B10  A$pff\Debug\pff3a\pff$1441         pff
C:   00000B12  A$pff\Debug\pff3a\pff$1442         pff
C:   00000B13  A$pff\Debug\pff3a\pff$1443         pff
C:   00000B14  A$pff\Debug\pff3a\pff$1444         pff
C:   00000B16  A$pff\Debug\pff3a\pff$1445         pff
C:   00000B17  A$pff\Debug\pff3a\pff$1446         pff
C:   00000B18  A$pff\Debug\pff3a\pff$1447         pff
C:   00000B1A  A$pff\Debug\pff3a\pff$1448         pff
C:   00000B1B  A$pff\Debug\pff3a\pff$1449         pff
C:   00000B1D  A$pff\Debug\pff3a\pff$1450         pff
C:   00000B1E  A$pff\Debug\pff3a\pff$1451         pff
C:   00000B1F  A$pff\Debug\pff3a\pff$1452         pff
C:   00000B20  A$pff\Debug\pff3a\pff$1453         pff
C:   00000B21  A$pff\Debug\pff3a\pff$1454         pff
C:   00000B22  A$pff\Debug\pff3a\pff$1455         pff
C:   00000B23  A$pff\Debug\pff3a\pff$1456         pff
C:   00000B24  A$pff\Debug\pff3a\pff$1457         pff
C:   00000B25  A$pff\Debug\pff3a\pff$1458         pff
C:   00000B26  A$pff\Debug\pff3a\pff$1459         pff
C:   00000B27  A$pff\Debug\pff3a\pff$1460         pff
C:   00000B28  A$pff\Debug\pff3a\pff$1461         pff
C:   00000B29  A$pff\Debug\pff3a\pff$1462         pff
C:   00000B2A  A$pff\Debug\pff3a\pff$1463         pff
C:   00000B2C  A$pff\Debug\pff3a\pff$1464         pff
C:   00000B2F  A$pff\Debug\pff3a\pff$1465         pff
C:   00000B30  A$pff\Debug\pff3a\pff$1466         pff
C:   00000B32  A$pff\Debug\pff3a\pff$1467         pff
ASxxxx Linker V03.00 + NoICE + sdld,  page 56.
Hexadecimal  [32-Bits]

Area                                    Addr        Size        Decimal Bytes (Attributes)
--------------------------------        ----        ----        ------- ----- ------------
CSEG                                00000062    00003CB7 =       15543. bytes (REL,CON,CODE)

      Value  Global                              Global Defined In Module
      -----  --------------------------------   ------------------------
C:   00000B35  A$pff\Debug\pff3a\pff$1471         pff
C:   00000B35  C$pff.c$487$1_0$23                 pff
C:   00000B37  A$pff\Debug\pff3a\pff$1472         pff
C:   00000B39  A$pff\Debug\pff3a\pff$1473         pff
C:   00000B3A  A$pff\Debug\pff3a\pff$1474         pff
C:   00000B3C  A$pff\Debug\pff3a\pff$1475         pff
C:   00000B3D  A$pff\Debug\pff3a\pff$1476         pff
C:   00000B3E  A$pff\Debug\pff3a\pff$1477         pff
C:   00000B3F  A$pff\Debug\pff3a\pff$1478         pff
C:   00000B40  A$pff\Debug\pff3a\pff$1479         pff
C:   00000B41  A$pff\Debug\pff3a\pff$1480         pff
C:   00000B42  A$pff\Debug\pff3a\pff$1481         pff
C:   00000B43  A$pff\Debug\pff3a\pff$1482         pff
C:   00000B45  A$pff\Debug\pff3a\pff$1483         pff
C:   00000B47  A$pff\Debug\pff3a\pff$1484         pff
C:   00000B49  A$pff\Debug\pff3a\pff$1485         pff
C:   00000B4B  A$pff\Debug\pff3a\pff$1486         pff
C:   00000B4E  A$pff\Debug\pff3a\pff$1487         pff
C:   00000B4F  A$pff\Debug\pff3a\pff$1488         pff
C:   00000B51  A$pff\Debug\pff3a\pff$1489         pff
C:   00000B53  A$pff\Debug\pff3a\pff$1490         pff
C:   00000B55  A$pff\Debug\pff3a\pff$1491         pff
C:   00000B57  A$pff\Debug\pff3a\pff$1492         pff
C:   00000B59  A$pff\Debug\pff3a\pff$1493         pff
C:   00000B5B  A$pff\Debug\pff3a\pff$1494         pff
C:   00000B5D  A$pff\Debug\pff3a\pff$1495         pff
C:   00000B5F  A$pff\Debug\pff3a\pff$1496         pff
C:   00000B60  A$pff\Debug\pff3a\pff$1497         pff
C:   00000B62  A$pff\Debug\pff3a\pff$1498         pff
C:   00000B63  A$pff\Debug\pff3a\pff$1499         pff
C:   00000B65  A$pff\Debug\pff3a\pff$1500         pff
C:   00000B66  A$pff\Debug\pff3a\pff$1501         pff
C:   00000B68  A$pff\Debug\pff3a\pff$1502         pff
C:   00000B69  A$pff\Debug\pff3a\pff$1503         pff
C:   00000B6A  A$pff\Debug\pff3a\pff$1504         pff
C:   00000B6D  A$pff\Debug\pff3a\pff$1505         pff
C:   00000B6E  A$pff\Debug\pff3a\pff$1506         pff
C:   00000B70  A$pff\Debug\pff3a\pff$1507         pff
C:   00000B72  A$pff\Debug\pff3a\pff$1508         pff
C:   00000B73  A$pff\Debug\pff3a\pff$1509         pff
C:   00000B75  A$pff\Debug\pff3a\pff$1510         pff
C:   00000B76  A$pff\Debug\pff3a\pff$1511         pff
C:   00000B78  A$pff\Debug\pff3a\pff$1512         pff
C:   00000B79  A$pff\Debug\pff3a\pff$1513         pff
C:   00000B7B  A$pff\Debug\pff3a\pff$1514         pff
C:   00000B7C  A$pff\Debug\pff3a\pff$1515         pff
C:   00000B7D  A$pff\Debug\pff3a\pff$1516         pff
C:   00000B7F  A$pff\Debug\pff3a\pff$1517         pff
C:   00000B81  A$pff\Debug\pff3a\pff$1518         pff
C:   00000B83  A$pff\Debug\pff3a\pff$1519         pff
C:   00000B85  A$pff\Debug\pff3a\pff$1520         pff
ASxxxx Linker V03.00 + NoICE + sdld,  page 57.
Hexadecimal  [32-Bits]

Area                                    Addr        Size        Decimal Bytes (Attributes)
--------------------------------        ----        ----        ------- ----- ------------
CSEG                                00000062    00003CB7 =       15543. bytes (REL,CON,CODE)

      Value  Global                              Global Defined In Module
      -----  --------------------------------   ------------------------
C:   00000B87  A$pff\Debug\pff3a\pff$1521         pff
C:   00000B88  A$pff\Debug\pff3a\pff$1522         pff
C:   00000B8A  A$pff\Debug\pff3a\pff$1523         pff
C:   00000B8B  A$pff\Debug\pff3a\pff$1524         pff
C:   00000B8C  A$pff\Debug\pff3a\pff$1525         pff
C:   00000B8D  A$pff\Debug\pff3a\pff$1526         pff
C:   00000B8E  A$pff\Debug\pff3a\pff$1527         pff
C:   00000B8F  A$pff\Debug\pff3a\pff$1528         pff
C:   00000B90  A$pff\Debug\pff3a\pff$1529         pff
C:   00000B91  A$pff\Debug\pff3a\pff$1530         pff
C:   00000B93  A$pff\Debug\pff3a\pff$1531         pff
C:   00000B95  A$pff\Debug\pff3a\pff$1532         pff
C:   00000B97  A$pff\Debug\pff3a\pff$1533         pff
C:   00000B99  A$pff\Debug\pff3a\pff$1534         pff
C:   00000B9C  A$pff\Debug\pff3a\pff$1535         pff
C:   00000B9D  A$pff\Debug\pff3a\pff$1536         pff
C:   00000B9E  A$pff\Debug\pff3a\pff$1537         pff
C:   00000BA1  A$pff\Debug\pff3a\pff$1538         pff
C:   00000BA2  A$pff\Debug\pff3a\pff$1539         pff
C:   00000BA3  A$pff\Debug\pff3a\pff$1540         pff
C:   00000BA6  A$pff\Debug\pff3a\pff$1541         pff
C:   00000BA7  A$pff\Debug\pff3a\pff$1542         pff
C:   00000BA8  A$pff\Debug\pff3a\pff$1543         pff
C:   00000BAB  A$pff\Debug\pff3a\pff$1544         pff
C:   00000BAC  A$pff\Debug\pff3a\pff$1545         pff
C:   00000BAE  A$pff\Debug\pff3a\pff$1546         pff
C:   00000BB0  A$pff\Debug\pff3a\pff$1547         pff
C:   00000BB1  A$pff\Debug\pff3a\pff$1548         pff
C:   00000BB2  A$pff\Debug\pff3a\pff$1549         pff
C:   00000BB3  A$pff\Debug\pff3a\pff$1550         pff
C:   00000BB4  A$pff\Debug\pff3a\pff$1551         pff
C:   00000BB5  A$pff\Debug\pff3a\pff$1552         pff
C:   00000BB6  A$pff\Debug\pff3a\pff$1553         pff
C:   00000BB7  A$pff\Debug\pff3a\pff$1554         pff
C:   00000BB8  A$pff\Debug\pff3a\pff$1555         pff
C:   00000BB9  A$pff\Debug\pff3a\pff$1556         pff
C:   00000BBA  A$pff\Debug\pff3a\pff$1557         pff
C:   00000BBB  A$pff\Debug\pff3a\pff$1558         pff
C:   00000BBC  A$pff\Debug\pff3a\pff$1559         pff
C:   00000BBD  A$pff\Debug\pff3a\pff$1560         pff
C:   00000BBE  A$pff\Debug\pff3a\pff$1561         pff
C:   00000BBF  A$pff\Debug\pff3a\pff$1562         pff
C:   00000BC0  A$pff\Debug\pff3a\pff$1563         pff
C:   00000BC2  A$pff\Debug\pff3a\pff$1564         pff
C:   00000BC4  A$pff\Debug\pff3a\pff$1565         pff
C:   00000BC6  A$pff\Debug\pff3a\pff$1569         pff
C:   00000BC9  A$pff\Debug\pff3a\pff$1570         pff
C:   00000BCB  A$pff\Debug\pff3a\pff$1573         pff
C:   00000BCB  C$pff.c$488$1_0$23                 pff
C:   00000BCB  XFpff$clust2sect$0$0               pff
C:   00000BCC  A$pff\Debug\pff3a\pff$1590         pff
ASxxxx Linker V03.00 + NoICE + sdld,  page 58.
Hexadecimal  [32-Bits]

Area                                    Addr        Size        Decimal Bytes (Attributes)
--------------------------------        ----        ----        ------- ----- ------------
CSEG                                00000062    00003CB7 =       15543. bytes (REL,CON,CODE)

      Value  Global                              Global Defined In Module
      -----  --------------------------------   ------------------------
C:   00000BCC  C$pff.c$491$1_0$25                 pff
C:   00000BCC  Fpff$get_clust$0$0                 pff
C:   00000BCE  A$pff\Debug\pff3a\pff$1591         pff
C:   00000BD0  A$pff\Debug\pff3a\pff$1592         pff
C:   00000BD2  A$pff\Debug\pff3a\pff$1593         pff
C:   00000BD4  A$pff\Debug\pff3a\pff$1594         pff
C:   00000BD6  A$pff\Debug\pff3a\pff$1595         pff
C:   00000BD8  A$pff\Debug\pff3a\pff$1596         pff
C:   00000BDA  A$pff\Debug\pff3a\pff$1597         pff
C:   00000BDC  A$pff\Debug\pff3a\pff$1600         pff
C:   00000BDC  C$pff.c$495$2_0$25                 pff
C:   00000BDF  A$pff\Debug\pff3a\pff$1601         pff
C:   00000BE0  A$pff\Debug\pff3a\pff$1602         pff
C:   00000BE1  A$pff\Debug\pff3a\pff$1603         pff
C:   00000BE2  A$pff\Debug\pff3a\pff$1604         pff
C:   00000BE3  A$pff\Debug\pff3a\pff$1605         pff
C:   00000BE4  A$pff\Debug\pff3a\pff$1606         pff
C:   00000BE5  A$pff\Debug\pff3a\pff$1607         pff
C:   00000BE6  A$pff\Debug\pff3a\pff$1608         pff
C:   00000BE7  A$pff\Debug\pff3a\pff$1611         pff
C:   00000BE7  C$pff.c$496$2_0$25                 pff
C:   00000BE9  A$pff\Debug\pff3a\pff$1612         pff
C:   00000BEA  A$pff\Debug\pff3a\pff$1613         pff
C:   00000BEB  A$pff\Debug\pff3a\pff$1614         pff
C:   00000BEC  A$pff\Debug\pff3a\pff$1615         pff
C:   00000BED  A$pff\Debug\pff3a\pff$1616         pff
C:   00000BEE  A$pff\Debug\pff3a\pff$1617         pff
C:   00000BEF  A$pff\Debug\pff3a\pff$1618         pff
C:   00000BF0  A$pff\Debug\pff3a\pff$1619         pff
C:   00000BF1  A$pff\Debug\pff3a\pff$1620         pff
C:   00000BF2  A$pff\Debug\pff3a\pff$1623         pff
C:   00000BF2  C$pff.c$499$1_0$25                 pff
C:   00000BF4  A$pff\Debug\pff3a\pff$1624         pff
C:   00000BF6  A$pff\Debug\pff3a\pff$1625         pff
C:   00000BF8  A$pff\Debug\pff3a\pff$1626         pff
C:   00000BFB  A$pff\Debug\pff3a\pff$1627         pff
C:   00000BFC  A$pff\Debug\pff3a\pff$1628         pff
C:   00000BFF  A$pff\Debug\pff3a\pff$1631         pff
C:   00000BFF  C$pff.c$500$2_0$26                 pff
C:   00000C01  A$pff\Debug\pff3a\pff$1632         pff
C:   00000C02  A$pff\Debug\pff3a\pff$1633         pff
C:   00000C03  A$pff\Debug\pff3a\pff$1634         pff
C:   00000C04  A$pff\Debug\pff3a\pff$1635         pff
C:   00000C05  A$pff\Debug\pff3a\pff$1636         pff
C:   00000C06  A$pff\Debug\pff3a\pff$1637         pff
C:   00000C08  A$pff\Debug\pff3a\pff$1638         pff
C:   00000C0A  A$pff\Debug\pff3a\pff$1639         pff
C:   00000C0C  A$pff\Debug\pff3a\pff$1640         pff
C:   00000C0E  A$pff\Debug\pff3a\pff$1641         pff
C:   00000C10  A$pff\Debug\pff3a\pff$1642         pff
C:   00000C12  A$pff\Debug\pff3a\pff$1643         pff
ASxxxx Linker V03.00 + NoICE + sdld,  page 59.
Hexadecimal  [32-Bits]

Area                                    Addr        Size        Decimal Bytes (Attributes)
--------------------------------        ----        ----        ------- ----- ------------
CSEG                                00000062    00003CB7 =       15543. bytes (REL,CON,CODE)

      Value  Global                              Global Defined In Module
      -----  --------------------------------   ------------------------
C:   00000C14  A$pff\Debug\pff3a\pff$1644         pff
C:   00000C17  A$pff\Debug\pff3a\pff$1645         pff
C:   00000C19  A$pff\Debug\pff3a\pff$1646         pff
C:   00000C1B  A$pff\Debug\pff3a\pff$1647         pff
C:   00000C1D  A$pff\Debug\pff3a\pff$1648         pff
C:   00000C1F  A$pff\Debug\pff3a\pff$1649         pff
C:   00000C21  A$pff\Debug\pff3a\pff$1650         pff
C:   00000C23  A$pff\Debug\pff3a\pff$1651         pff
C:   00000C25  A$pff\Debug\pff3a\pff$1652         pff
C:   00000C26  A$pff\Debug\pff3a\pff$1653         pff
C:   00000C28  A$pff\Debug\pff3a\pff$1654         pff
C:   00000C29  A$pff\Debug\pff3a\pff$1655         pff
C:   00000C2B  A$pff\Debug\pff3a\pff$1656         pff
C:   00000C2C  A$pff\Debug\pff3a\pff$1657         pff
C:   00000C2E  A$pff\Debug\pff3a\pff$1658         pff
C:   00000C2F  A$pff\Debug\pff3a\pff$1659         pff
C:   00000C31  A$pff\Debug\pff3a\pff$1662         pff
C:   00000C31  C$pff.c$501$2_0$26                 pff
C:   00000C33  A$pff\Debug\pff3a\pff$1663         pff
C:   00000C35  A$pff\Debug\pff3a\pff$1664         pff
C:   00000C36  A$pff\Debug\pff3a\pff$1665         pff
C:   00000C38  A$pff\Debug\pff3a\pff$1666         pff
C:   00000C39  A$pff\Debug\pff3a\pff$1667         pff
C:   00000C3A  A$pff\Debug\pff3a\pff$1668         pff
C:   00000C3B  A$pff\Debug\pff3a\pff$1669         pff
C:   00000C3C  A$pff\Debug\pff3a\pff$1670         pff
C:   00000C3D  A$pff\Debug\pff3a\pff$1671         pff
C:   00000C3E  A$pff\Debug\pff3a\pff$1672         pff
C:   00000C3F  A$pff\Debug\pff3a\pff$1673         pff
C:   00000C40  A$pff\Debug\pff3a\pff$1674         pff
C:   00000C41  A$pff\Debug\pff3a\pff$1675         pff
C:   00000C42  A$pff\Debug\pff3a\pff$1676         pff
C:   00000C43  A$pff\Debug\pff3a\pff$1677         pff
C:   00000C44  A$pff\Debug\pff3a\pff$1678         pff
C:   00000C45  A$pff\Debug\pff3a\pff$1679         pff
C:   00000C47  A$pff\Debug\pff3a\pff$1680         pff
C:   00000C48  A$pff\Debug\pff3a\pff$1681         pff
C:   00000C4A  A$pff\Debug\pff3a\pff$1685         pff
C:   00000C4A  C$pff.c$503$1_0$25                 pff
C:   00000C4C  A$pff\Debug\pff3a\pff$1686         pff
C:   00000C4D  A$pff\Debug\pff3a\pff$1687         pff
C:   00000C4E  A$pff\Debug\pff3a\pff$1688         pff
C:   00000C4F  A$pff\Debug\pff3a\pff$1689         pff
C:   00000C50  A$pff\Debug\pff3a\pff$1690         pff
C:   00000C51  A$pff\Debug\pff3a\pff$1691         pff
C:   00000C53  A$pff\Debug\pff3a\pff$1692         pff
C:   00000C55  A$pff\Debug\pff3a\pff$1693         pff
C:   00000C57  A$pff\Debug\pff3a\pff$1694         pff
C:   00000C5A  A$pff\Debug\pff3a\pff$1695         pff
C:   00000C5C  A$pff\Debug\pff3a\pff$1696         pff
C:   00000C5E  A$pff\Debug\pff3a\pff$1697         pff
ASxxxx Linker V03.00 + NoICE + sdld,  page 60.
Hexadecimal  [32-Bits]

Area                                    Addr        Size        Decimal Bytes (Attributes)
--------------------------------        ----        ----        ------- ----- ------------
CSEG                                00000062    00003CB7 =       15543. bytes (REL,CON,CODE)

      Value  Global                              Global Defined In Module
      -----  --------------------------------   ------------------------
C:   00000C60  A$pff\Debug\pff3a\pff$1698         pff
C:   00000C62  A$pff\Debug\pff3a\pff$1699         pff
C:   00000C64  A$pff\Debug\pff3a\pff$1700         pff
C:   00000C65  A$pff\Debug\pff3a\pff$1701         pff
C:   00000C66  A$pff\Debug\pff3a\pff$1702         pff
C:   00000C68  A$pff\Debug\pff3a\pff$1703         pff
C:   00000C69  A$pff\Debug\pff3a\pff$1704         pff
C:   00000C6A  A$pff\Debug\pff3a\pff$1705         pff
C:   00000C6C  A$pff\Debug\pff3a\pff$1706         pff
C:   00000C6D  A$pff\Debug\pff3a\pff$1707         pff
C:   00000C6E  A$pff\Debug\pff3a\pff$1708         pff
C:   00000C70  A$pff\Debug\pff3a\pff$1709         pff
C:   00000C71  A$pff\Debug\pff3a\pff$1710         pff
C:   00000C72  A$pff\Debug\pff3a\pff$1711         pff
C:   00000C74  A$pff\Debug\pff3a\pff$1714         pff
C:   00000C74  C$pff.c$505$1_0$25                 pff
C:   00000C76  A$pff\Debug\pff3a\pff$1715         pff
C:   00000C78  A$pff\Debug\pff3a\pff$1716         pff
C:   00000C7A  A$pff\Debug\pff3a\pff$1717         pff
C:   00000C7B  A$pff\Debug\pff3a\pff$1720         pff
C:   00000C7E  A$pff\Debug\pff3a\pff$1721         pff
C:   00000C80  A$pff\Debug\pff3a\pff$1724         pff
C:   00000C80  C$pff.c$506$1_0$25                 pff
C:   00000C80  XFpff$get_clust$0$0                pff
C:   00000C81  A$pff\Debug\pff3a\pff$1740         pff
C:   00000C81  C$pff.c$513$1_0$28                 pff
C:   00000C81  Fpff$dir_rewind$0$0                pff
C:   00000C83  A$pff\Debug\pff3a\pff$1741         pff
C:   00000C86  A$pff\Debug\pff3a\pff$1742         pff
C:   00000C88  A$pff\Debug\pff3a\pff$1743         pff
C:   00000C8A  A$pff\Debug\pff3a\pff$1744         pff
C:   00000C8C  A$pff\Debug\pff3a\pff$1745         pff
C:   00000C8E  A$pff\Debug\pff3a\pff$1746         pff
C:   00000C90  A$pff\Debug\pff3a\pff$1747         pff
C:   00000C92  A$pff\Debug\pff3a\pff$1750         pff
C:   00000C92  C$pff.c$518$2_0$28                 pff
C:   00000C95  A$pff\Debug\pff3a\pff$1751         pff
C:   00000C96  A$pff\Debug\pff3a\pff$1752         pff
C:   00000C97  A$pff\Debug\pff3a\pff$1753         pff
C:   00000C98  A$pff\Debug\pff3a\pff$1754         pff
C:   00000C99  A$pff\Debug\pff3a\pff$1755         pff
C:   00000C9A  A$pff\Debug\pff3a\pff$1756         pff
C:   00000C9B  A$pff\Debug\pff3a\pff$1757         pff
C:   00000C9C  A$pff\Debug\pff3a\pff$1758         pff
C:   00000C9D  A$pff\Debug\pff3a\pff$1759         pff
C:   00000C9F  A$pff\Debug\pff3a\pff$1760         pff
C:   00000CA1  A$pff\Debug\pff3a\pff$1761         pff
C:   00000CA2  A$pff\Debug\pff3a\pff$1762         pff
C:   00000CA4  A$pff\Debug\pff3a\pff$1763         pff
C:   00000CA5  A$pff\Debug\pff3a\pff$1764         pff
C:   00000CA7  A$pff\Debug\pff3a\pff$1765         pff
ASxxxx Linker V03.00 + NoICE + sdld,  page 61.
Hexadecimal  [32-Bits]

Area                                    Addr        Size        Decimal Bytes (Attributes)
--------------------------------        ----        ----        ------- ----- ------------
CSEG                                00000062    00003CB7 =       15543. bytes (REL,CON,CODE)

      Value  Global                              Global Defined In Module
      -----  --------------------------------   ------------------------
C:   00000CA8  A$pff\Debug\pff3a\pff$1766         pff
C:   00000CAA  A$pff\Debug\pff3a\pff$1769         pff
C:   00000CAA  C$pff.c$521$1_0$28                 pff
C:   00000CAC  A$pff\Debug\pff3a\pff$1770         pff
C:   00000CAD  A$pff\Debug\pff3a\pff$1771         pff
C:   00000CAF  A$pff\Debug\pff3a\pff$1772         pff
C:   00000CB0  A$pff\Debug\pff3a\pff$1773         pff
C:   00000CB2  A$pff\Debug\pff3a\pff$1774         pff
C:   00000CB3  A$pff\Debug\pff3a\pff$1775         pff
C:   00000CB5  A$pff\Debug\pff3a\pff$1776         pff
C:   00000CB6  A$pff\Debug\pff3a\pff$1777         pff
C:   00000CB9  A$pff\Debug\pff3a\pff$1778         pff
C:   00000CBA  A$pff\Debug\pff3a\pff$1779         pff
C:   00000CBD  A$pff\Debug\pff3a\pff$1782         pff
C:   00000CBD  C$pff.c$522$1_0$28                 pff
C:   00000CBF  A$pff\Debug\pff3a\pff$1783         pff
C:   00000CC0  A$pff\Debug\pff3a\pff$1784         pff
C:   00000CC2  A$pff\Debug\pff3a\pff$1785         pff
C:   00000CC3  A$pff\Debug\pff3a\pff$1786         pff
C:   00000CC4  A$pff\Debug\pff3a\pff$1787         pff
C:   00000CC5  A$pff\Debug\pff3a\pff$1788         pff
C:   00000CC6  A$pff\Debug\pff3a\pff$1789         pff
C:   00000CC7  A$pff\Debug\pff3a\pff$1790         pff
C:   00000CC8  A$pff\Debug\pff3a\pff$1791         pff
C:   00000CC9  A$pff\Debug\pff3a\pff$1792         pff
C:   00000CCB  A$pff\Debug\pff3a\pff$1793         pff
C:   00000CCD  A$pff\Debug\pff3a\pff$1794         pff
C:   00000CCF  A$pff\Debug\pff3a\pff$1795         pff
C:   00000CD1  A$pff\Debug\pff3a\pff$1796         pff
C:   00000CD3  A$pff\Debug\pff3a\pff$1797         pff
C:   00000CD5  A$pff\Debug\pff3a\pff$1798         pff
C:   00000CD6  A$pff\Debug\pff3a\pff$1799         pff
C:   00000CD9  A$pff\Debug\pff3a\pff$1800         pff
C:   00000CDA  A$pff\Debug\pff3a\pff$1801         pff
C:   00000CDB  A$pff\Debug\pff3a\pff$1802         pff
C:   00000CDE  A$pff\Debug\pff3a\pff$1803         pff
C:   00000CDF  A$pff\Debug\pff3a\pff$1804         pff
C:   00000CE0  A$pff\Debug\pff3a\pff$1805         pff
C:   00000CE1  A$pff\Debug\pff3a\pff$1806         pff
C:   00000CE4  A$pff\Debug\pff3a\pff$1807         pff
C:   00000CE5  A$pff\Debug\pff3a\pff$1808         pff
C:   00000CE6  A$pff\Debug\pff3a\pff$1809         pff
C:   00000CE7  A$pff\Debug\pff3a\pff$1810         pff
C:   00000CEA  A$pff\Debug\pff3a\pff$1811         pff
C:   00000CEB  A$pff\Debug\pff3a\pff$1812         pff
C:   00000CEC  A$pff\Debug\pff3a\pff$1815         pff
C:   00000CEC  C$pff.c$523$1_0$28                 pff
C:   00000CEE  A$pff\Debug\pff3a\pff$1816         pff
C:   00000CF0  A$pff\Debug\pff3a\pff$1817         pff
C:   00000CF1  A$pff\Debug\pff3a\pff$1818         pff
C:   00000CF4  A$pff\Debug\pff3a\pff$1819         pff
ASxxxx Linker V03.00 + NoICE + sdld,  page 62.
Hexadecimal  [32-Bits]

Area                                    Addr        Size        Decimal Bytes (Attributes)
--------------------------------        ----        ----        ------- ----- ------------
CSEG                                00000062    00003CB7 =       15543. bytes (REL,CON,CODE)

      Value  Global                              Global Defined In Module
      -----  --------------------------------   ------------------------
C:   00000CF5  A$pff\Debug\pff3a\pff$1820         pff
C:   00000CF8  A$pff\Debug\pff3a\pff$1821         pff
C:   00000CF9  A$pff\Debug\pff3a\pff$1822         pff
C:   00000CFC  A$pff\Debug\pff3a\pff$1823         pff
C:   00000CFD  A$pff\Debug\pff3a\pff$1824         pff
C:   00000D00  A$pff\Debug\pff3a\pff$1825         pff
C:   00000D02  A$pff\Debug\pff3a\pff$1827         pff
C:   00000D04  A$pff\Debug\pff3a\pff$1828         pff
C:   00000D06  A$pff\Debug\pff3a\pff$1829         pff
C:   00000D07  A$pff\Debug\pff3a\pff$1830         pff
C:   00000D09  A$pff\Debug\pff3a\pff$1831         pff
C:   00000D0A  A$pff\Debug\pff3a\pff$1832         pff
C:   00000D0B  A$pff\Debug\pff3a\pff$1833         pff
C:   00000D0C  A$pff\Debug\pff3a\pff$1834         pff
C:   00000D0D  A$pff\Debug\pff3a\pff$1835         pff
C:   00000D0E  A$pff\Debug\pff3a\pff$1836         pff
C:   00000D0F  A$pff\Debug\pff3a\pff$1837         pff
C:   00000D10  A$pff\Debug\pff3a\pff$1838         pff
C:   00000D12  A$pff\Debug\pff3a\pff$1839         pff
C:   00000D14  A$pff\Debug\pff3a\pff$1840         pff
C:   00000D16  A$pff\Debug\pff3a\pff$1841         pff
C:   00000D18  A$pff\Debug\pff3a\pff$1842         pff
C:   00000D1B  A$pff\Debug\pff3a\pff$1843         pff
C:   00000D1C  A$pff\Debug\pff3a\pff$1844         pff
C:   00000D1D  A$pff\Debug\pff3a\pff$1845         pff
C:   00000D20  A$pff\Debug\pff3a\pff$1846         pff
C:   00000D21  A$pff\Debug\pff3a\pff$1847         pff
C:   00000D22  A$pff\Debug\pff3a\pff$1848         pff
C:   00000D25  A$pff\Debug\pff3a\pff$1849         pff
C:   00000D26  A$pff\Debug\pff3a\pff$1850         pff
C:   00000D27  A$pff\Debug\pff3a\pff$1851         pff
C:   00000D2A  A$pff\Debug\pff3a\pff$1852         pff
C:   00000D2B  A$pff\Debug\pff3a\pff$1853         pff
C:   00000D2D  A$pff\Debug\pff3a\pff$1854         pff
C:   00000D2F  A$pff\Debug\pff3a\pff$1855         pff
C:   00000D30  A$pff\Debug\pff3a\pff$1856         pff
C:   00000D31  A$pff\Debug\pff3a\pff$1857         pff
C:   00000D32  A$pff\Debug\pff3a\pff$1858         pff
C:   00000D33  A$pff\Debug\pff3a\pff$1859         pff
C:   00000D34  A$pff\Debug\pff3a\pff$1860         pff
C:   00000D35  A$pff\Debug\pff3a\pff$1861         pff
C:   00000D36  A$pff\Debug\pff3a\pff$1862         pff
C:   00000D37  A$pff\Debug\pff3a\pff$1863         pff
C:   00000D38  A$pff\Debug\pff3a\pff$1864         pff
C:   00000D39  A$pff\Debug\pff3a\pff$1865         pff
C:   00000D3A  A$pff\Debug\pff3a\pff$1866         pff
C:   00000D3B  A$pff\Debug\pff3a\pff$1867         pff
C:   00000D3C  A$pff\Debug\pff3a\pff$1868         pff
C:   00000D3E  A$pff\Debug\pff3a\pff$1872         pff
C:   00000D3E  C$pff.c$524$2_0$29                 pff
C:   00000D41  A$pff\Debug\pff3a\pff$1873         pff
ASxxxx Linker V03.00 + NoICE + sdld,  page 63.
Hexadecimal  [32-Bits]

Area                                    Addr        Size        Decimal Bytes (Attributes)
--------------------------------        ----        ----        ------- ----- ------------
CSEG                                00000062    00003CB7 =       15543. bytes (REL,CON,CODE)

      Value  Global                              Global Defined In Module
      -----  --------------------------------   ------------------------
C:   00000D44  A$pff\Debug\pff3a\pff$1877         pff
C:   00000D44  C$pff.c$526$1_0$28                 pff
C:   00000D46  A$pff\Debug\pff3a\pff$1878         pff
C:   00000D48  A$pff\Debug\pff3a\pff$1879         pff
C:   00000D49  A$pff\Debug\pff3a\pff$1880         pff
C:   00000D4A  A$pff\Debug\pff3a\pff$1881         pff
C:   00000D4B  A$pff\Debug\pff3a\pff$1882         pff
C:   00000D4C  A$pff\Debug\pff3a\pff$1883         pff
C:   00000D4D  A$pff\Debug\pff3a\pff$1884         pff
C:   00000D4E  A$pff\Debug\pff3a\pff$1885         pff
C:   00000D4F  A$pff\Debug\pff3a\pff$1886         pff
C:   00000D50  A$pff\Debug\pff3a\pff$1887         pff
C:   00000D52  A$pff\Debug\pff3a\pff$1888         pff
C:   00000D54  A$pff\Debug\pff3a\pff$1889         pff
C:   00000D56  A$pff\Debug\pff3a\pff$1890         pff
C:   00000D57  A$pff\Debug\pff3a\pff$1891         pff
C:   00000D59  A$pff\Debug\pff3a\pff$1892         pff
C:   00000D5A  A$pff\Debug\pff3a\pff$1893         pff
C:   00000D5C  A$pff\Debug\pff3a\pff$1894         pff
C:   00000D5D  A$pff\Debug\pff3a\pff$1895         pff
C:   00000D5F  A$pff\Debug\pff3a\pff$1896         pff
C:   00000D62  A$pff\Debug\pff3a\pff$1897         pff
C:   00000D63  A$pff\Debug\pff3a\pff$1898         pff
C:   00000D66  A$pff\Debug\pff3a\pff$1901         pff
C:   00000D66  C$pff.c$527$2_0$30                 pff
C:   00000D68  A$pff\Debug\pff3a\pff$1902         pff
C:   00000D6A  A$pff\Debug\pff3a\pff$1903         pff
C:   00000D6B  A$pff\Debug\pff3a\pff$1904         pff
C:   00000D6D  A$pff\Debug\pff3a\pff$1905         pff
C:   00000D6E  A$pff\Debug\pff3a\pff$1906         pff
C:   00000D6F  A$pff\Debug\pff3a\pff$1907         pff
C:   00000D70  A$pff\Debug\pff3a\pff$1908         pff
C:   00000D71  A$pff\Debug\pff3a\pff$1909         pff
C:   00000D72  A$pff\Debug\pff3a\pff$1910         pff
C:   00000D73  A$pff\Debug\pff3a\pff$1911         pff
C:   00000D74  A$pff\Debug\pff3a\pff$1912         pff
C:   00000D76  A$pff\Debug\pff3a\pff$1913         pff
C:   00000D78  A$pff\Debug\pff3a\pff$1914         pff
C:   00000D7A  A$pff\Debug\pff3a\pff$1915         pff
C:   00000D7C  A$pff\Debug\pff3a\pff$1916         pff
C:   00000D7E  A$pff\Debug\pff3a\pff$1917         pff
C:   00000D80  A$pff\Debug\pff3a\pff$1918         pff
C:   00000D81  A$pff\Debug\pff3a\pff$1919         pff
C:   00000D84  A$pff\Debug\pff3a\pff$1920         pff
C:   00000D85  A$pff\Debug\pff3a\pff$1921         pff
C:   00000D86  A$pff\Debug\pff3a\pff$1922         pff
C:   00000D89  A$pff\Debug\pff3a\pff$1923         pff
C:   00000D8A  A$pff\Debug\pff3a\pff$1924         pff
C:   00000D8B  A$pff\Debug\pff3a\pff$1925         pff
C:   00000D8C  A$pff\Debug\pff3a\pff$1926         pff
C:   00000D8F  A$pff\Debug\pff3a\pff$1927         pff
ASxxxx Linker V03.00 + NoICE + sdld,  page 64.
Hexadecimal  [32-Bits]

Area                                    Addr        Size        Decimal Bytes (Attributes)
--------------------------------        ----        ----        ------- ----- ------------
CSEG                                00000062    00003CB7 =       15543. bytes (REL,CON,CODE)

      Value  Global                              Global Defined In Module
      -----  --------------------------------   ------------------------
C:   00000D90  A$pff\Debug\pff3a\pff$1928         pff
C:   00000D91  A$pff\Debug\pff3a\pff$1929         pff
C:   00000D92  A$pff\Debug\pff3a\pff$1930         pff
C:   00000D95  A$pff\Debug\pff3a\pff$1931         pff
C:   00000D96  A$pff\Debug\pff3a\pff$1932         pff
C:   00000D97  A$pff\Debug\pff3a\pff$1936         pff
C:   00000D97  C$pff.c$529$1_0$28                 pff
C:   00000D99  A$pff\Debug\pff3a\pff$1937         pff
C:   00000D9A  A$pff\Debug\pff3a\pff$1938         pff
C:   00000D9C  A$pff\Debug\pff3a\pff$1939         pff
C:   00000D9D  A$pff\Debug\pff3a\pff$1940         pff
C:   00000D9E  A$pff\Debug\pff3a\pff$1941         pff
C:   00000D9F  A$pff\Debug\pff3a\pff$1942         pff
C:   00000DA0  A$pff\Debug\pff3a\pff$1943         pff
C:   00000DA1  A$pff\Debug\pff3a\pff$1944         pff
C:   00000DA2  A$pff\Debug\pff3a\pff$1945         pff
C:   00000DA3  A$pff\Debug\pff3a\pff$1946         pff
C:   00000DA5  A$pff\Debug\pff3a\pff$1947         pff
C:   00000DA7  A$pff\Debug\pff3a\pff$1948         pff
C:   00000DA9  A$pff\Debug\pff3a\pff$1949         pff
C:   00000DAB  A$pff\Debug\pff3a\pff$1950         pff
C:   00000DAD  A$pff\Debug\pff3a\pff$1951         pff
C:   00000DAF  A$pff\Debug\pff3a\pff$1952         pff
C:   00000DB0  A$pff\Debug\pff3a\pff$1953         pff
C:   00000DB1  A$pff\Debug\pff3a\pff$1954         pff
C:   00000DB4  A$pff\Debug\pff3a\pff$1955         pff
C:   00000DB5  A$pff\Debug\pff3a\pff$1956         pff
C:   00000DB6  A$pff\Debug\pff3a\pff$1957         pff
C:   00000DB7  A$pff\Debug\pff3a\pff$1958         pff
C:   00000DBA  A$pff\Debug\pff3a\pff$1959         pff
C:   00000DBB  A$pff\Debug\pff3a\pff$1960         pff
C:   00000DBC  A$pff\Debug\pff3a\pff$1961         pff
C:   00000DBD  A$pff\Debug\pff3a\pff$1962         pff
C:   00000DC0  A$pff\Debug\pff3a\pff$1963         pff
C:   00000DC1  A$pff\Debug\pff3a\pff$1964         pff
C:   00000DC2  A$pff\Debug\pff3a\pff$1965         pff
C:   00000DC3  A$pff\Debug\pff3a\pff$1966         pff
C:   00000DC6  A$pff\Debug\pff3a\pff$1969         pff
C:   00000DC6  C$pff.c$530$1_0$28                 pff
C:   00000DC8  A$pff\Debug\pff3a\pff$1970         pff
C:   00000DC9  A$pff\Debug\pff3a\pff$1971         pff
C:   00000DCB  A$pff\Debug\pff3a\pff$1972         pff
C:   00000DCC  A$pff\Debug\pff3a\pff$1973         pff
C:   00000DCD  A$pff\Debug\pff3a\pff$1974         pff
C:   00000DCE  A$pff\Debug\pff3a\pff$1975         pff
C:   00000DCF  A$pff\Debug\pff3a\pff$1976         pff
C:   00000DD0  A$pff\Debug\pff3a\pff$1977         pff
C:   00000DD1  A$pff\Debug\pff3a\pff$1978         pff
C:   00000DD2  A$pff\Debug\pff3a\pff$1979         pff
C:   00000DD4  A$pff\Debug\pff3a\pff$1980         pff
C:   00000DD6  A$pff\Debug\pff3a\pff$1981         pff
ASxxxx Linker V03.00 + NoICE + sdld,  page 65.
Hexadecimal  [32-Bits]

Area                                    Addr        Size        Decimal Bytes (Attributes)
--------------------------------        ----        ----        ------- ----- ------------
CSEG                                00000062    00003CB7 =       15543. bytes (REL,CON,CODE)

      Value  Global                              Global Defined In Module
      -----  --------------------------------   ------------------------
C:   00000DD8  A$pff\Debug\pff3a\pff$1982         pff
C:   00000DD9  A$pff\Debug\pff3a\pff$1983         pff
C:   00000DDA  A$pff\Debug\pff3a\pff$1984         pff
C:   00000DDB  A$pff\Debug\pff3a\pff$1985         pff
C:   00000DDC  A$pff\Debug\pff3a\pff$1986         pff
C:   00000DDD  A$pff\Debug\pff3a\pff$1987         pff
C:   00000DDE  A$pff\Debug\pff3a\pff$1988         pff
C:   00000DDF  A$pff\Debug\pff3a\pff$1989         pff
C:   00000DE0  A$pff\Debug\pff3a\pff$1990         pff
C:   00000DE2  A$pff\Debug\pff3a\pff$1991         pff
C:   00000DE4  A$pff\Debug\pff3a\pff$1992         pff
C:   00000DE6  A$pff\Debug\pff3a\pff$1993         pff
C:   00000DE7  A$pff\Debug\pff3a\pff$1994         pff
C:   00000DE9  A$pff\Debug\pff3a\pff$1995         pff
C:   00000DEA  A$pff\Debug\pff3a\pff$1996         pff
C:   00000DEC  A$pff\Debug\pff3a\pff$1997         pff
C:   00000DED  A$pff\Debug\pff3a\pff$1998         pff
C:   00000DEF  A$pff\Debug\pff3a\pff$1999         pff
C:   00000DF0  A$pff\Debug\pff3a\pff$2000         pff
C:   00000DF1  A$pff\Debug\pff3a\pff$2001         pff
C:   00000DF3  A$pff\Debug\pff3a\pff$2002         pff
C:   00000DF5  A$pff\Debug\pff3a\pff$2003         pff
C:   00000DF7  A$pff\Debug\pff3a\pff$2004         pff
C:   00000DFA  A$pff\Debug\pff3a\pff$2005         pff
C:   00000DFB  A$pff\Debug\pff3a\pff$2006         pff
C:   00000DFD  A$pff\Debug\pff3a\pff$2007         pff
C:   00000DFF  A$pff\Debug\pff3a\pff$2008         pff
C:   00000E00  A$pff\Debug\pff3a\pff$2009         pff
C:   00000E02  A$pff\Debug\pff3a\pff$2010         pff
C:   00000E03  A$pff\Debug\pff3a\pff$2011         pff
C:   00000E05  A$pff\Debug\pff3a\pff$2012         pff
C:   00000E06  A$pff\Debug\pff3a\pff$2013         pff
C:   00000E08  A$pff\Debug\pff3a\pff$2014         pff
C:   00000E09  A$pff\Debug\pff3a\pff$2015         pff
C:   00000E0A  A$pff\Debug\pff3a\pff$2016         pff
C:   00000E0C  A$pff\Debug\pff3a\pff$2017         pff
C:   00000E0E  A$pff\Debug\pff3a\pff$2018         pff
C:   00000E10  A$pff\Debug\pff3a\pff$2019         pff
C:   00000E12  A$pff\Debug\pff3a\pff$2021         pff
C:   00000E14  A$pff\Debug\pff3a\pff$2022         pff
C:   00000E16  A$pff\Debug\pff3a\pff$2023         pff
C:   00000E17  A$pff\Debug\pff3a\pff$2024         pff
C:   00000E19  A$pff\Debug\pff3a\pff$2025         pff
C:   00000E1A  A$pff\Debug\pff3a\pff$2026         pff
C:   00000E1B  A$pff\Debug\pff3a\pff$2027         pff
C:   00000E1C  A$pff\Debug\pff3a\pff$2028         pff
C:   00000E1D  A$pff\Debug\pff3a\pff$2029         pff
C:   00000E1E  A$pff\Debug\pff3a\pff$2030         pff
C:   00000E1F  A$pff\Debug\pff3a\pff$2031         pff
C:   00000E20  A$pff\Debug\pff3a\pff$2032         pff
C:   00000E22  A$pff\Debug\pff3a\pff$2033         pff
ASxxxx Linker V03.00 + NoICE + sdld,  page 66.
Hexadecimal  [32-Bits]

Area                                    Addr        Size        Decimal Bytes (Attributes)
--------------------------------        ----        ----        ------- ----- ------------
CSEG                                00000062    00003CB7 =       15543. bytes (REL,CON,CODE)

      Value  Global                              Global Defined In Module
      -----  --------------------------------   ------------------------
C:   00000E24  A$pff\Debug\pff3a\pff$2034         pff
C:   00000E26  A$pff\Debug\pff3a\pff$2035         pff
C:   00000E28  A$pff\Debug\pff3a\pff$2036         pff
C:   00000E2A  A$pff\Debug\pff3a\pff$2037         pff
C:   00000E2C  A$pff\Debug\pff3a\pff$2038         pff
C:   00000E2D  A$pff\Debug\pff3a\pff$2039         pff
C:   00000E30  A$pff\Debug\pff3a\pff$2040         pff
C:   00000E31  A$pff\Debug\pff3a\pff$2041         pff
C:   00000E32  A$pff\Debug\pff3a\pff$2042         pff
C:   00000E35  A$pff\Debug\pff3a\pff$2043         pff
C:   00000E36  A$pff\Debug\pff3a\pff$2044         pff
C:   00000E37  A$pff\Debug\pff3a\pff$2045         pff
C:   00000E38  A$pff\Debug\pff3a\pff$2046         pff
C:   00000E3B  A$pff\Debug\pff3a\pff$2047         pff
C:   00000E3C  A$pff\Debug\pff3a\pff$2048         pff
C:   00000E3D  A$pff\Debug\pff3a\pff$2049         pff
C:   00000E3E  A$pff\Debug\pff3a\pff$2050         pff
C:   00000E41  A$pff\Debug\pff3a\pff$2051         pff
C:   00000E42  A$pff\Debug\pff3a\pff$2052         pff
C:   00000E43  A$pff\Debug\pff3a\pff$2054         pff
C:   00000E45  A$pff\Debug\pff3a\pff$2055         pff
C:   00000E47  A$pff\Debug\pff3a\pff$2056         pff
C:   00000E49  A$pff\Debug\pff3a\pff$2057         pff
C:   00000E4B  A$pff\Debug\pff3a\pff$2058         pff
C:   00000E4D  A$pff\Debug\pff3a\pff$2059         pff
C:   00000E4E  A$pff\Debug\pff3a\pff$2060         pff
C:   00000E4F  A$pff\Debug\pff3a\pff$2061         pff
C:   00000E52  A$pff\Debug\pff3a\pff$2062         pff
C:   00000E53  A$pff\Debug\pff3a\pff$2063         pff
C:   00000E54  A$pff\Debug\pff3a\pff$2064         pff
C:   00000E55  A$pff\Debug\pff3a\pff$2065         pff
C:   00000E58  A$pff\Debug\pff3a\pff$2066         pff
C:   00000E59  A$pff\Debug\pff3a\pff$2067         pff
C:   00000E5A  A$pff\Debug\pff3a\pff$2068         pff
C:   00000E5B  A$pff\Debug\pff3a\pff$2069         pff
C:   00000E5E  A$pff\Debug\pff3a\pff$2070         pff
C:   00000E5F  A$pff\Debug\pff3a\pff$2071         pff
C:   00000E60  A$pff\Debug\pff3a\pff$2072         pff
C:   00000E61  A$pff\Debug\pff3a\pff$2073         pff
C:   00000E64  A$pff\Debug\pff3a\pff$2076         pff
C:   00000E64  C$pff.c$532$1_0$28                 pff
C:   00000E67  A$pff\Debug\pff3a\pff$2080         pff
C:   00000E6A  A$pff\Debug\pff3a\pff$2081         pff
C:   00000E6C  A$pff\Debug\pff3a\pff$2084         pff
C:   00000E6C  C$pff.c$533$1_0$28                 pff
C:   00000E6C  XFpff$dir_rewind$0$0               pff
C:   00000E6D  A$pff\Debug\pff3a\pff$2103         pff
C:   00000E6D  C$pff.c$542$1_0$32                 pff
C:   00000E6D  Fpff$dir_next$0$0                  pff
C:   00000E6F  A$pff\Debug\pff3a\pff$2104         pff
C:   00000E72  A$pff\Debug\pff3a\pff$2105         pff
ASxxxx Linker V03.00 + NoICE + sdld,  page 67.
Hexadecimal  [32-Bits]

Area                                    Addr        Size        Decimal Bytes (Attributes)
--------------------------------        ----        ----        ------- ----- ------------
CSEG                                00000062    00003CB7 =       15543. bytes (REL,CON,CODE)

      Value  Global                              Global Defined In Module
      -----  --------------------------------   ------------------------
C:   00000E74  A$pff\Debug\pff3a\pff$2106         pff
C:   00000E76  A$pff\Debug\pff3a\pff$2107         pff
C:   00000E78  A$pff\Debug\pff3a\pff$2108         pff
C:   00000E7A  A$pff\Debug\pff3a\pff$2109         pff
C:   00000E7C  A$pff\Debug\pff3a\pff$2110         pff
C:   00000E7E  A$pff\Debug\pff3a\pff$2113         pff
C:   00000E7E  C$pff.c$548$2_0$32                 pff
C:   00000E81  A$pff\Debug\pff3a\pff$2114         pff
C:   00000E82  A$pff\Debug\pff3a\pff$2115         pff
C:   00000E83  A$pff\Debug\pff3a\pff$2116         pff
C:   00000E84  A$pff\Debug\pff3a\pff$2117         pff
C:   00000E85  A$pff\Debug\pff3a\pff$2118         pff
C:   00000E86  A$pff\Debug\pff3a\pff$2119         pff
C:   00000E87  A$pff\Debug\pff3a\pff$2120         pff
C:   00000E88  A$pff\Debug\pff3a\pff$2121         pff
C:   00000E89  A$pff\Debug\pff3a\pff$2122         pff
C:   00000E8B  A$pff\Debug\pff3a\pff$2123         pff
C:   00000E8D  A$pff\Debug\pff3a\pff$2124         pff
C:   00000E8E  A$pff\Debug\pff3a\pff$2125         pff
C:   00000E90  A$pff\Debug\pff3a\pff$2126         pff
C:   00000E91  A$pff\Debug\pff3a\pff$2127         pff
C:   00000E93  A$pff\Debug\pff3a\pff$2128         pff
C:   00000E94  A$pff\Debug\pff3a\pff$2129         pff
C:   00000E96  A$pff\Debug\pff3a\pff$2132         pff
C:   00000E96  C$pff.c$551$1_0$32                 pff
C:   00000E98  A$pff\Debug\pff3a\pff$2133         pff
C:   00000E99  A$pff\Debug\pff3a\pff$2134         pff
C:   00000E9B  A$pff\Debug\pff3a\pff$2135         pff
C:   00000E9C  A$pff\Debug\pff3a\pff$2136         pff
C:   00000E9E  A$pff\Debug\pff3a\pff$2137         pff
C:   00000E9F  A$pff\Debug\pff3a\pff$2138         pff
C:   00000EA1  A$pff\Debug\pff3a\pff$2139         pff
C:   00000EA4  A$pff\Debug\pff3a\pff$2140         pff
C:   00000EA5  A$pff\Debug\pff3a\pff$2141         pff
C:   00000EA6  A$pff\Debug\pff3a\pff$2142         pff
C:   00000EA9  A$pff\Debug\pff3a\pff$2143         pff
C:   00000EAA  A$pff\Debug\pff3a\pff$2144         pff
C:   00000EAC  A$pff\Debug\pff3a\pff$2145         pff
C:   00000EAE  A$pff\Debug\pff3a\pff$2146         pff
C:   00000EAF  A$pff\Debug\pff3a\pff$2147         pff
C:   00000EB1  A$pff\Debug\pff3a\pff$2148         pff
C:   00000EB2  A$pff\Debug\pff3a\pff$2149         pff
C:   00000EB3  A$pff\Debug\pff3a\pff$2150         pff
C:   00000EB4  A$pff\Debug\pff3a\pff$2151         pff
C:   00000EB5  A$pff\Debug\pff3a\pff$2152         pff
C:   00000EB6  A$pff\Debug\pff3a\pff$2153         pff
C:   00000EB7  A$pff\Debug\pff3a\pff$2156         pff
C:   00000EB7  C$pff.c$552$1_0$32                 pff
C:   00000EB9  A$pff\Debug\pff3a\pff$2157         pff
C:   00000EBB  A$pff\Debug\pff3a\pff$2158         pff
C:   00000EBC  A$pff\Debug\pff3a\pff$2159         pff
ASxxxx Linker V03.00 + NoICE + sdld,  page 68.
Hexadecimal  [32-Bits]

Area                                    Addr        Size        Decimal Bytes (Attributes)
--------------------------------        ----        ----        ------- ----- ------------
CSEG                                00000062    00003CB7 =       15543. bytes (REL,CON,CODE)

      Value  Global                              Global Defined In Module
      -----  --------------------------------   ------------------------
C:   00000EBD  A$pff\Debug\pff3a\pff$2160         pff
C:   00000EBE  A$pff\Debug\pff3a\pff$2161         pff
C:   00000EBF  A$pff\Debug\pff3a\pff$2162         pff
C:   00000EC1  A$pff\Debug\pff3a\pff$2163         pff
C:   00000EC3  A$pff\Debug\pff3a\pff$2164         pff
C:   00000EC4  A$pff\Debug\pff3a\pff$2165         pff
C:   00000EC6  A$pff\Debug\pff3a\pff$2166         pff
C:   00000EC8  A$pff\Debug\pff3a\pff$2167         pff
C:   00000EC9  A$pff\Debug\pff3a\pff$2168         pff
C:   00000ECB  A$pff\Debug\pff3a\pff$2169         pff
C:   00000ECC  A$pff\Debug\pff3a\pff$2170         pff
C:   00000ECD  A$pff\Debug\pff3a\pff$2171         pff
C:   00000ECE  A$pff\Debug\pff3a\pff$2172         pff
C:   00000ECF  A$pff\Debug\pff3a\pff$2173         pff
C:   00000ED0  A$pff\Debug\pff3a\pff$2174         pff
C:   00000ED1  A$pff\Debug\pff3a\pff$2175         pff
C:   00000ED2  A$pff\Debug\pff3a\pff$2176         pff
C:   00000ED3  A$pff\Debug\pff3a\pff$2177         pff
C:   00000ED4  A$pff\Debug\pff3a\pff$2178         pff
C:   00000ED5  A$pff\Debug\pff3a\pff$2179         pff
C:   00000ED6  A$pff\Debug\pff3a\pff$2180         pff
C:   00000ED8  A$pff\Debug\pff3a\pff$2181         pff
C:   00000EDA  A$pff\Debug\pff3a\pff$2182         pff
C:   00000EDB  A$pff\Debug\pff3a\pff$2183         pff
C:   00000EDD  A$pff\Debug\pff3a\pff$2184         pff
C:   00000EDE  A$pff\Debug\pff3a\pff$2185         pff
C:   00000EE0  A$pff\Debug\pff3a\pff$2186         pff
C:   00000EE1  A$pff\Debug\pff3a\pff$2187         pff
C:   00000EE3  A$pff\Debug\pff3a\pff$2188         pff
C:   00000EE6  A$pff\Debug\pff3a\pff$2189         pff
C:   00000EE7  A$pff\Debug\pff3a\pff$2190         pff
C:   00000EE8  A$pff\Debug\pff3a\pff$2191         pff
C:   00000EEB  A$pff\Debug\pff3a\pff$2192         pff
C:   00000EEC  A$pff\Debug\pff3a\pff$2193         pff
C:   00000EED  A$pff\Debug\pff3a\pff$2194         pff
C:   00000EF0  A$pff\Debug\pff3a\pff$2195         pff
C:   00000EF1  A$pff\Debug\pff3a\pff$2196         pff
C:   00000EF2  A$pff\Debug\pff3a\pff$2197         pff
C:   00000EF5  A$pff\Debug\pff3a\pff$2198         pff
C:   00000EF6  A$pff\Debug\pff3a\pff$2199         pff
C:   00000EF7  A$pff\Debug\pff3a\pff$2200         pff
C:   00000EF8  A$pff\Debug\pff3a\pff$2201         pff
C:   00000EF9  A$pff\Debug\pff3a\pff$2202         pff
C:   00000EFA  A$pff\Debug\pff3a\pff$2203         pff
C:   00000EFC  A$pff\Debug\pff3a\pff$2205         pff
C:   00000EFF  A$pff\Debug\pff3a\pff$2206         pff
C:   00000F02  A$pff\Debug\pff3a\pff$2210         pff
C:   00000F02  C$pff.c$554$1_0$32                 pff
C:   00000F04  A$pff\Debug\pff3a\pff$2211         pff
C:   00000F06  A$pff\Debug\pff3a\pff$2212         pff
C:   00000F07  A$pff\Debug\pff3a\pff$2213         pff
ASxxxx Linker V03.00 + NoICE + sdld,  page 69.
Hexadecimal  [32-Bits]

Area                                    Addr        Size        Decimal Bytes (Attributes)
--------------------------------        ----        ----        ------- ----- ------------
CSEG                                00000062    00003CB7 =       15543. bytes (REL,CON,CODE)

      Value  Global                              Global Defined In Module
      -----  --------------------------------   ------------------------
C:   00000F08  A$pff\Debug\pff3a\pff$2214         pff
C:   00000F0A  A$pff\Debug\pff3a\pff$2215         pff
C:   00000F0C  A$pff\Debug\pff3a\pff$2216         pff
C:   00000F0F  A$pff\Debug\pff3a\pff$2220         pff
C:   00000F0F  C$pff.c$555$2_0$33                 pff
C:   00000F10  A$pff\Debug\pff3a\pff$2221         pff
C:   00000F13  A$pff\Debug\pff3a\pff$2222         pff
C:   00000F14  A$pff\Debug\pff3a\pff$2223         pff
C:   00000F17  A$pff\Debug\pff3a\pff$2224         pff
C:   00000F18  A$pff\Debug\pff3a\pff$2225         pff
C:   00000F1B  A$pff\Debug\pff3a\pff$2226         pff
C:   00000F1C  A$pff\Debug\pff3a\pff$2228         pff
C:   00000F1E  A$pff\Debug\pff3a\pff$2229         pff
C:   00000F20  A$pff\Debug\pff3a\pff$2230         pff
C:   00000F21  A$pff\Debug\pff3a\pff$2231         pff
C:   00000F23  A$pff\Debug\pff3a\pff$2232         pff
C:   00000F24  A$pff\Debug\pff3a\pff$2233         pff
C:   00000F26  A$pff\Debug\pff3a\pff$2234         pff
C:   00000F27  A$pff\Debug\pff3a\pff$2235         pff
C:   00000F29  A$pff\Debug\pff3a\pff$2236         pff
C:   00000F2A  A$pff\Debug\pff3a\pff$2237         pff
C:   00000F2D  A$pff\Debug\pff3a\pff$2238         pff
C:   00000F2E  A$pff\Debug\pff3a\pff$2239         pff
C:   00000F2F  A$pff\Debug\pff3a\pff$2240         pff
C:   00000F32  A$pff\Debug\pff3a\pff$2241         pff
C:   00000F33  A$pff\Debug\pff3a\pff$2242         pff
C:   00000F34  A$pff\Debug\pff3a\pff$2243         pff
C:   00000F37  A$pff\Debug\pff3a\pff$2244         pff
C:   00000F38  A$pff\Debug\pff3a\pff$2245         pff
C:   00000F39  A$pff\Debug\pff3a\pff$2246         pff
C:   00000F3C  A$pff\Debug\pff3a\pff$2249         pff
C:   00000F3C  C$pff.c$557$2_0$33                 pff
C:   00000F3E  A$pff\Debug\pff3a\pff$2250         pff
C:   00000F3F  A$pff\Debug\pff3a\pff$2251         pff
C:   00000F41  A$pff\Debug\pff3a\pff$2252         pff
C:   00000F43  A$pff\Debug\pff3a\pff$2253         pff
C:   00000F44  A$pff\Debug\pff3a\pff$2254         pff
C:   00000F46  A$pff\Debug\pff3a\pff$2255         pff
C:   00000F47  A$pff\Debug\pff3a\pff$2256         pff
C:   00000F48  A$pff\Debug\pff3a\pff$2257         pff
C:   00000F49  A$pff\Debug\pff3a\pff$2258         pff
C:   00000F4A  A$pff\Debug\pff3a\pff$2259         pff
C:   00000F4B  A$pff\Debug\pff3a\pff$2260         pff
C:   00000F4C  A$pff\Debug\pff3a\pff$2261         pff
C:   00000F4D  A$pff\Debug\pff3a\pff$2262         pff
C:   00000F4E  A$pff\Debug\pff3a\pff$2263         pff
C:   00000F4F  A$pff\Debug\pff3a\pff$2264         pff
C:   00000F50  A$pff\Debug\pff3a\pff$2265         pff
C:   00000F51  A$pff\Debug\pff3a\pff$2266         pff
C:   00000F53  A$pff\Debug\pff3a\pff$2267         pff
C:   00000F55  A$pff\Debug\pff3a\pff$2268         pff
ASxxxx Linker V03.00 + NoICE + sdld,  page 70.
Hexadecimal  [32-Bits]

Area                                    Addr        Size        Decimal Bytes (Attributes)
--------------------------------        ----        ----        ------- ----- ------------
CSEG                                00000062    00003CB7 =       15543. bytes (REL,CON,CODE)

      Value  Global                              Global Defined In Module
      -----  --------------------------------   ------------------------
C:   00000F56  A$pff\Debug\pff3a\pff$2269         pff
C:   00000F58  A$pff\Debug\pff3a\pff$2270         pff
C:   00000F59  A$pff\Debug\pff3a\pff$2271         pff
C:   00000F5B  A$pff\Debug\pff3a\pff$2272         pff
C:   00000F5C  A$pff\Debug\pff3a\pff$2273         pff
C:   00000F5E  A$pff\Debug\pff3a\pff$2274         pff
C:   00000F60  A$pff\Debug\pff3a\pff$2275         pff
C:   00000F62  A$pff\Debug\pff3a\pff$2276         pff
C:   00000F63  A$pff\Debug\pff3a\pff$2277         pff
C:   00000F66  A$pff\Debug\pff3a\pff$2278         pff
C:   00000F67  A$pff\Debug\pff3a\pff$2279         pff
C:   00000F68  A$pff\Debug\pff3a\pff$2280         pff
C:   00000F6B  A$pff\Debug\pff3a\pff$2281         pff
C:   00000F6C  A$pff\Debug\pff3a\pff$2282         pff
C:   00000F6D  A$pff\Debug\pff3a\pff$2283         pff
C:   00000F6E  A$pff\Debug\pff3a\pff$2284         pff
C:   00000F71  A$pff\Debug\pff3a\pff$2285         pff
C:   00000F72  A$pff\Debug\pff3a\pff$2286         pff
C:   00000F73  A$pff\Debug\pff3a\pff$2287         pff
C:   00000F74  A$pff\Debug\pff3a\pff$2288         pff
C:   00000F77  A$pff\Debug\pff3a\pff$2289         pff
C:   00000F78  A$pff\Debug\pff3a\pff$2290         pff
C:   00000F79  A$pff\Debug\pff3a\pff$2291         pff
C:   00000F7B  A$pff\Debug\pff3a\pff$2292         pff
C:   00000F7D  A$pff\Debug\pff3a\pff$2293         pff
C:   00000F7E  A$pff\Debug\pff3a\pff$2294         pff
C:   00000F7F  A$pff\Debug\pff3a\pff$2295         pff
C:   00000F80  A$pff\Debug\pff3a\pff$2296         pff
C:   00000F81  A$pff\Debug\pff3a\pff$2297         pff
C:   00000F82  A$pff\Debug\pff3a\pff$2298         pff
C:   00000F83  A$pff\Debug\pff3a\pff$2299         pff
C:   00000F84  A$pff\Debug\pff3a\pff$2300         pff
C:   00000F85  A$pff\Debug\pff3a\pff$2301         pff
C:   00000F87  A$pff\Debug\pff3a\pff$2304         pff
C:   00000F87  C$pff.c$558$3_0$34                 pff
C:   00000F89  A$pff\Debug\pff3a\pff$2305         pff
C:   00000F8B  A$pff\Debug\pff3a\pff$2306         pff
C:   00000F8C  A$pff\Debug\pff3a\pff$2307         pff
C:   00000F8E  A$pff\Debug\pff3a\pff$2308         pff
C:   00000F8F  A$pff\Debug\pff3a\pff$2309         pff
C:   00000F90  A$pff\Debug\pff3a\pff$2310         pff
C:   00000F91  A$pff\Debug\pff3a\pff$2311         pff
C:   00000F92  A$pff\Debug\pff3a\pff$2312         pff
C:   00000F93  A$pff\Debug\pff3a\pff$2313         pff
C:   00000F94  A$pff\Debug\pff3a\pff$2314         pff
C:   00000F95  A$pff\Debug\pff3a\pff$2315         pff
C:   00000F97  A$pff\Debug\pff3a\pff$2316         pff
C:   00000F99  A$pff\Debug\pff3a\pff$2317         pff
C:   00000F9B  A$pff\Debug\pff3a\pff$2318         pff
C:   00000F9D  A$pff\Debug\pff3a\pff$2319         pff
C:   00000FA0  A$pff\Debug\pff3a\pff$2320         pff
ASxxxx Linker V03.00 + NoICE + sdld,  page 71.
Hexadecimal  [32-Bits]

Area                                    Addr        Size        Decimal Bytes (Attributes)
--------------------------------        ----        ----        ------- ----- ------------
CSEG                                00000062    00003CB7 =       15543. bytes (REL,CON,CODE)

      Value  Global                              Global Defined In Module
      -----  --------------------------------   ------------------------
C:   00000FA1  A$pff\Debug\pff3a\pff$2321         pff
C:   00000FA2  A$pff\Debug\pff3a\pff$2322         pff
C:   00000FA5  A$pff\Debug\pff3a\pff$2323         pff
C:   00000FA6  A$pff\Debug\pff3a\pff$2324         pff
C:   00000FA8  A$pff\Debug\pff3a\pff$2325         pff
C:   00000FAA  A$pff\Debug\pff3a\pff$2326         pff
C:   00000FAB  A$pff\Debug\pff3a\pff$2327         pff
C:   00000FAC  A$pff\Debug\pff3a\pff$2328         pff
C:   00000FAD  A$pff\Debug\pff3a\pff$2329         pff
C:   00000FAE  A$pff\Debug\pff3a\pff$2330         pff
C:   00000FAF  A$pff\Debug\pff3a\pff$2331         pff
C:   00000FB0  A$pff\Debug\pff3a\pff$2332         pff
C:   00000FB1  A$pff\Debug\pff3a\pff$2333         pff
C:   00000FB3  A$pff\Debug\pff3a\pff$2334         pff
C:   00000FB6  A$pff\Debug\pff3a\pff$2336         pff
C:   00000FB9  A$pff\Debug\pff3a\pff$2337         pff
C:   00000FBC  A$pff\Debug\pff3a\pff$2341         pff
C:   00000FBC  C$pff.c$561$1_0$32                 pff
C:   00000FBE  A$pff\Debug\pff3a\pff$2342         pff
C:   00000FC0  A$pff\Debug\pff3a\pff$2343         pff
C:   00000FC1  A$pff\Debug\pff3a\pff$2344         pff
C:   00000FC3  A$pff\Debug\pff3a\pff$2345         pff
C:   00000FC4  A$pff\Debug\pff3a\pff$2346         pff
C:   00000FC5  A$pff\Debug\pff3a\pff$2347         pff
C:   00000FC6  A$pff\Debug\pff3a\pff$2348         pff
C:   00000FC7  A$pff\Debug\pff3a\pff$2349         pff
C:   00000FC8  A$pff\Debug\pff3a\pff$2350         pff
C:   00000FCA  A$pff\Debug\pff3a\pff$2351         pff
C:   00000FCB  A$pff\Debug\pff3a\pff$2352         pff
C:   00000FCC  A$pff\Debug\pff3a\pff$2353         pff
C:   00000FCE  A$pff\Debug\pff3a\pff$2354         pff
C:   00000FCF  A$pff\Debug\pff3a\pff$2355         pff
C:   00000FD0  A$pff\Debug\pff3a\pff$2356         pff
C:   00000FD1  A$pff\Debug\pff3a\pff$2357         pff
C:   00000FD2  A$pff\Debug\pff3a\pff$2358         pff
C:   00000FD4  A$pff\Debug\pff3a\pff$2359         pff
C:   00000FD6  A$pff\Debug\pff3a\pff$2360         pff
C:   00000FD7  A$pff\Debug\pff3a\pff$2361         pff
C:   00000FD9  A$pff\Debug\pff3a\pff$2362         pff
C:   00000FDA  A$pff\Debug\pff3a\pff$2363         pff
C:   00000FDB  A$pff\Debug\pff3a\pff$2364         pff
C:   00000FDC  A$pff\Debug\pff3a\pff$2365         pff
C:   00000FDD  A$pff\Debug\pff3a\pff$2366         pff
C:   00000FDE  A$pff\Debug\pff3a\pff$2367         pff
C:   00000FDF  A$pff\Debug\pff3a\pff$2368         pff
C:   00000FE0  A$pff\Debug\pff3a\pff$2369         pff
C:   00000FE2  A$pff\Debug\pff3a\pff$2370         pff
C:   00000FE4  A$pff\Debug\pff3a\pff$2371         pff
C:   00000FE6  A$pff\Debug\pff3a\pff$2372         pff
C:   00000FE8  A$pff\Debug\pff3a\pff$2373         pff
C:   00000FEB  A$pff\Debug\pff3a\pff$2374         pff
ASxxxx Linker V03.00 + NoICE + sdld,  page 72.
Hexadecimal  [32-Bits]

Area                                    Addr        Size        Decimal Bytes (Attributes)
--------------------------------        ----        ----        ------- ----- ------------
CSEG                                00000062    00003CB7 =       15543. bytes (REL,CON,CODE)

      Value  Global                              Global Defined In Module
      -----  --------------------------------   ------------------------
C:   00000FEC  A$pff\Debug\pff3a\pff$2375         pff
C:   00000FEE  A$pff\Debug\pff3a\pff$2376         pff
C:   00000FEF  A$pff\Debug\pff3a\pff$2377         pff
C:   00000FF2  A$pff\Debug\pff3a\pff$2378         pff
C:   00000FF3  A$pff\Debug\pff3a\pff$2380         pff
C:   00000FF4  A$pff\Debug\pff3a\pff$2381         pff
C:   00000FF6  A$pff\Debug\pff3a\pff$2382         pff
C:   00000FF7  A$pff\Debug\pff3a\pff$2383         pff
C:   00000FF9  A$pff\Debug\pff3a\pff$2384         pff
C:   00000FFA  A$pff\Debug\pff3a\pff$2385         pff
C:   00000FFB  A$pff\Debug\pff3a\pff$2386         pff
C:   00000FFD  A$pff\Debug\pff3a\pff$2387         pff
C:   00001000  A$pff\Debug\pff3a\pff$2391         pff
C:   00001000  C$pff.c$562$4_0$36                 pff
C:   00001002  A$pff\Debug\pff3a\pff$2392         pff
C:   00001004  A$pff\Debug\pff3a\pff$2393         pff
C:   00001005  A$pff\Debug\pff3a\pff$2394         pff
C:   00001007  A$pff\Debug\pff3a\pff$2395         pff
C:   00001008  A$pff\Debug\pff3a\pff$2396         pff
C:   0000100A  A$pff\Debug\pff3a\pff$2397         pff
C:   0000100B  A$pff\Debug\pff3a\pff$2398         pff
C:   0000100D  A$pff\Debug\pff3a\pff$2399         pff
C:   0000100E  A$pff\Debug\pff3a\pff$2400         pff
C:   0000100F  A$pff\Debug\pff3a\pff$2401         pff
C:   00001012  A$pff\Debug\pff3a\pff$2402         pff
C:   00001014  A$pff\Debug\pff3a\pff$2403         pff
C:   00001016  A$pff\Debug\pff3a\pff$2404         pff
C:   00001018  A$pff\Debug\pff3a\pff$2405         pff
C:   00001019  A$pff\Debug\pff3a\pff$2406         pff
C:   0000101B  A$pff\Debug\pff3a\pff$2407         pff
C:   0000101D  A$pff\Debug\pff3a\pff$2408         pff
C:   0000101E  A$pff\Debug\pff3a\pff$2409         pff
C:   00001020  A$pff\Debug\pff3a\pff$2410         pff
C:   00001021  A$pff\Debug\pff3a\pff$2411         pff
C:   00001023  A$pff\Debug\pff3a\pff$2412         pff
C:   00001024  A$pff\Debug\pff3a\pff$2413         pff
C:   00001026  A$pff\Debug\pff3a\pff$2414         pff
C:   00001027  A$pff\Debug\pff3a\pff$2415         pff
C:   00001029  A$pff\Debug\pff3a\pff$2418         pff
C:   00001029  C$pff.c$563$4_0$36                 pff
C:   0000102B  A$pff\Debug\pff3a\pff$2419         pff
C:   0000102D  A$pff\Debug\pff3a\pff$2420         pff
C:   0000102E  A$pff\Debug\pff3a\pff$2421         pff
C:   0000102F  A$pff\Debug\pff3a\pff$2422         pff
C:   00001031  A$pff\Debug\pff3a\pff$2423         pff
C:   00001032  A$pff\Debug\pff3a\pff$2424         pff
C:   00001033  A$pff\Debug\pff3a\pff$2425         pff
C:   00001034  A$pff\Debug\pff3a\pff$2426         pff
C:   00001035  A$pff\Debug\pff3a\pff$2427         pff
C:   00001036  A$pff\Debug\pff3a\pff$2428         pff
C:   00001037  A$pff\Debug\pff3a\pff$2429         pff
ASxxxx Linker V03.00 + NoICE + sdld,  page 73.
Hexadecimal  [32-Bits]

Area                                    Addr        Size        Decimal Bytes (Attributes)
--------------------------------        ----        ----        ------- ----- ------------
CSEG                                00000062    00003CB7 =       15543. bytes (REL,CON,CODE)

      Value  Global                              Global Defined In Module
      -----  --------------------------------   ------------------------
C:   00001038  A$pff\Debug\pff3a\pff$2430         pff
C:   00001039  A$pff\Debug\pff3a\pff$2431         pff
C:   0000103A  A$pff\Debug\pff3a\pff$2432         pff
C:   0000103B  A$pff\Debug\pff3a\pff$2433         pff
C:   0000103D  A$pff\Debug\pff3a\pff$2434         pff
C:   00001040  A$pff\Debug\pff3a\pff$2435         pff
C:   00001043  A$pff\Debug\pff3a\pff$2439         pff
C:   00001043  C$pff.c$564$4_0$36                 pff
C:   00001045  A$pff\Debug\pff3a\pff$2440         pff
C:   00001047  A$pff\Debug\pff3a\pff$2441         pff
C:   00001048  A$pff\Debug\pff3a\pff$2442         pff
C:   0000104A  A$pff\Debug\pff3a\pff$2443         pff
C:   0000104B  A$pff\Debug\pff3a\pff$2444         pff
C:   0000104C  A$pff\Debug\pff3a\pff$2445         pff
C:   0000104D  A$pff\Debug\pff3a\pff$2446         pff
C:   0000104E  A$pff\Debug\pff3a\pff$2447         pff
C:   0000104F  A$pff\Debug\pff3a\pff$2448         pff
C:   00001050  A$pff\Debug\pff3a\pff$2449         pff
C:   00001051  A$pff\Debug\pff3a\pff$2450         pff
C:   00001053  A$pff\Debug\pff3a\pff$2451         pff
C:   00001055  A$pff\Debug\pff3a\pff$2452         pff
C:   00001057  A$pff\Debug\pff3a\pff$2453         pff
C:   00001059  A$pff\Debug\pff3a\pff$2454         pff
C:   0000105C  A$pff\Debug\pff3a\pff$2455         pff
C:   0000105D  A$pff\Debug\pff3a\pff$2456         pff
C:   0000105E  A$pff\Debug\pff3a\pff$2457         pff
C:   00001061  A$pff\Debug\pff3a\pff$2458         pff
C:   00001062  A$pff\Debug\pff3a\pff$2459         pff
C:   00001063  A$pff\Debug\pff3a\pff$2460         pff
C:   00001066  A$pff\Debug\pff3a\pff$2461         pff
C:   00001067  A$pff\Debug\pff3a\pff$2462         pff
C:   00001068  A$pff\Debug\pff3a\pff$2463         pff
C:   0000106B  A$pff\Debug\pff3a\pff$2464         pff
C:   0000106C  A$pff\Debug\pff3a\pff$2465         pff
C:   0000106E  A$pff\Debug\pff3a\pff$2466         pff
C:   00001070  A$pff\Debug\pff3a\pff$2467         pff
C:   00001071  A$pff\Debug\pff3a\pff$2468         pff
C:   00001072  A$pff\Debug\pff3a\pff$2469         pff
C:   00001073  A$pff\Debug\pff3a\pff$2470         pff
C:   00001074  A$pff\Debug\pff3a\pff$2471         pff
C:   00001075  A$pff\Debug\pff3a\pff$2472         pff
C:   00001076  A$pff\Debug\pff3a\pff$2473         pff
C:   00001077  A$pff\Debug\pff3a\pff$2474         pff
C:   00001078  A$pff\Debug\pff3a\pff$2475         pff
C:   00001079  A$pff\Debug\pff3a\pff$2476         pff
C:   0000107A  A$pff\Debug\pff3a\pff$2477         pff
C:   0000107B  A$pff\Debug\pff3a\pff$2478         pff
C:   0000107C  A$pff\Debug\pff3a\pff$2479         pff
C:   0000107D  A$pff\Debug\pff3a\pff$2480         pff
C:   0000107F  A$pff\Debug\pff3a\pff$2481         pff
C:   00001082  A$pff\Debug\pff3a\pff$2482         pff
ASxxxx Linker V03.00 + NoICE + sdld,  page 74.
Hexadecimal  [32-Bits]

Area                                    Addr        Size        Decimal Bytes (Attributes)
--------------------------------        ----        ----        ------- ----- ------------
CSEG                                00000062    00003CB7 =       15543. bytes (REL,CON,CODE)

      Value  Global                              Global Defined In Module
      -----  --------------------------------   ------------------------
C:   00001085  A$pff\Debug\pff3a\pff$2486         pff
C:   00001085  C$pff.c$565$4_0$36                 pff
C:   00001087  A$pff\Debug\pff3a\pff$2487         pff
C:   00001089  A$pff\Debug\pff3a\pff$2488         pff
C:   0000108A  A$pff\Debug\pff3a\pff$2489         pff
C:   0000108C  A$pff\Debug\pff3a\pff$2490         pff
C:   0000108D  A$pff\Debug\pff3a\pff$2491         pff
C:   0000108F  A$pff\Debug\pff3a\pff$2492         pff
C:   00001090  A$pff\Debug\pff3a\pff$2493         pff
C:   00001092  A$pff\Debug\pff3a\pff$2494         pff
C:   00001094  A$pff\Debug\pff3a\pff$2495         pff
C:   00001096  A$pff\Debug\pff3a\pff$2496         pff
C:   00001097  A$pff\Debug\pff3a\pff$2497         pff
C:   00001098  A$pff\Debug\pff3a\pff$2498         pff
C:   0000109B  A$pff\Debug\pff3a\pff$2499         pff
C:   0000109C  A$pff\Debug\pff3a\pff$2500         pff
C:   0000109D  A$pff\Debug\pff3a\pff$2501         pff
C:   0000109E  A$pff\Debug\pff3a\pff$2502         pff
C:   000010A1  A$pff\Debug\pff3a\pff$2503         pff
C:   000010A2  A$pff\Debug\pff3a\pff$2504         pff
C:   000010A3  A$pff\Debug\pff3a\pff$2505         pff
C:   000010A4  A$pff\Debug\pff3a\pff$2506         pff
C:   000010A7  A$pff\Debug\pff3a\pff$2507         pff
C:   000010A8  A$pff\Debug\pff3a\pff$2508         pff
C:   000010A9  A$pff\Debug\pff3a\pff$2509         pff
C:   000010AA  A$pff\Debug\pff3a\pff$2510         pff
C:   000010AD  A$pff\Debug\pff3a\pff$2513         pff
C:   000010AD  C$pff.c$566$4_0$36                 pff
C:   000010AF  A$pff\Debug\pff3a\pff$2514         pff
C:   000010B1  A$pff\Debug\pff3a\pff$2515         pff
C:   000010B2  A$pff\Debug\pff3a\pff$2516         pff
C:   000010B4  A$pff\Debug\pff3a\pff$2517         pff
C:   000010B5  A$pff\Debug\pff3a\pff$2518         pff
C:   000010B7  A$pff\Debug\pff3a\pff$2519         pff
C:   000010B8  A$pff\Debug\pff3a\pff$2520         pff
C:   000010BA  A$pff\Debug\pff3a\pff$2521         pff
C:   000010BB  A$pff\Debug\pff3a\pff$2522         pff
C:   000010BC  A$pff\Debug\pff3a\pff$2523         pff
C:   000010BF  A$pff\Debug\pff3a\pff$2524         pff
C:   000010C1  A$pff\Debug\pff3a\pff$2525         pff
C:   000010C3  A$pff\Debug\pff3a\pff$2526         pff
C:   000010C5  A$pff\Debug\pff3a\pff$2527         pff
C:   000010C6  A$pff\Debug\pff3a\pff$2528         pff
C:   000010C8  A$pff\Debug\pff3a\pff$2529         pff
C:   000010CA  A$pff\Debug\pff3a\pff$2530         pff
C:   000010CB  A$pff\Debug\pff3a\pff$2531         pff
C:   000010CD  A$pff\Debug\pff3a\pff$2532         pff
C:   000010CE  A$pff\Debug\pff3a\pff$2533         pff
C:   000010D0  A$pff\Debug\pff3a\pff$2534         pff
C:   000010D1  A$pff\Debug\pff3a\pff$2535         pff
C:   000010D3  A$pff\Debug\pff3a\pff$2536         pff
ASxxxx Linker V03.00 + NoICE + sdld,  page 75.
Hexadecimal  [32-Bits]

Area                                    Addr        Size        Decimal Bytes (Attributes)
--------------------------------        ----        ----        ------- ----- ------------
CSEG                                00000062    00003CB7 =       15543. bytes (REL,CON,CODE)

      Value  Global                              Global Defined In Module
      -----  --------------------------------   ------------------------
C:   000010D4  A$pff\Debug\pff3a\pff$2537         pff
C:   000010D7  A$pff\Debug\pff3a\pff$2538         pff
C:   000010D8  A$pff\Debug\pff3a\pff$2539         pff
C:   000010D9  A$pff\Debug\pff3a\pff$2540         pff
C:   000010DC  A$pff\Debug\pff3a\pff$2541         pff
C:   000010DD  A$pff\Debug\pff3a\pff$2542         pff
C:   000010DE  A$pff\Debug\pff3a\pff$2543         pff
C:   000010E1  A$pff\Debug\pff3a\pff$2544         pff
C:   000010E2  A$pff\Debug\pff3a\pff$2545         pff
C:   000010E3  A$pff\Debug\pff3a\pff$2546         pff
C:   000010E6  A$pff\Debug\pff3a\pff$2550         pff
C:   000010E6  C$pff.c$571$1_0$32                 pff
C:   000010E8  A$pff\Debug\pff3a\pff$2551         pff
C:   000010E9  A$pff\Debug\pff3a\pff$2552         pff
C:   000010EB  A$pff\Debug\pff3a\pff$2553         pff
C:   000010EC  A$pff\Debug\pff3a\pff$2554         pff
C:   000010EE  A$pff\Debug\pff3a\pff$2555         pff
C:   000010EF  A$pff\Debug\pff3a\pff$2556         pff
C:   000010F1  A$pff\Debug\pff3a\pff$2557         pff
C:   000010F3  A$pff\Debug\pff3a\pff$2558         pff
C:   000010F5  A$pff\Debug\pff3a\pff$2559         pff
C:   000010F6  A$pff\Debug\pff3a\pff$2560         pff
C:   000010F7  A$pff\Debug\pff3a\pff$2561         pff
C:   000010FA  A$pff\Debug\pff3a\pff$2562         pff
C:   000010FB  A$pff\Debug\pff3a\pff$2563         pff
C:   000010FC  A$pff\Debug\pff3a\pff$2564         pff
C:   000010FD  A$pff\Debug\pff3a\pff$2565         pff
C:   00001100  A$pff\Debug\pff3a\pff$2568         pff
C:   00001100  C$pff.c$573$1_0$32                 pff
C:   00001103  A$pff\Debug\pff3a\pff$2572         pff
C:   00001106  A$pff\Debug\pff3a\pff$2573         pff
C:   00001108  A$pff\Debug\pff3a\pff$2576         pff
C:   00001108  C$pff.c$574$1_0$32                 pff
C:   00001108  XFpff$dir_next$0$0                 pff
C:   00001109  A$pff\Debug\pff3a\pff$2594         pff
C:   00001109  C$pff.c$583$1_0$38                 pff
C:   00001109  Fpff$dir_find$0$0                  pff
C:   0000110B  A$pff\Debug\pff3a\pff$2595         pff
C:   0000110E  A$pff\Debug\pff3a\pff$2596         pff
C:   00001110  A$pff\Debug\pff3a\pff$2597         pff
C:   00001112  A$pff\Debug\pff3a\pff$2598         pff
C:   00001114  A$pff\Debug\pff3a\pff$2599         pff
C:   00001116  A$pff\Debug\pff3a\pff$2600         pff
C:   00001118  A$pff\Debug\pff3a\pff$2601         pff
C:   0000111A  A$pff\Debug\pff3a\pff$2604         pff
C:   0000111A  C$pff.c$592$1_0$38                 pff
C:   0000111C  A$pff\Debug\pff3a\pff$2605         pff
C:   0000111D  A$pff\Debug\pff3a\pff$2606         pff
C:   0000111F  A$pff\Debug\pff3a\pff$2607         pff
C:   00001120  A$pff\Debug\pff3a\pff$2608         pff
C:   00001122  A$pff\Debug\pff3a\pff$2609         pff
ASxxxx Linker V03.00 + NoICE + sdld,  page 76.
Hexadecimal  [32-Bits]

Area                                    Addr        Size        Decimal Bytes (Attributes)
--------------------------------        ----        ----        ------- ----- ------------
CSEG                                00000062    00003CB7 =       15543. bytes (REL,CON,CODE)

      Value  Global                              Global Defined In Module
      -----  --------------------------------   ------------------------
C:   00001123  A$pff\Debug\pff3a\pff$2610         pff
C:   00001125  A$pff\Debug\pff3a\pff$2611         pff
C:   00001128  A$pff\Debug\pff3a\pff$2614         pff
C:   00001128  C$pff.c$593$1_0$38                 pff
C:   0000112A  A$pff\Debug\pff3a\pff$2615         pff
C:   0000112B  A$pff\Debug\pff3a\pff$2616         pff
C:   0000112D  A$pff\Debug\pff3a\pff$2617         pff
C:   0000112F  A$pff\Debug\pff3a\pff$2618         pff
C:   00001132  A$pff\Debug\pff3a\pff$2622         pff
C:   00001132  C$pff.c$595$1_0$38                 pff
C:   00001134  A$pff\Debug\pff3a\pff$2623         pff
C:   00001135  A$pff\Debug\pff3a\pff$2624         pff
C:   00001137  A$pff\Debug\pff3a\pff$2625         pff
C:   00001138  A$pff\Debug\pff3a\pff$2626         pff
C:   00001139  A$pff\Debug\pff3a\pff$2627         pff
C:   0000113A  A$pff\Debug\pff3a\pff$2628         pff
C:   0000113B  A$pff\Debug\pff3a\pff$2629         pff
C:   0000113C  A$pff\Debug\pff3a\pff$2630         pff
C:   0000113D  A$pff\Debug\pff3a\pff$2631         pff
C:   0000113E  A$pff\Debug\pff3a\pff$2632         pff
C:   00001140  A$pff\Debug\pff3a\pff$2633         pff
C:   00001142  A$pff\Debug\pff3a\pff$2634         pff
C:   00001143  A$pff\Debug\pff3a\pff$2635         pff
C:   00001145  A$pff\Debug\pff3a\pff$2636         pff
C:   00001147  A$pff\Debug\pff3a\pff$2637         pff
C:   00001148  A$pff\Debug\pff3a\pff$2638         pff
C:   0000114A  A$pff\Debug\pff3a\pff$2639         pff
C:   0000114B  A$pff\Debug\pff3a\pff$2640         pff
C:   0000114C  A$pff\Debug\pff3a\pff$2641         pff
C:   0000114D  A$pff\Debug\pff3a\pff$2642         pff
C:   0000114E  A$pff\Debug\pff3a\pff$2643         pff
C:   0000114F  A$pff\Debug\pff3a\pff$2644         pff
C:   00001150  A$pff\Debug\pff3a\pff$2645         pff
C:   00001151  A$pff\Debug\pff3a\pff$2646         pff
C:   00001152  A$pff\Debug\pff3a\pff$2647         pff
C:   00001153  A$pff\Debug\pff3a\pff$2648         pff
C:   00001154  A$pff\Debug\pff3a\pff$2649         pff
C:   00001155  A$pff\Debug\pff3a\pff$2653         pff
C:   00001155  C$pff.c$596$1_0$38                 pff
C:   00001157  A$pff\Debug\pff3a\pff$2654         pff
C:   00001159  A$pff\Debug\pff3a\pff$2655         pff
C:   0000115B  A$pff\Debug\pff3a\pff$2656         pff
C:   0000115D  A$pff\Debug\pff3a\pff$2657         pff
C:   0000115E  A$pff\Debug\pff3a\pff$2658         pff
C:   00001160  A$pff\Debug\pff3a\pff$2659         pff
C:   00001161  A$pff\Debug\pff3a\pff$2660         pff
C:   00001163  A$pff\Debug\pff3a\pff$2661         pff
C:   00001164  A$pff\Debug\pff3a\pff$2662         pff
C:   00001166  A$pff\Debug\pff3a\pff$2663         pff
C:   00001169  A$pff\Debug\pff3a\pff$2664         pff
C:   0000116A  A$pff\Debug\pff3a\pff$2665         pff
ASxxxx Linker V03.00 + NoICE + sdld,  page 77.
Hexadecimal  [32-Bits]

Area                                    Addr        Size        Decimal Bytes (Attributes)
--------------------------------        ----        ----        ------- ----- ------------
CSEG                                00000062    00003CB7 =       15543. bytes (REL,CON,CODE)

      Value  Global                              Global Defined In Module
      -----  --------------------------------   ------------------------
C:   0000116B  A$pff\Debug\pff3a\pff$2666         pff
C:   0000116E  A$pff\Debug\pff3a\pff$2667         pff
C:   00001171  A$pff\Debug\pff3a\pff$2668         pff
C:   00001172  A$pff\Debug\pff3a\pff$2669         pff
C:   00001173  A$pff\Debug\pff3a\pff$2670         pff
C:   00001174  A$pff\Debug\pff3a\pff$2671         pff
C:   00001176  A$pff\Debug\pff3a\pff$2672         pff
C:   00001177  A$pff\Debug\pff3a\pff$2673         pff
C:   00001178  A$pff\Debug\pff3a\pff$2674         pff
C:   00001179  A$pff\Debug\pff3a\pff$2675         pff
C:   0000117A  A$pff\Debug\pff3a\pff$2676         pff
C:   0000117B  A$pff\Debug\pff3a\pff$2677         pff
C:   0000117C  A$pff\Debug\pff3a\pff$2678         pff
C:   0000117E  A$pff\Debug\pff3a\pff$2679         pff
C:   0000117F  A$pff\Debug\pff3a\pff$2680         pff
C:   00001180  A$pff\Debug\pff3a\pff$2681         pff
C:   00001181  A$pff\Debug\pff3a\pff$2682         pff
C:   00001183  A$pff\Debug\pff3a\pff$2683         pff
C:   00001185  A$pff\Debug\pff3a\pff$2684         pff
C:   00001186  A$pff\Debug\pff3a\pff$2685         pff
C:   00001188  A$pff\Debug\pff3a\pff$2686         pff
C:   00001189  A$pff\Debug\pff3a\pff$2687         pff
C:   0000118B  A$pff\Debug\pff3a\pff$2688         pff
C:   0000118C  A$pff\Debug\pff3a\pff$2689         pff
C:   0000118E  A$pff\Debug\pff3a\pff$2690         pff
C:   00001191  A$pff\Debug\pff3a\pff$2691         pff
C:   00001192  A$pff\Debug\pff3a\pff$2692         pff
C:   00001193  A$pff\Debug\pff3a\pff$2693         pff
C:   00001196  A$pff\Debug\pff3a\pff$2694         pff
C:   00001197  A$pff\Debug\pff3a\pff$2695         pff
C:   00001198  A$pff\Debug\pff3a\pff$2696         pff
C:   0000119B  A$pff\Debug\pff3a\pff$2697         pff
C:   0000119C  A$pff\Debug\pff3a\pff$2698         pff
C:   0000119D  A$pff\Debug\pff3a\pff$2699         pff
C:   000011A0  A$pff\Debug\pff3a\pff$2700         pff
C:   000011A1  A$pff\Debug\pff3a\pff$2701         pff
C:   000011A3  A$pff\Debug\pff3a\pff$2702         pff
C:   000011A5  A$pff\Debug\pff3a\pff$2703         pff
C:   000011A7  A$pff\Debug\pff3a\pff$2704         pff
C:   000011A9  A$pff\Debug\pff3a\pff$2705         pff
C:   000011AB  A$pff\Debug\pff3a\pff$2706         pff
C:   000011AC  A$pff\Debug\pff3a\pff$2707         pff
C:   000011AE  A$pff\Debug\pff3a\pff$2708         pff
C:   000011B0  A$pff\Debug\pff3a\pff$2709         pff
C:   000011B2  A$pff\Debug\pff3a\pff$2710         pff
C:   000011B4  A$pff\Debug\pff3a\pff$2711         pff
C:   000011B6  A$pff\Debug\pff3a\pff$2712         pff
C:   000011B8  A$pff\Debug\pff3a\pff$2713         pff
C:   000011BA  A$pff\Debug\pff3a\pff$2714         pff
C:   000011BC  A$pff\Debug\pff3a\pff$2715         pff
C:   000011BE  A$pff\Debug\pff3a\pff$2716         pff
ASxxxx Linker V03.00 + NoICE + sdld,  page 78.
Hexadecimal  [32-Bits]

Area                                    Addr        Size        Decimal Bytes (Attributes)
--------------------------------        ----        ----        ------- ----- ------------
CSEG                                00000062    00003CB7 =       15543. bytes (REL,CON,CODE)

      Value  Global                              Global Defined In Module
      -----  --------------------------------   ------------------------
C:   000011BF  A$pff\Debug\pff3a\pff$2717         pff
C:   000011C1  A$pff\Debug\pff3a\pff$2718         pff
C:   000011C2  A$pff\Debug\pff3a\pff$2719         pff
C:   000011C4  A$pff\Debug\pff3a\pff$2720         pff
C:   000011C5  A$pff\Debug\pff3a\pff$2721         pff
C:   000011C7  A$pff\Debug\pff3a\pff$2722         pff
C:   000011CA  A$pff\Debug\pff3a\pff$2723         pff
C:   000011CC  A$pff\Debug\pff3a\pff$2724         pff
C:   000011CE  A$pff\Debug\pff3a\pff$2725         pff
C:   000011D0  A$pff\Debug\pff3a\pff$2726         pff
C:   000011D2  A$pff\Debug\pff3a\pff$2727         pff
C:   000011D4  A$pff\Debug\pff3a\pff$2728         pff
C:   000011D6  A$pff\Debug\pff3a\pff$2729         pff
C:   000011D8  A$pff\Debug\pff3a\pff$2730         pff
C:   000011DA  A$pff\Debug\pff3a\pff$2731         pff
C:   000011DC  A$pff\Debug\pff3a\pff$2732         pff
C:   000011DE  A$pff\Debug\pff3a\pff$2733         pff
C:   000011DF  A$pff\Debug\pff3a\pff$2734         pff
C:   000011E1  A$pff\Debug\pff3a\pff$2737         pff
C:   000011E1  C$pff.c$597$2_0$39                 pff
C:   000011E3  A$pff\Debug\pff3a\pff$2738         pff
C:   000011E5  A$pff\Debug\pff3a\pff$2739         pff
C:   000011E7  A$pff\Debug\pff3a\pff$2741         pff
C:   000011E9  A$pff\Debug\pff3a\pff$2742         pff
C:   000011EB  A$pff\Debug\pff3a\pff$2746         pff
C:   000011EB  C$pff.c$598$2_0$39                 pff
C:   000011EC  A$pff\Debug\pff3a\pff$2747         pff
C:   000011EE  A$pff\Debug\pff3a\pff$2748         pff
C:   000011F1  A$pff\Debug\pff3a\pff$2752         pff
C:   000011F1  C$pff.c$599$2_0$39                 pff
C:   000011F3  A$pff\Debug\pff3a\pff$2753         pff
C:   000011F5  A$pff\Debug\pff3a\pff$2754         pff
C:   000011F6  A$pff\Debug\pff3a\pff$2755         pff
C:   000011F8  A$pff\Debug\pff3a\pff$2756         pff
C:   000011FA  A$pff\Debug\pff3a\pff$2757         pff
C:   000011FB  A$pff\Debug\pff3a\pff$2758         pff
C:   000011FC  A$pff\Debug\pff3a\pff$2759         pff
C:   000011FD  A$pff\Debug\pff3a\pff$2760         pff
C:   000011FE  A$pff\Debug\pff3a\pff$2761         pff
C:   000011FF  A$pff\Debug\pff3a\pff$2762         pff
C:   00001200  A$pff\Debug\pff3a\pff$2763         pff
C:   00001201  A$pff\Debug\pff3a\pff$2764         pff
C:   00001202  A$pff\Debug\pff3a\pff$2765         pff
C:   00001203  A$pff\Debug\pff3a\pff$2766         pff
C:   00001204  A$pff\Debug\pff3a\pff$2767         pff
C:   00001205  A$pff\Debug\pff3a\pff$2768         pff
C:   00001207  A$pff\Debug\pff3a\pff$2769         pff
C:   00001209  A$pff\Debug\pff3a\pff$2770         pff
C:   0000120A  A$pff\Debug\pff3a\pff$2771         pff
C:   0000120C  A$pff\Debug\pff3a\pff$2772         pff
C:   0000120D  A$pff\Debug\pff3a\pff$2773         pff
ASxxxx Linker V03.00 + NoICE + sdld,  page 79.
Hexadecimal  [32-Bits]

Area                                    Addr        Size        Decimal Bytes (Attributes)
--------------------------------        ----        ----        ------- ----- ------------
CSEG                                00000062    00003CB7 =       15543. bytes (REL,CON,CODE)

      Value  Global                              Global Defined In Module
      -----  --------------------------------   ------------------------
C:   0000120F  A$pff\Debug\pff3a\pff$2774         pff
C:   00001210  A$pff\Debug\pff3a\pff$2775         pff
C:   00001212  A$pff\Debug\pff3a\pff$2776         pff
C:   00001215  A$pff\Debug\pff3a\pff$2777         pff
C:   00001217  A$pff\Debug\pff3a\pff$2780         pff
C:   00001217  C$pff.c$600$2_0$39                 pff
C:   00001219  A$pff\Debug\pff3a\pff$2781         pff
C:   0000121C  A$pff\Debug\pff3a\pff$2785         pff
C:   0000121C  C$pff.c$601$1_0$38                 pff
C:   0000121E  A$pff\Debug\pff3a\pff$2786         pff
C:   00001220  A$pff\Debug\pff3a\pff$2787         pff
C:   00001222  A$pff\Debug\pff3a\pff$2788         pff
C:   00001224  A$pff\Debug\pff3a\pff$2789         pff
C:   00001226  A$pff\Debug\pff3a\pff$2790         pff
C:   00001227  A$pff\Debug\pff3a\pff$2791         pff
C:   00001229  A$pff\Debug\pff3a\pff$2792         pff
C:   0000122A  A$pff\Debug\pff3a\pff$2793         pff
C:   0000122B  A$pff\Debug\pff3a\pff$2794         pff
C:   0000122C  A$pff\Debug\pff3a\pff$2795         pff
C:   0000122D  A$pff\Debug\pff3a\pff$2796         pff
C:   0000122E  A$pff\Debug\pff3a\pff$2797         pff
C:   0000122F  A$pff\Debug\pff3a\pff$2798         pff
C:   00001230  A$pff\Debug\pff3a\pff$2799         pff
C:   00001232  A$pff\Debug\pff3a\pff$2800         pff
C:   00001234  A$pff\Debug\pff3a\pff$2801         pff
C:   00001236  A$pff\Debug\pff3a\pff$2802         pff
C:   00001238  A$pff\Debug\pff3a\pff$2803         pff
C:   0000123B  A$pff\Debug\pff3a\pff$2804         pff
C:   0000123D  A$pff\Debug\pff3a\pff$2805         pff
C:   0000123F  A$pff\Debug\pff3a\pff$2806         pff
C:   00001241  A$pff\Debug\pff3a\pff$2807         pff
C:   00001244  A$pff\Debug\pff3a\pff$2808         pff
C:   00001246  A$pff\Debug\pff3a\pff$2809         pff
C:   00001248  A$pff\Debug\pff3a\pff$2810         pff
C:   0000124A  A$pff\Debug\pff3a\pff$2811         pff
C:   0000124C  A$pff\Debug\pff3a\pff$2812         pff
C:   0000124F  A$pff\Debug\pff3a\pff$2813         pff
C:   00001250  A$pff\Debug\pff3a\pff$2814         pff
C:   00001251  A$pff\Debug\pff3a\pff$2815         pff
C:   00001254  A$pff\Debug\pff3a\pff$2816         pff
C:   00001255  A$pff\Debug\pff3a\pff$2817         pff
C:   00001256  A$pff\Debug\pff3a\pff$2818         pff
C:   00001259  A$pff\Debug\pff3a\pff$2819         pff
C:   0000125A  A$pff\Debug\pff3a\pff$2820         pff
C:   0000125C  A$pff\Debug\pff3a\pff$2821         pff
C:   0000125E  A$pff\Debug\pff3a\pff$2822         pff
C:   0000125F  A$pff\Debug\pff3a\pff$2823         pff
C:   00001261  A$pff\Debug\pff3a\pff$2824         pff
C:   00001262  A$pff\Debug\pff3a\pff$2825         pff
C:   00001264  A$pff\Debug\pff3a\pff$2826         pff
C:   00001265  A$pff\Debug\pff3a\pff$2827         pff
ASxxxx Linker V03.00 + NoICE + sdld,  page 80.
Hexadecimal  [32-Bits]

Area                                    Addr        Size        Decimal Bytes (Attributes)
--------------------------------        ----        ----        ------- ----- ------------
CSEG                                00000062    00003CB7 =       15543. bytes (REL,CON,CODE)

      Value  Global                              Global Defined In Module
      -----  --------------------------------   ------------------------
C:   00001267  A$pff\Debug\pff3a\pff$2828         pff
C:   00001269  A$pff\Debug\pff3a\pff$2829         pff
C:   0000126B  A$pff\Debug\pff3a\pff$2830         pff
C:   0000126C  A$pff\Debug\pff3a\pff$2831         pff
C:   0000126E  A$pff\Debug\pff3a\pff$2832         pff
C:   0000126F  A$pff\Debug\pff3a\pff$2833         pff
C:   00001271  A$pff\Debug\pff3a\pff$2834         pff
C:   00001272  A$pff\Debug\pff3a\pff$2835         pff
C:   00001274  A$pff\Debug\pff3a\pff$2836         pff
C:   00001276  A$pff\Debug\pff3a\pff$2837         pff
C:   00001278  A$pff\Debug\pff3a\pff$2838         pff
C:   0000127A  A$pff\Debug\pff3a\pff$2839         pff
C:   0000127C  A$pff\Debug\pff3a\pff$2840         pff
C:   0000127E  A$pff\Debug\pff3a\pff$2841         pff
C:   0000127F  A$pff\Debug\pff3a\pff$2842         pff
C:   00001281  A$pff\Debug\pff3a\pff$2843         pff
C:   00001283  A$pff\Debug\pff3a\pff$2844         pff
C:   00001285  A$pff\Debug\pff3a\pff$2845         pff
C:   00001286  A$pff\Debug\pff3a\pff$2846         pff
C:   00001287  A$pff\Debug\pff3a\pff$2847         pff
C:   00001289  A$pff\Debug\pff3a\pff$2848         pff
C:   0000128A  A$pff\Debug\pff3a\pff$2849         pff
C:   0000128B  A$pff\Debug\pff3a\pff$2850         pff
C:   0000128D  A$pff\Debug\pff3a\pff$2851         pff
C:   0000128E  A$pff\Debug\pff3a\pff$2852         pff
C:   0000128F  A$pff\Debug\pff3a\pff$2853         pff
C:   00001291  A$pff\Debug\pff3a\pff$2854         pff
C:   00001293  A$pff\Debug\pff3a\pff$2855         pff
C:   00001295  A$pff\Debug\pff3a\pff$2856         pff
C:   00001297  A$pff\Debug\pff3a\pff$2857         pff
C:   0000129A  A$pff\Debug\pff3a\pff$2858         pff
C:   0000129C  A$pff\Debug\pff3a\pff$2859         pff
C:   0000129E  A$pff\Debug\pff3a\pff$2860         pff
C:   000012A0  A$pff\Debug\pff3a\pff$2861         pff
C:   000012A2  A$pff\Debug\pff3a\pff$2862         pff
C:   000012A4  A$pff\Debug\pff3a\pff$2863         pff
C:   000012A6  A$pff\Debug\pff3a\pff$2864         pff
C:   000012A8  A$pff\Debug\pff3a\pff$2865         pff
C:   000012AA  A$pff\Debug\pff3a\pff$2866         pff
C:   000012AB  A$pff\Debug\pff3a\pff$2867         pff
C:   000012AC  A$pff\Debug\pff3a\pff$2868         pff
C:   000012AE  A$pff\Debug\pff3a\pff$2869         pff
C:   000012B0  A$pff\Debug\pff3a\pff$2873         pff
C:   000012B0  C$pff.c$602$2_0$39                 pff
C:   000012B2  A$pff\Debug\pff3a\pff$2874         pff
C:   000012B3  A$pff\Debug\pff3a\pff$2875         pff
C:   000012B5  A$pff\Debug\pff3a\pff$2876         pff
C:   000012B6  A$pff\Debug\pff3a\pff$2877         pff
C:   000012B8  A$pff\Debug\pff3a\pff$2878         pff
C:   000012B9  A$pff\Debug\pff3a\pff$2879         pff
C:   000012BB  A$pff\Debug\pff3a\pff$2880         pff
ASxxxx Linker V03.00 + NoICE + sdld,  page 81.
Hexadecimal  [32-Bits]

Area                                    Addr        Size        Decimal Bytes (Attributes)
--------------------------------        ----        ----        ------- ----- ------------
CSEG                                00000062    00003CB7 =       15543. bytes (REL,CON,CODE)

      Value  Global                              Global Defined In Module
      -----  --------------------------------   ------------------------
C:   000012BD  A$pff\Debug\pff3a\pff$2881         pff
C:   000012BF  A$pff\Debug\pff3a\pff$2882         pff
C:   000012C1  A$pff\Debug\pff3a\pff$2883         pff
C:   000012C4  A$pff\Debug\pff3a\pff$2884         pff
C:   000012C6  A$pff\Debug\pff3a\pff$2885         pff
C:   000012C8  A$pff\Debug\pff3a\pff$2886         pff
C:   000012CA  A$pff\Debug\pff3a\pff$2887         pff
C:   000012CC  A$pff\Debug\pff3a\pff$2888         pff
C:   000012CE  A$pff\Debug\pff3a\pff$2891         pff
C:   000012CE  C$pff.c$603$1_0$38                 pff
C:   000012CF  A$pff\Debug\pff3a\pff$2892         pff
C:   000012D1  A$pff\Debug\pff3a\pff$2893         pff
C:   000012D4  A$pff\Debug\pff3a\pff$2898         pff
C:   000012D4  C$pff.c$605$1_0$38                 pff
C:   000012D6  A$pff\Debug\pff3a\pff$2902         pff
C:   000012D9  A$pff\Debug\pff3a\pff$2903         pff
C:   000012DB  A$pff\Debug\pff3a\pff$2906         pff
C:   000012DB  C$pff.c$606$1_0$38                 pff
C:   000012DB  XFpff$dir_find$0$0                 pff
C:   000012DC  A$pff\Debug\pff3a\pff$2927         pff
C:   000012DC  C$pff.c$650$1_0$42                 pff
C:   000012DC  Fpff$create_name$0$0               pff
C:   000012DE  A$pff\Debug\pff3a\pff$2928         pff
C:   000012E0  A$pff\Debug\pff3a\pff$2929         pff
C:   000012E2  A$pff\Debug\pff3a\pff$2930         pff
C:   000012E4  A$pff\Debug\pff3a\pff$2931         pff
C:   000012E6  A$pff\Debug\pff3a\pff$2932         pff
C:   000012E8  A$pff\Debug\pff3a\pff$2933         pff
C:   000012EA  A$pff\Debug\pff3a\pff$2934         pff
C:   000012EC  A$pff\Debug\pff3a\pff$2937         pff
C:   000012EC  C$pff.c$662$1_0$42                 pff
C:   000012EE  A$pff\Debug\pff3a\pff$2938         pff
C:   000012EF  A$pff\Debug\pff3a\pff$2939         pff
C:   000012F0  A$pff\Debug\pff3a\pff$2940         pff
C:   000012F1  A$pff\Debug\pff3a\pff$2941         pff
C:   000012F2  A$pff\Debug\pff3a\pff$2942         pff
C:   000012F3  A$pff\Debug\pff3a\pff$2943         pff
C:   000012F5  A$pff\Debug\pff3a\pff$2944         pff
C:   000012F7  A$pff\Debug\pff3a\pff$2945         pff
C:   000012F9  A$pff\Debug\pff3a\pff$2946         pff
C:   000012FB  A$pff\Debug\pff3a\pff$2947         pff
C:   000012FD  A$pff\Debug\pff3a\pff$2948         pff
C:   000012FE  A$pff\Debug\pff3a\pff$2949         pff
C:   00001301  A$pff\Debug\pff3a\pff$2950         pff
C:   00001302  A$pff\Debug\pff3a\pff$2951         pff
C:   00001303  A$pff\Debug\pff3a\pff$2952         pff
C:   00001306  A$pff\Debug\pff3a\pff$2953         pff
C:   00001307  A$pff\Debug\pff3a\pff$2954         pff
C:   00001308  A$pff\Debug\pff3a\pff$2955         pff
C:   00001309  A$pff\Debug\pff3a\pff$2956         pff
C:   0000130C  A$pff\Debug\pff3a\pff$2957         pff
ASxxxx Linker V03.00 + NoICE + sdld,  page 82.
Hexadecimal  [32-Bits]

Area                                    Addr        Size        Decimal Bytes (Attributes)
--------------------------------        ----        ----        ------- ----- ------------
CSEG                                00000062    00003CB7 =       15543. bytes (REL,CON,CODE)

      Value  Global                              Global Defined In Module
      -----  --------------------------------   ------------------------
C:   0000130D  A$pff\Debug\pff3a\pff$2958         pff
C:   0000130E  A$pff\Debug\pff3a\pff$2961         pff
C:   0000130E  C$pff.c$663$1_0$42                 pff
C:   00001310  A$pff\Debug\pff3a\pff$2962         pff
C:   00001312  A$pff\Debug\pff3a\pff$2963         pff
C:   00001313  A$pff\Debug\pff3a\pff$2964         pff
C:   00001315  A$pff\Debug\pff3a\pff$2965         pff
C:   00001316  A$pff\Debug\pff3a\pff$2966         pff
C:   00001318  A$pff\Debug\pff3a\pff$2967         pff
C:   00001319  A$pff\Debug\pff3a\pff$2968         pff
C:   0000131B  A$pff\Debug\pff3a\pff$2969         pff
C:   0000131D  A$pff\Debug\pff3a\pff$2970         pff
C:   0000131F  A$pff\Debug\pff3a\pff$2971         pff
C:   00001320  A$pff\Debug\pff3a\pff$2972         pff
C:   00001322  A$pff\Debug\pff3a\pff$2973         pff
C:   00001324  A$pff\Debug\pff3a\pff$2974         pff
C:   00001326  A$pff\Debug\pff3a\pff$2975         pff
C:   00001327  A$pff\Debug\pff3a\pff$2976         pff
C:   00001329  A$pff\Debug\pff3a\pff$2977         pff
C:   0000132B  A$pff\Debug\pff3a\pff$2978         pff
C:   0000132D  A$pff\Debug\pff3a\pff$2979         pff
C:   0000132F  A$pff\Debug\pff3a\pff$2980         pff
C:   00001332  A$pff\Debug\pff3a\pff$2981         pff
C:   00001334  A$pff\Debug\pff3a\pff$2982         pff
C:   00001336  A$pff\Debug\pff3a\pff$2983         pff
C:   00001338  A$pff\Debug\pff3a\pff$2986         pff
C:   00001338  C$pff.c$664$1_0$42                 pff
C:   0000133A  A$pff\Debug\pff3a\pff$2987         pff
C:   0000133C  A$pff\Debug\pff3a\pff$2988         pff
C:   0000133D  A$pff\Debug\pff3a\pff$2989         pff
C:   0000133F  A$pff\Debug\pff3a\pff$2990         pff
C:   00001341  A$pff\Debug\pff3a\pff$2991         pff
C:   00001342  A$pff\Debug\pff3a\pff$2992         pff
C:   00001343  A$pff\Debug\pff3a\pff$2993         pff
C:   00001345  A$pff\Debug\pff3a\pff$2996         pff
C:   00001345  C$pff.c$665$1_0$42                 pff
C:   00001347  A$pff\Debug\pff3a\pff$2997         pff
C:   00001349  A$pff\Debug\pff3a\pff$2998         pff
C:   0000134A  A$pff\Debug\pff3a\pff$2999         pff
C:   0000134C  A$pff\Debug\pff3a\pff$3000         pff
C:   0000134D  A$pff\Debug\pff3a\pff$3001         pff
C:   0000134F  A$pff\Debug\pff3a\pff$3002         pff
C:   00001350  A$pff\Debug\pff3a\pff$3003         pff
C:   00001352  A$pff\Debug\pff3a\pff$3004         pff
C:   00001354  A$pff\Debug\pff3a\pff$3005         pff
C:   00001356  A$pff\Debug\pff3a\pff$3006         pff
C:   00001358  A$pff\Debug\pff3a\pff$3007         pff
C:   0000135A  A$pff\Debug\pff3a\pff$3008         pff
C:   0000135C  A$pff\Debug\pff3a\pff$3009         pff
C:   0000135D  A$pff\Debug\pff3a\pff$3010         pff
C:   00001360  A$pff\Debug\pff3a\pff$3011         pff
ASxxxx Linker V03.00 + NoICE + sdld,  page 83.
Hexadecimal  [32-Bits]

Area                                    Addr        Size        Decimal Bytes (Attributes)
--------------------------------        ----        ----        ------- ----- ------------
CSEG                                00000062    00003CB7 =       15543. bytes (REL,CON,CODE)

      Value  Global                              Global Defined In Module
      -----  --------------------------------   ------------------------
C:   00001361  A$pff\Debug\pff3a\pff$3012         pff
C:   00001362  A$pff\Debug\pff3a\pff$3013         pff
C:   00001365  A$pff\Debug\pff3a\pff$3014         pff
C:   00001366  A$pff\Debug\pff3a\pff$3015         pff
C:   00001367  A$pff\Debug\pff3a\pff$3016         pff
C:   00001368  A$pff\Debug\pff3a\pff$3017         pff
C:   0000136B  A$pff\Debug\pff3a\pff$3018         pff
C:   0000136C  A$pff\Debug\pff3a\pff$3019         pff
C:   0000136D  A$pff\Debug\pff3a\pff$3020         pff
C:   0000136F  A$pff\Debug\pff3a\pff$3024         pff
C:   0000136F  C$pff.c$667$1_0$42                 pff
C:   00001371  A$pff\Debug\pff3a\pff$3025         pff
C:   00001373  A$pff\Debug\pff3a\pff$3026         pff
C:   00001375  A$pff\Debug\pff3a\pff$3027         pff
C:   00001377  A$pff\Debug\pff3a\pff$3028         pff
C:   00001378  A$pff\Debug\pff3a\pff$3029         pff
C:   0000137A  A$pff\Debug\pff3a\pff$3030         pff
C:   0000137C  A$pff\Debug\pff3a\pff$3031         pff
C:   0000137D  A$pff\Debug\pff3a\pff$3032         pff
C:   0000137E  A$pff\Debug\pff3a\pff$3033         pff
C:   0000137F  A$pff\Debug\pff3a\pff$3034         pff
C:   00001380  A$pff\Debug\pff3a\pff$3035         pff
C:   00001381  A$pff\Debug\pff3a\pff$3036         pff
C:   00001382  A$pff\Debug\pff3a\pff$3037         pff
C:   00001383  A$pff\Debug\pff3a\pff$3038         pff
C:   00001384  A$pff\Debug\pff3a\pff$3039         pff
C:   00001385  A$pff\Debug\pff3a\pff$3040         pff
C:   00001387  A$pff\Debug\pff3a\pff$3041         pff
C:   00001389  A$pff\Debug\pff3a\pff$3042         pff
C:   0000138B  A$pff\Debug\pff3a\pff$3043         pff
C:   0000138D  A$pff\Debug\pff3a\pff$3044         pff
C:   0000138F  A$pff\Debug\pff3a\pff$3045         pff
C:   00001390  A$pff\Debug\pff3a\pff$3046         pff
C:   00001393  A$pff\Debug\pff3a\pff$3047         pff
C:   00001394  A$pff\Debug\pff3a\pff$3050         pff
C:   00001394  C$pff.c$668$3_0$44                 pff
C:   00001396  A$pff\Debug\pff3a\pff$3051         pff
C:   00001397  A$pff\Debug\pff3a\pff$3052         pff
C:   00001398  A$pff\Debug\pff3a\pff$3053         pff
C:   0000139A  A$pff\Debug\pff3a\pff$3054         pff
C:   0000139B  A$pff\Debug\pff3a\pff$3055         pff
C:   0000139D  A$pff\Debug\pff3a\pff$3056         pff
C:   0000139F  A$pff\Debug\pff3a\pff$3057         pff
C:   000013A1  A$pff\Debug\pff3a\pff$3058         pff
C:   000013A3  A$pff\Debug\pff3a\pff$3059         pff
C:   000013A6  A$pff\Debug\pff3a\pff$3061         pff
C:   000013A8  A$pff\Debug\pff3a\pff$3062         pff
C:   000013A9  A$pff\Debug\pff3a\pff$3063         pff
C:   000013AC  A$pff\Debug\pff3a\pff$3064         pff
C:   000013AF  A$pff\Debug\pff3a\pff$3068         pff
C:   000013AF  C$pff.c$669$3_0$44                 pff
ASxxxx Linker V03.00 + NoICE + sdld,  page 84.
Hexadecimal  [32-Bits]

Area                                    Addr        Size        Decimal Bytes (Attributes)
--------------------------------        ----        ----        ------- ----- ------------
CSEG                                00000062    00003CB7 =       15543. bytes (REL,CON,CODE)

      Value  Global                              Global Defined In Module
      -----  --------------------------------   ------------------------
C:   000013B1  A$pff\Debug\pff3a\pff$3069         pff
C:   000013B2  A$pff\Debug\pff3a\pff$3070         pff
C:   000013B5  A$pff\Debug\pff3a\pff$3071         pff
C:   000013B7  A$pff\Debug\pff3a\pff$3073         pff
C:   000013B9  A$pff\Debug\pff3a\pff$3074         pff
C:   000013BB  A$pff\Debug\pff3a\pff$3075         pff
C:   000013BC  A$pff\Debug\pff3a\pff$3076         pff
C:   000013BE  A$pff\Debug\pff3a\pff$3077         pff
C:   000013BF  A$pff\Debug\pff3a\pff$3078         pff
C:   000013C0  A$pff\Debug\pff3a\pff$3079         pff
C:   000013C1  A$pff\Debug\pff3a\pff$3080         pff
C:   000013C2  A$pff\Debug\pff3a\pff$3081         pff
C:   000013C3  A$pff\Debug\pff3a\pff$3082         pff
C:   000013C5  A$pff\Debug\pff3a\pff$3086         pff
C:   000013C5  C$pff.c$670$4_0$45                 pff
C:   000013C7  A$pff\Debug\pff3a\pff$3087         pff
C:   000013C8  A$pff\Debug\pff3a\pff$3088         pff
C:   000013C9  A$pff\Debug\pff3a\pff$3089         pff
C:   000013CC  A$pff\Debug\pff3a\pff$3090         pff
C:   000013CE  A$pff\Debug\pff3a\pff$3092         pff
C:   000013D1  A$pff\Debug\pff3a\pff$3094         pff
C:   000013D3  A$pff\Debug\pff3a\pff$3095         pff
C:   000013D4  A$pff\Debug\pff3a\pff$3096         pff
C:   000013D7  A$pff\Debug\pff3a\pff$3097         pff
C:   000013D9  A$pff\Debug\pff3a\pff$3099         pff
C:   000013DC  A$pff\Debug\pff3a\pff$3103         pff
C:   000013DC  C$pff.c$671$4_0$45                 pff
C:   000013DE  A$pff\Debug\pff3a\pff$3104         pff
C:   000013E0  A$pff\Debug\pff3a\pff$3105         pff
C:   000013E1  A$pff\Debug\pff3a\pff$3106         pff
C:   000013E3  A$pff\Debug\pff3a\pff$3107         pff
C:   000013E5  A$pff\Debug\pff3a\pff$3108         pff
C:   000013E6  A$pff\Debug\pff3a\pff$3109         pff
C:   000013E7  A$pff\Debug\pff3a\pff$3110         pff
C:   000013E9  A$pff\Debug\pff3a\pff$3113         pff
C:   000013E9  C$pff.c$672$4_0$45                 pff
C:   000013EC  A$pff\Debug\pff3a\pff$3117         pff
C:   000013EC  C$pff.c$675$3_0$44                 pff
C:   000013EE  A$pff\Debug\pff3a\pff$3118         pff
C:   000013EF  A$pff\Debug\pff3a\pff$3119         pff
C:   000013F2  A$pff\Debug\pff3a\pff$3121         pff
C:   000013F4  A$pff\Debug\pff3a\pff$3122         pff
C:   000013F6  A$pff\Debug\pff3a\pff$3123         pff
C:   000013F7  A$pff\Debug\pff3a\pff$3124         pff
C:   000013F9  A$pff\Debug\pff3a\pff$3125         pff
C:   000013FB  A$pff\Debug\pff3a\pff$3126         pff
C:   000013FC  A$pff\Debug\pff3a\pff$3127         pff
C:   000013FE  A$pff\Debug\pff3a\pff$3128         pff
C:   000013FF  A$pff\Debug\pff3a\pff$3129         pff
C:   00001400  A$pff\Debug\pff3a\pff$3130         pff
C:   00001402  A$pff\Debug\pff3a\pff$3131         pff
ASxxxx Linker V03.00 + NoICE + sdld,  page 85.
Hexadecimal  [32-Bits]

Area                                    Addr        Size        Decimal Bytes (Attributes)
--------------------------------        ----        ----        ------- ----- ------------
CSEG                                00000062    00003CB7 =       15543. bytes (REL,CON,CODE)

      Value  Global                              Global Defined In Module
      -----  --------------------------------   ------------------------
C:   00001403  A$pff\Debug\pff3a\pff$3132         pff
C:   00001404  A$pff\Debug\pff3a\pff$3133         pff
C:   00001406  A$pff\Debug\pff3a\pff$3134         pff
C:   00001408  A$pff\Debug\pff3a\pff$3135         pff
C:   00001409  A$pff\Debug\pff3a\pff$3136         pff
C:   0000140B  A$pff\Debug\pff3a\pff$3137         pff
C:   0000140D  A$pff\Debug\pff3a\pff$3138         pff
C:   0000140F  A$pff\Debug\pff3a\pff$3139         pff
C:   00001410  A$pff\Debug\pff3a\pff$3140         pff
C:   00001411  A$pff\Debug\pff3a\pff$3141         pff
C:   00001412  A$pff\Debug\pff3a\pff$3142         pff
C:   00001413  A$pff\Debug\pff3a\pff$3146         pff
C:   00001413  C$pff.c$682$4_0$47                 pff
C:   00001415  A$pff\Debug\pff3a\pff$3147         pff
C:   00001416  A$pff\Debug\pff3a\pff$3148         pff
C:   00001419  A$pff\Debug\pff3a\pff$3150         pff
C:   0000141B  A$pff\Debug\pff3a\pff$3151         pff
C:   0000141D  A$pff\Debug\pff3a\pff$3152         pff
C:   0000141E  A$pff\Debug\pff3a\pff$3153         pff
C:   0000141F  A$pff\Debug\pff3a\pff$3154         pff
C:   00001421  A$pff\Debug\pff3a\pff$3155         pff
C:   00001423  A$pff\Debug\pff3a\pff$3156         pff
C:   00001425  A$pff\Debug\pff3a\pff$3157         pff
C:   00001426  A$pff\Debug\pff3a\pff$3158         pff
C:   00001428  A$pff\Debug\pff3a\pff$3159         pff
C:   0000142A  A$pff\Debug\pff3a\pff$3160         pff
C:   0000142B  A$pff\Debug\pff3a\pff$3161         pff
C:   0000142C  A$pff\Debug\pff3a\pff$3162         pff
C:   0000142E  A$pff\Debug\pff3a\pff$3163         pff
C:   0000142F  A$pff\Debug\pff3a\pff$3167         pff
C:   0000142F  C$pff.c$683$1_0$42                 pff
C:   00001431  A$pff\Debug\pff3a\pff$3168         pff
C:   00001433  A$pff\Debug\pff3a\pff$3169         pff
C:   00001435  A$pff\Debug\pff3a\pff$3170         pff
C:   00001437  A$pff\Debug\pff3a\pff$3171         pff
C:   00001439  A$pff\Debug\pff3a\pff$3172         pff
C:   0000143A  A$pff\Debug\pff3a\pff$3173         pff
C:   0000143C  A$pff\Debug\pff3a\pff$3174         pff
C:   0000143E  A$pff\Debug\pff3a\pff$3175         pff
C:   00001440  A$pff\Debug\pff3a\pff$3176         pff
C:   00001441  A$pff\Debug\pff3a\pff$3177         pff
C:   00001442  A$pff\Debug\pff3a\pff$3178         pff
C:   00001444  A$pff\Debug\pff3a\pff$3179         pff
C:   00001446  A$pff\Debug\pff3a\pff$3180         pff
C:   00001447  A$pff\Debug\pff3a\pff$3181         pff
C:   00001448  A$pff\Debug\pff3a\pff$3182         pff
C:   00001449  A$pff\Debug\pff3a\pff$3183         pff
C:   0000144A  A$pff\Debug\pff3a\pff$3184         pff
C:   0000144B  A$pff\Debug\pff3a\pff$3185         pff
C:   0000144C  A$pff\Debug\pff3a\pff$3186         pff
C:   0000144D  A$pff\Debug\pff3a\pff$3187         pff
ASxxxx Linker V03.00 + NoICE + sdld,  page 86.
Hexadecimal  [32-Bits]

Area                                    Addr        Size        Decimal Bytes (Attributes)
--------------------------------        ----        ----        ------- ----- ------------
CSEG                                00000062    00003CB7 =       15543. bytes (REL,CON,CODE)

      Value  Global                              Global Defined In Module
      -----  --------------------------------   ------------------------
C:   0000144E  A$pff\Debug\pff3a\pff$3188         pff
C:   0000144F  A$pff\Debug\pff3a\pff$3189         pff
C:   00001451  A$pff\Debug\pff3a\pff$3190         pff
C:   00001453  A$pff\Debug\pff3a\pff$3191         pff
C:   00001455  A$pff\Debug\pff3a\pff$3192         pff
C:   00001457  A$pff\Debug\pff3a\pff$3193         pff
C:   00001459  A$pff\Debug\pff3a\pff$3194         pff
C:   0000145A  A$pff\Debug\pff3a\pff$3195         pff
C:   0000145B  A$pff\Debug\pff3a\pff$3196         pff
C:   0000145E  A$pff\Debug\pff3a\pff$3197         pff
C:   00001460  A$pff\Debug\pff3a\pff$3198         pff
C:   00001462  A$pff\Debug\pff3a\pff$3199         pff
C:   00001464  A$pff\Debug\pff3a\pff$3200         pff
C:   00001467  A$pff\Debug\pff3a\pff$3204         pff
C:   00001467  C$pff.c$686$1_0$42                 pff
C:   00001469  A$pff\Debug\pff3a\pff$3205         pff
C:   0000146B  A$pff\Debug\pff3a\pff$3206         pff
C:   0000146C  A$pff\Debug\pff3a\pff$3207         pff
C:   0000146D  A$pff\Debug\pff3a\pff$3208         pff
C:   0000146E  A$pff\Debug\pff3a\pff$3209         pff
C:   0000146F  A$pff\Debug\pff3a\pff$3210         pff
C:   00001470  A$pff\Debug\pff3a\pff$3211         pff
C:   00001471  A$pff\Debug\pff3a\pff$3212         pff
C:   00001472  A$pff\Debug\pff3a\pff$3213         pff
C:   00001473  A$pff\Debug\pff3a\pff$3214         pff
C:   00001474  A$pff\Debug\pff3a\pff$3215         pff
C:   00001476  A$pff\Debug\pff3a\pff$3216         pff
C:   00001478  A$pff\Debug\pff3a\pff$3217         pff
C:   0000147A  A$pff\Debug\pff3a\pff$3218         pff
C:   0000147C  A$pff\Debug\pff3a\pff$3219         pff
C:   0000147D  A$pff\Debug\pff3a\pff$3220         pff
C:   00001480  A$pff\Debug\pff3a\pff$3221         pff
C:   00001481  A$pff\Debug\pff3a\pff$3222         pff
C:   00001482  A$pff\Debug\pff3a\pff$3223         pff
C:   00001485  A$pff\Debug\pff3a\pff$3224         pff
C:   00001486  A$pff\Debug\pff3a\pff$3225         pff
C:   00001487  A$pff\Debug\pff3a\pff$3226         pff
C:   0000148A  A$pff\Debug\pff3a\pff$3229         pff
C:   0000148A  C$pff.c$688$1_0$42                 pff
C:   0000148C  A$pff\Debug\pff3a\pff$3230         pff
C:   0000148E  A$pff\Debug\pff3a\pff$3231         pff
C:   0000148F  A$pff\Debug\pff3a\pff$3232         pff
C:   00001491  A$pff\Debug\pff3a\pff$3233         pff
C:   00001492  A$pff\Debug\pff3a\pff$3234         pff
C:   00001493  A$pff\Debug\pff3a\pff$3235         pff
C:   00001494  A$pff\Debug\pff3a\pff$3236         pff
C:   00001495  A$pff\Debug\pff3a\pff$3237         pff
C:   00001496  A$pff\Debug\pff3a\pff$3238         pff
C:   00001497  A$pff\Debug\pff3a\pff$3239         pff
C:   00001498  A$pff\Debug\pff3a\pff$3240         pff
C:   0000149A  A$pff\Debug\pff3a\pff$3241         pff
ASxxxx Linker V03.00 + NoICE + sdld,  page 87.
Hexadecimal  [32-Bits]

Area                                    Addr        Size        Decimal Bytes (Attributes)
--------------------------------        ----        ----        ------- ----- ------------
CSEG                                00000062    00003CB7 =       15543. bytes (REL,CON,CODE)

      Value  Global                              Global Defined In Module
      -----  --------------------------------   ------------------------
C:   0000149C  A$pff\Debug\pff3a\pff$3242         pff
C:   0000149D  A$pff\Debug\pff3a\pff$3243         pff
C:   0000149E  A$pff\Debug\pff3a\pff$3244         pff
C:   000014A0  A$pff\Debug\pff3a\pff$3245         pff
C:   000014A2  A$pff\Debug\pff3a\pff$3246         pff
C:   000014A4  A$pff\Debug\pff3a\pff$3247         pff
C:   000014A6  A$pff\Debug\pff3a\pff$3248         pff
C:   000014A8  A$pff\Debug\pff3a\pff$3249         pff
C:   000014AA  A$pff\Debug\pff3a\pff$3251         pff
C:   000014AC  A$pff\Debug\pff3a\pff$3252         pff
C:   000014AE  A$pff\Debug\pff3a\pff$3254         pff
C:   000014B0  A$pff\Debug\pff3a\pff$3255         pff
C:   000014B2  A$pff\Debug\pff3a\pff$3256         pff
C:   000014B4  A$pff\Debug\pff3a\pff$3257         pff
C:   000014B5  A$pff\Debug\pff3a\pff$3258         pff
C:   000014B8  A$pff\Debug\pff3a\pff$3261         pff
C:   000014B8  C$pff.c$690$1_0$42                 pff
C:   000014BB  A$pff\Debug\pff3a\pff$3264         pff
C:   000014BE  A$pff\Debug\pff3a\pff$3265         pff
C:   000014C0  A$pff\Debug\pff3a\pff$3268         pff
C:   000014C0  C$pff.c$691$1_0$42                 pff
C:   000014C0  XFpff$create_name$0$0              pff
C:   000014C1  A$pff\Debug\pff3a\pff$3287         pff
C:   000014C1  C$pff.c$741$1_0$49                 pff
C:   000014C1  Fpff$follow_path$0$0               pff
C:   000014C3  A$pff\Debug\pff3a\pff$3288         pff
C:   000014C6  A$pff\Debug\pff3a\pff$3289         pff
C:   000014C8  A$pff\Debug\pff3a\pff$3290         pff
C:   000014CA  A$pff\Debug\pff3a\pff$3291         pff
C:   000014CC  A$pff\Debug\pff3a\pff$3292         pff
C:   000014CE  A$pff\Debug\pff3a\pff$3293         pff
C:   000014D0  A$pff\Debug\pff3a\pff$3294         pff
C:   000014D2  A$pff\Debug\pff3a\pff$3297         pff
C:   000014D2  C$pff.c$750$1_0$49                 pff
C:   000014D4  A$pff\Debug\pff3a\pff$3298         pff
C:   000014D6  A$pff\Debug\pff3a\pff$3299         pff
C:   000014D7  A$pff\Debug\pff3a\pff$3300         pff
C:   000014D9  A$pff\Debug\pff3a\pff$3301         pff
C:   000014DA  A$pff\Debug\pff3a\pff$3302         pff
C:   000014DC  A$pff\Debug\pff3a\pff$3303         pff
C:   000014DD  A$pff\Debug\pff3a\pff$3304         pff
C:   000014DF  A$pff\Debug\pff3a\pff$3306         pff
C:   000014E1  A$pff\Debug\pff3a\pff$3307         pff
C:   000014E3  A$pff\Debug\pff3a\pff$3308         pff
C:   000014E5  A$pff\Debug\pff3a\pff$3309         pff
C:   000014E8  A$pff\Debug\pff3a\pff$3310         pff
C:   000014E9  A$pff\Debug\pff3a\pff$3311         pff
C:   000014EC  A$pff\Debug\pff3a\pff$3312         pff
C:   000014ED  A$pff\Debug\pff3a\pff$3313         pff
C:   000014F0  A$pff\Debug\pff3a\pff$3314         pff
C:   000014F1  A$pff\Debug\pff3a\pff$3316         pff
ASxxxx Linker V03.00 + NoICE + sdld,  page 88.
Hexadecimal  [32-Bits]

Area                                    Addr        Size        Decimal Bytes (Attributes)
--------------------------------        ----        ----        ------- ----- ------------
CSEG                                00000062    00003CB7 =       15543. bytes (REL,CON,CODE)

      Value  Global                              Global Defined In Module
      -----  --------------------------------   ------------------------
C:   000014F3  A$pff\Debug\pff3a\pff$3317         pff
C:   000014F5  A$pff\Debug\pff3a\pff$3318         pff
C:   000014F6  A$pff\Debug\pff3a\pff$3319         pff
C:   000014F8  A$pff\Debug\pff3a\pff$3320         pff
C:   000014F9  A$pff\Debug\pff3a\pff$3321         pff
C:   000014FB  A$pff\Debug\pff3a\pff$3322         pff
C:   000014FC  A$pff\Debug\pff3a\pff$3323         pff
C:   000014FE  A$pff\Debug\pff3a\pff$3324         pff
C:   00001500  A$pff\Debug\pff3a\pff$3326         pff
C:   00001502  A$pff\Debug\pff3a\pff$3327         pff
C:   00001504  A$pff\Debug\pff3a\pff$3328         pff
C:   00001505  A$pff\Debug\pff3a\pff$3329         pff
C:   00001507  A$pff\Debug\pff3a\pff$3330         pff
C:   00001508  A$pff\Debug\pff3a\pff$3331         pff
C:   0000150A  A$pff\Debug\pff3a\pff$3332         pff
C:   0000150B  A$pff\Debug\pff3a\pff$3333         pff
C:   0000150D  A$pff\Debug\pff3a\pff$3336         pff
C:   0000150D  C$pff.c$751$1_0$49                 pff
C:   00001510  A$pff\Debug\pff3a\pff$3337         pff
C:   00001512  A$pff\Debug\pff3a\pff$3338         pff
C:   00001514  A$pff\Debug\pff3a\pff$3339         pff
C:   00001515  A$pff\Debug\pff3a\pff$3340         pff
C:   00001517  A$pff\Debug\pff3a\pff$3341         pff
C:   00001518  A$pff\Debug\pff3a\pff$3342         pff
C:   00001519  A$pff\Debug\pff3a\pff$3343         pff
C:   0000151A  A$pff\Debug\pff3a\pff$3344         pff
C:   0000151B  A$pff\Debug\pff3a\pff$3345         pff
C:   0000151C  A$pff\Debug\pff3a\pff$3346         pff
C:   0000151D  A$pff\Debug\pff3a\pff$3347         pff
C:   0000151E  A$pff\Debug\pff3a\pff$3348         pff
C:   00001520  A$pff\Debug\pff3a\pff$3352         pff
C:   00001520  C$pff.c$752$1_0$49                 pff
C:   00001522  A$pff\Debug\pff3a\pff$3353         pff
C:   00001523  A$pff\Debug\pff3a\pff$3354         pff
C:   00001525  A$pff\Debug\pff3a\pff$3355         pff
C:   00001526  A$pff\Debug\pff3a\pff$3356         pff
C:   00001527  A$pff\Debug\pff3a\pff$3357         pff
C:   00001528  A$pff\Debug\pff3a\pff$3358         pff
C:   00001529  A$pff\Debug\pff3a\pff$3359         pff
C:   0000152A  A$pff\Debug\pff3a\pff$3360         pff
C:   0000152B  A$pff\Debug\pff3a\pff$3361         pff
C:   0000152C  A$pff\Debug\pff3a\pff$3362         pff
C:   0000152E  A$pff\Debug\pff3a\pff$3363         pff
C:   00001530  A$pff\Debug\pff3a\pff$3364         pff
C:   00001532  A$pff\Debug\pff3a\pff$3365         pff
C:   00001534  A$pff\Debug\pff3a\pff$3366         pff
C:   00001535  A$pff\Debug\pff3a\pff$3367         pff
C:   00001538  A$pff\Debug\pff3a\pff$3368         pff
C:   00001539  A$pff\Debug\pff3a\pff$3369         pff
C:   0000153C  A$pff\Debug\pff3a\pff$3370         pff
C:   0000153D  A$pff\Debug\pff3a\pff$3371         pff
ASxxxx Linker V03.00 + NoICE + sdld,  page 89.
Hexadecimal  [32-Bits]

Area                                    Addr        Size        Decimal Bytes (Attributes)
--------------------------------        ----        ----        ------- ----- ------------
CSEG                                00000062    00003CB7 =       15543. bytes (REL,CON,CODE)

      Value  Global                              Global Defined In Module
      -----  --------------------------------   ------------------------
C:   00001540  A$pff\Debug\pff3a\pff$3372         pff
C:   00001541  A$pff\Debug\pff3a\pff$3373         pff
C:   00001544  A$pff\Debug\pff3a\pff$3376         pff
C:   00001544  C$pff.c$754$1_0$49                 pff
C:   00001546  A$pff\Debug\pff3a\pff$3377         pff
C:   00001548  A$pff\Debug\pff3a\pff$3378         pff
C:   00001549  A$pff\Debug\pff3a\pff$3379         pff
C:   0000154B  A$pff\Debug\pff3a\pff$3380         pff
C:   0000154C  A$pff\Debug\pff3a\pff$3381         pff
C:   0000154E  A$pff\Debug\pff3a\pff$3382         pff
C:   0000154F  A$pff\Debug\pff3a\pff$3383         pff
C:   00001551  A$pff\Debug\pff3a\pff$3384         pff
C:   00001553  A$pff\Debug\pff3a\pff$3385         pff
C:   00001555  A$pff\Debug\pff3a\pff$3386         pff
C:   00001557  A$pff\Debug\pff3a\pff$3387         pff
C:   0000155A  A$pff\Debug\pff3a\pff$3388         pff
C:   0000155B  A$pff\Debug\pff3a\pff$3389         pff
C:   0000155E  A$pff\Debug\pff3a\pff$3391         pff
C:   00001560  A$pff\Debug\pff3a\pff$3394         pff
C:   00001560  C$pff.c$755$2_0$50                 pff
C:   00001562  A$pff\Debug\pff3a\pff$3395         pff
C:   00001563  A$pff\Debug\pff3a\pff$3396         pff
C:   00001565  A$pff\Debug\pff3a\pff$3397         pff
C:   00001566  A$pff\Debug\pff3a\pff$3398         pff
C:   00001568  A$pff\Debug\pff3a\pff$3399         pff
C:   00001569  A$pff\Debug\pff3a\pff$3400         pff
C:   0000156B  A$pff\Debug\pff3a\pff$3401         pff
C:   0000156E  A$pff\Debug\pff3a\pff$3402         pff
C:   00001570  A$pff\Debug\pff3a\pff$3403         pff
C:   00001572  A$pff\Debug\pff3a\pff$3404         pff
C:   00001574  A$pff\Debug\pff3a\pff$3405         pff
C:   00001575  A$pff\Debug\pff3a\pff$3406         pff
C:   00001577  A$pff\Debug\pff3a\pff$3409         pff
C:   00001577  C$pff.c$756$2_0$50                 pff
C:   00001579  A$pff\Debug\pff3a\pff$3410         pff
C:   0000157B  A$pff\Debug\pff3a\pff$3411         pff
C:   0000157C  A$pff\Debug\pff3a\pff$3412         pff
C:   0000157E  A$pff\Debug\pff3a\pff$3413         pff
C:   0000157F  A$pff\Debug\pff3a\pff$3414         pff
C:   00001581  A$pff\Debug\pff3a\pff$3415         pff
C:   00001582  A$pff\Debug\pff3a\pff$3416         pff
C:   00001584  A$pff\Debug\pff3a\pff$3417         pff
C:   00001586  A$pff\Debug\pff3a\pff$3418         pff
C:   00001588  A$pff\Debug\pff3a\pff$3419         pff
C:   0000158A  A$pff\Debug\pff3a\pff$3420         pff
C:   0000158B  A$pff\Debug\pff3a\pff$3421         pff
C:   0000158E  A$pff\Debug\pff3a\pff$3422         pff
C:   00001591  A$pff\Debug\pff3a\pff$3424         pff
C:   00001593  A$pff\Debug\pff3a\pff$3425         pff
C:   00001594  A$pff\Debug\pff3a\pff$3426         pff
C:   00001596  A$pff\Debug\pff3a\pff$3427         pff
ASxxxx Linker V03.00 + NoICE + sdld,  page 90.
Hexadecimal  [32-Bits]

Area                                    Addr        Size        Decimal Bytes (Attributes)
--------------------------------        ----        ----        ------- ----- ------------
CSEG                                00000062    00003CB7 =       15543. bytes (REL,CON,CODE)

      Value  Global                              Global Defined In Module
      -----  --------------------------------   ------------------------
C:   00001597  A$pff\Debug\pff3a\pff$3428         pff
C:   00001598  A$pff\Debug\pff3a\pff$3429         pff
C:   00001599  A$pff\Debug\pff3a\pff$3430         pff
C:   0000159A  A$pff\Debug\pff3a\pff$3431         pff
C:   0000159B  A$pff\Debug\pff3a\pff$3432         pff
C:   0000159C  A$pff\Debug\pff3a\pff$3433         pff
C:   0000159D  A$pff\Debug\pff3a\pff$3434         pff
C:   0000159F  A$pff\Debug\pff3a\pff$3435         pff
C:   000015A1  A$pff\Debug\pff3a\pff$3436         pff
C:   000015A3  A$pff\Debug\pff3a\pff$3437         pff
C:   000015A4  A$pff\Debug\pff3a\pff$3438         pff
C:   000015A6  A$pff\Debug\pff3a\pff$3439         pff
C:   000015A8  A$pff\Debug\pff3a\pff$3440         pff
C:   000015A9  A$pff\Debug\pff3a\pff$3441         pff
C:   000015AB  A$pff\Debug\pff3a\pff$3442         pff
C:   000015AC  A$pff\Debug\pff3a\pff$3443         pff
C:   000015AD  A$pff\Debug\pff3a\pff$3444         pff
C:   000015AE  A$pff\Debug\pff3a\pff$3445         pff
C:   000015AF  A$pff\Debug\pff3a\pff$3446         pff
C:   000015B0  A$pff\Debug\pff3a\pff$3447         pff
C:   000015B1  A$pff\Debug\pff3a\pff$3448         pff
C:   000015B2  A$pff\Debug\pff3a\pff$3449         pff
C:   000015B3  A$pff\Debug\pff3a\pff$3450         pff
C:   000015B4  A$pff\Debug\pff3a\pff$3451         pff
C:   000015B5  A$pff\Debug\pff3a\pff$3452         pff
C:   000015B6  A$pff\Debug\pff3a\pff$3456         pff
C:   000015B6  C$pff.c$760$1_0$49                 pff
C:   000015B8  A$pff\Debug\pff3a\pff$3457         pff
C:   000015BA  A$pff\Debug\pff3a\pff$3458         pff
C:   000015BC  A$pff\Debug\pff3a\pff$3459         pff
C:   000015BE  A$pff\Debug\pff3a\pff$3460         pff
C:   000015C0  A$pff\Debug\pff3a\pff$3461         pff
C:   000015C1  A$pff\Debug\pff3a\pff$3462         pff
C:   000015C3  A$pff\Debug\pff3a\pff$3463         pff
C:   000015C5  A$pff\Debug\pff3a\pff$3464         pff
C:   000015C7  A$pff\Debug\pff3a\pff$3465         pff
C:   000015C9  A$pff\Debug\pff3a\pff$3466         pff
C:   000015CB  A$pff\Debug\pff3a\pff$3467         pff
C:   000015CD  A$pff\Debug\pff3a\pff$3468         pff
C:   000015CF  A$pff\Debug\pff3a\pff$3469         pff
C:   000015D1  A$pff\Debug\pff3a\pff$3470         pff
C:   000015D2  A$pff\Debug\pff3a\pff$3471         pff
C:   000015D4  A$pff\Debug\pff3a\pff$3472         pff
C:   000015D5  A$pff\Debug\pff3a\pff$3473         pff
C:   000015D7  A$pff\Debug\pff3a\pff$3474         pff
C:   000015D8  A$pff\Debug\pff3a\pff$3475         pff
C:   000015DA  A$pff\Debug\pff3a\pff$3476         pff
C:   000015DD  A$pff\Debug\pff3a\pff$3477         pff
C:   000015DF  A$pff\Debug\pff3a\pff$3478         pff
C:   000015E1  A$pff\Debug\pff3a\pff$3479         pff
C:   000015E3  A$pff\Debug\pff3a\pff$3480         pff
ASxxxx Linker V03.00 + NoICE + sdld,  page 91.
Hexadecimal  [32-Bits]

Area                                    Addr        Size        Decimal Bytes (Attributes)
--------------------------------        ----        ----        ------- ----- ------------
CSEG                                00000062    00003CB7 =       15543. bytes (REL,CON,CODE)

      Value  Global                              Global Defined In Module
      -----  --------------------------------   ------------------------
C:   000015E5  A$pff\Debug\pff3a\pff$3481         pff
C:   000015E7  A$pff\Debug\pff3a\pff$3482         pff
C:   000015E9  A$pff\Debug\pff3a\pff$3483         pff
C:   000015EB  A$pff\Debug\pff3a\pff$3484         pff
C:   000015ED  A$pff\Debug\pff3a\pff$3485         pff
C:   000015EE  A$pff\Debug\pff3a\pff$3486         pff
C:   000015F0  A$pff\Debug\pff3a\pff$3489         pff
C:   000015F0  C$pff.c$761$1_0$49                 pff
C:   000015F2  A$pff\Debug\pff3a\pff$3490         pff
C:   000015F4  A$pff\Debug\pff3a\pff$3491         pff
C:   000015F5  A$pff\Debug\pff3a\pff$3492         pff
C:   000015F6  A$pff\Debug\pff3a\pff$3493         pff
C:   000015F8  A$pff\Debug\pff3a\pff$3494         pff
C:   000015FA  A$pff\Debug\pff3a\pff$3495         pff
C:   000015FC  A$pff\Debug\pff3a\pff$3496         pff
C:   000015FE  A$pff\Debug\pff3a\pff$3497         pff
C:   00001601  A$pff\Debug\pff3a\pff$3501         pff
C:   00001601  C$pff.c$762$1_0$49                 pff
C:   00001603  A$pff\Debug\pff3a\pff$3502         pff
C:   00001605  A$pff\Debug\pff3a\pff$3503         pff
C:   00001607  A$pff\Debug\pff3a\pff$3504         pff
C:   00001609  A$pff\Debug\pff3a\pff$3505         pff
C:   0000160B  A$pff\Debug\pff3a\pff$3506         pff
C:   0000160D  A$pff\Debug\pff3a\pff$3507         pff
C:   0000160F  A$pff\Debug\pff3a\pff$3508         pff
C:   00001610  A$pff\Debug\pff3a\pff$3509         pff
C:   00001611  A$pff\Debug\pff3a\pff$3510         pff
C:   00001613  A$pff\Debug\pff3a\pff$3511         pff
C:   00001614  A$pff\Debug\pff3a\pff$3512         pff
C:   00001615  A$pff\Debug\pff3a\pff$3513         pff
C:   00001617  A$pff\Debug\pff3a\pff$3514         pff
C:   00001618  A$pff\Debug\pff3a\pff$3515         pff
C:   00001619  A$pff\Debug\pff3a\pff$3516         pff
C:   0000161B  A$pff\Debug\pff3a\pff$3517         pff
C:   0000161D  A$pff\Debug\pff3a\pff$3518         pff
C:   0000161E  A$pff\Debug\pff3a\pff$3519         pff
C:   00001620  A$pff\Debug\pff3a\pff$3520         pff
C:   00001621  A$pff\Debug\pff3a\pff$3521         pff
C:   00001623  A$pff\Debug\pff3a\pff$3522         pff
C:   00001624  A$pff\Debug\pff3a\pff$3523         pff
C:   00001626  A$pff\Debug\pff3a\pff$3524         pff
C:   00001629  A$pff\Debug\pff3a\pff$3525         pff
C:   0000162B  A$pff\Debug\pff3a\pff$3526         pff
C:   0000162D  A$pff\Debug\pff3a\pff$3527         pff
C:   0000162F  A$pff\Debug\pff3a\pff$3528         pff
C:   00001631  A$pff\Debug\pff3a\pff$3529         pff
C:   00001633  A$pff\Debug\pff3a\pff$3530         pff
C:   00001635  A$pff\Debug\pff3a\pff$3531         pff
C:   00001637  A$pff\Debug\pff3a\pff$3532         pff
C:   00001639  A$pff\Debug\pff3a\pff$3533         pff
C:   0000163A  A$pff\Debug\pff3a\pff$3534         pff
ASxxxx Linker V03.00 + NoICE + sdld,  page 92.
Hexadecimal  [32-Bits]

Area                                    Addr        Size        Decimal Bytes (Attributes)
--------------------------------        ----        ----        ------- ----- ------------
CSEG                                00000062    00003CB7 =       15543. bytes (REL,CON,CODE)

      Value  Global                              Global Defined In Module
      -----  --------------------------------   ------------------------
C:   0000163C  A$pff\Debug\pff3a\pff$3537         pff
C:   0000163C  C$pff.c$763$1_0$49                 pff
C:   0000163E  A$pff\Debug\pff3a\pff$3538         pff
C:   00001640  A$pff\Debug\pff3a\pff$3539         pff
C:   00001641  A$pff\Debug\pff3a\pff$3540         pff
C:   00001642  A$pff\Debug\pff3a\pff$3541         pff
C:   00001644  A$pff\Debug\pff3a\pff$3542         pff
C:   00001646  A$pff\Debug\pff3a\pff$3543         pff
C:   00001648  A$pff\Debug\pff3a\pff$3544         pff
C:   0000164A  A$pff\Debug\pff3a\pff$3545         pff
C:   0000164D  A$pff\Debug\pff3a\pff$3549         pff
C:   0000164D  C$pff.c$764$1_0$49                 pff
C:   0000164F  A$pff\Debug\pff3a\pff$3550         pff
C:   00001651  A$pff\Debug\pff3a\pff$3551         pff
C:   00001653  A$pff\Debug\pff3a\pff$3552         pff
C:   00001656  A$pff\Debug\pff3a\pff$3553         pff
C:   00001657  A$pff\Debug\pff3a\pff$3554         pff
C:   00001658  A$pff\Debug\pff3a\pff$3555         pff
C:   0000165B  A$pff\Debug\pff3a\pff$3556         pff
C:   0000165C  A$pff\Debug\pff3a\pff$3557         pff
C:   0000165D  A$pff\Debug\pff3a\pff$3558         pff
C:   00001660  A$pff\Debug\pff3a\pff$3559         pff
C:   00001661  A$pff\Debug\pff3a\pff$3560         pff
C:   00001663  A$pff\Debug\pff3a\pff$3561         pff
C:   00001664  A$pff\Debug\pff3a\pff$3562         pff
C:   00001665  A$pff\Debug\pff3a\pff$3563         pff
C:   00001666  A$pff\Debug\pff3a\pff$3564         pff
C:   00001667  A$pff\Debug\pff3a\pff$3565         pff
C:   00001668  A$pff\Debug\pff3a\pff$3566         pff
C:   0000166A  A$pff\Debug\pff3a\pff$3567         pff
C:   0000166C  A$pff\Debug\pff3a\pff$3568         pff
C:   0000166E  A$pff\Debug\pff3a\pff$3569         pff
C:   00001671  A$pff\Debug\pff3a\pff$3570         pff
C:   00001673  A$pff\Debug\pff3a\pff$3571         pff
C:   00001676  A$pff\Debug\pff3a\pff$3575         pff
C:   00001676  C$pff.c$765$1_0$49                 pff
C:   00001678  A$pff\Debug\pff3a\pff$3576         pff
C:   0000167A  A$pff\Debug\pff3a\pff$3577         pff
C:   0000167C  A$pff\Debug\pff3a\pff$3578         pff
C:   0000167E  A$pff\Debug\pff3a\pff$3579         pff
C:   00001680  A$pff\Debug\pff3a\pff$3580         pff
C:   00001681  A$pff\Debug\pff3a\pff$3581         pff
C:   00001683  A$pff\Debug\pff3a\pff$3582         pff
C:   00001684  A$pff\Debug\pff3a\pff$3583         pff
C:   00001686  A$pff\Debug\pff3a\pff$3584         pff
C:   00001687  A$pff\Debug\pff3a\pff$3585         pff
C:   00001689  A$pff\Debug\pff3a\pff$3586         pff
C:   0000168C  A$pff\Debug\pff3a\pff$3587         pff
C:   0000168E  A$pff\Debug\pff3a\pff$3588         pff
C:   00001690  A$pff\Debug\pff3a\pff$3589         pff
C:   00001692  A$pff\Debug\pff3a\pff$3590         pff
ASxxxx Linker V03.00 + NoICE + sdld,  page 93.
Hexadecimal  [32-Bits]

Area                                    Addr        Size        Decimal Bytes (Attributes)
--------------------------------        ----        ----        ------- ----- ------------
CSEG                                00000062    00003CB7 =       15543. bytes (REL,CON,CODE)

      Value  Global                              Global Defined In Module
      -----  --------------------------------   ------------------------
C:   00001695  A$pff\Debug\pff3a\pff$3593         pff
C:   00001695  C$pff.c$766$5_0$54                 pff
C:   00001697  A$pff\Debug\pff3a\pff$3594         pff
C:   00001699  A$pff\Debug\pff3a\pff$3595         pff
C:   0000169A  A$pff\Debug\pff3a\pff$3596         pff
C:   0000169C  A$pff\Debug\pff3a\pff$3597         pff
C:   0000169E  A$pff\Debug\pff3a\pff$3601         pff
C:   0000169E  C$pff.c$768$1_0$49                 pff
C:   000016A0  A$pff\Debug\pff3a\pff$3602         pff
C:   000016A2  A$pff\Debug\pff3a\pff$3603         pff
C:   000016A4  A$pff\Debug\pff3a\pff$3604         pff
C:   000016A6  A$pff\Debug\pff3a\pff$3605         pff
C:   000016A7  A$pff\Debug\pff3a\pff$3606         pff
C:   000016A9  A$pff\Debug\pff3a\pff$3607         pff
C:   000016AB  A$pff\Debug\pff3a\pff$3608         pff
C:   000016AC  A$pff\Debug\pff3a\pff$3609         pff
C:   000016AE  A$pff\Debug\pff3a\pff$3610         pff
C:   000016AF  A$pff\Debug\pff3a\pff$3611         pff
C:   000016B0  A$pff\Debug\pff3a\pff$3612         pff
C:   000016B1  A$pff\Debug\pff3a\pff$3613         pff
C:   000016B2  A$pff\Debug\pff3a\pff$3614         pff
C:   000016B3  A$pff\Debug\pff3a\pff$3615         pff
C:   000016B4  A$pff\Debug\pff3a\pff$3616         pff
C:   000016B5  A$pff\Debug\pff3a\pff$3617         pff
C:   000016B6  A$pff\Debug\pff3a\pff$3618         pff
C:   000016B7  A$pff\Debug\pff3a\pff$3619         pff
C:   000016B8  A$pff\Debug\pff3a\pff$3620         pff
C:   000016B9  A$pff\Debug\pff3a\pff$3621         pff
C:   000016BB  A$pff\Debug\pff3a\pff$3622         pff
C:   000016BD  A$pff\Debug\pff3a\pff$3623         pff
C:   000016BE  A$pff\Debug\pff3a\pff$3624         pff
C:   000016C0  A$pff\Debug\pff3a\pff$3625         pff
C:   000016C1  A$pff\Debug\pff3a\pff$3626         pff
C:   000016C3  A$pff\Debug\pff3a\pff$3627         pff
C:   000016C4  A$pff\Debug\pff3a\pff$3628         pff
C:   000016C6  A$pff\Debug\pff3a\pff$3629         pff
C:   000016C8  A$pff\Debug\pff3a\pff$3630         pff
C:   000016CA  A$pff\Debug\pff3a\pff$3631         pff
C:   000016CD  A$pff\Debug\pff3a\pff$3632         pff
C:   000016CF  A$pff\Debug\pff3a\pff$3633         pff
C:   000016D1  A$pff\Debug\pff3a\pff$3634         pff
C:   000016D3  A$pff\Debug\pff3a\pff$3635         pff
C:   000016D4  A$pff\Debug\pff3a\pff$3636         pff
C:   000016D6  A$pff\Debug\pff3a\pff$3637         pff
C:   000016D8  A$pff\Debug\pff3a\pff$3638         pff
C:   000016DA  A$pff\Debug\pff3a\pff$3639         pff
C:   000016DC  A$pff\Debug\pff3a\pff$3640         pff
C:   000016DD  A$pff\Debug\pff3a\pff$3641         pff
C:   000016DF  A$pff\Debug\pff3a\pff$3642         pff
C:   000016E0  A$pff\Debug\pff3a\pff$3643         pff
C:   000016E2  A$pff\Debug\pff3a\pff$3644         pff
ASxxxx Linker V03.00 + NoICE + sdld,  page 94.
Hexadecimal  [32-Bits]

Area                                    Addr        Size        Decimal Bytes (Attributes)
--------------------------------        ----        ----        ------- ----- ------------
CSEG                                00000062    00003CB7 =       15543. bytes (REL,CON,CODE)

      Value  Global                              Global Defined In Module
      -----  --------------------------------   ------------------------
C:   000016E3  A$pff\Debug\pff3a\pff$3645         pff
C:   000016E5  A$pff\Debug\pff3a\pff$3646         pff
C:   000016E6  A$pff\Debug\pff3a\pff$3647         pff
C:   000016E9  A$pff\Debug\pff3a\pff$3648         pff
C:   000016EA  A$pff\Debug\pff3a\pff$3649         pff
C:   000016EB  A$pff\Debug\pff3a\pff$3650         pff
C:   000016EE  A$pff\Debug\pff3a\pff$3651         pff
C:   000016EF  A$pff\Debug\pff3a\pff$3652         pff
C:   000016F0  A$pff\Debug\pff3a\pff$3653         pff
C:   000016F3  A$pff\Debug\pff3a\pff$3654         pff
C:   000016F4  A$pff\Debug\pff3a\pff$3655         pff
C:   000016F5  A$pff\Debug\pff3a\pff$3656         pff
C:   000016F8  A$pff\Debug\pff3a\pff$3657         pff
C:   000016FA  A$pff\Debug\pff3a\pff$3658         pff
C:   000016FC  A$pff\Debug\pff3a\pff$3659         pff
C:   000016FE  A$pff\Debug\pff3a\pff$3660         pff
C:   00001701  A$pff\Debug\pff3a\pff$3664         pff
C:   00001701  C$pff.c$772$1_0$49                 pff
C:   00001703  A$pff\Debug\pff3a\pff$3665         pff
C:   00001705  A$pff\Debug\pff3a\pff$3666         pff
C:   00001706  A$pff\Debug\pff3a\pff$3667         pff
C:   00001708  A$pff\Debug\pff3a\pff$3670         pff
C:   0000170B  A$pff\Debug\pff3a\pff$3671         pff
C:   0000170D  A$pff\Debug\pff3a\pff$3674         pff
C:   0000170D  C$pff.c$773$1_0$49                 pff
C:   0000170D  XFpff$follow_path$0$0              pff
C:   0000170E  A$pff\Debug\pff3a\pff$3688         pff
C:   0000170E  C$pff.c$782$1_0$56                 pff
C:   0000170E  Fpff$check_fs$0$0                  pff
C:   00001710  A$pff\Debug\pff3a\pff$3689         pff
C:   00001713  A$pff\Debug\pff3a\pff$3690         pff
C:   00001715  A$pff\Debug\pff3a\pff$3691         pff
C:   00001717  A$pff\Debug\pff3a\pff$3692         pff
C:   00001719  A$pff\Debug\pff3a\pff$3695         pff
C:   00001719  C$pff.c$787$1_0$56                 pff
C:   0000171B  A$pff\Debug\pff3a\pff$3696         pff
C:   0000171D  A$pff\Debug\pff3a\pff$3697         pff
C:   0000171F  A$pff\Debug\pff3a\pff$3698         pff
C:   00001721  A$pff\Debug\pff3a\pff$3699         pff
C:   00001723  A$pff\Debug\pff3a\pff$3700         pff
C:   00001724  A$pff\Debug\pff3a\pff$3701         pff
C:   00001726  A$pff\Debug\pff3a\pff$3702         pff
C:   00001728  A$pff\Debug\pff3a\pff$3703         pff
C:   0000172A  A$pff\Debug\pff3a\pff$3704         pff
C:   0000172B  A$pff\Debug\pff3a\pff$3705         pff
C:   0000172D  A$pff\Debug\pff3a\pff$3706         pff
C:   0000172F  A$pff\Debug\pff3a\pff$3707         pff
C:   00001731  A$pff\Debug\pff3a\pff$3708         pff
C:   00001732  A$pff\Debug\pff3a\pff$3709         pff
C:   00001733  A$pff\Debug\pff3a\pff$3710         pff
C:   00001735  A$pff\Debug\pff3a\pff$3711         pff
ASxxxx Linker V03.00 + NoICE + sdld,  page 95.
Hexadecimal  [32-Bits]

Area                                    Addr        Size        Decimal Bytes (Attributes)
--------------------------------        ----        ----        ------- ----- ------------
CSEG                                00000062    00003CB7 =       15543. bytes (REL,CON,CODE)

      Value  Global                              Global Defined In Module
      -----  --------------------------------   ------------------------
C:   00001736  A$pff\Debug\pff3a\pff$3712         pff
C:   00001737  A$pff\Debug\pff3a\pff$3713         pff
C:   00001739  A$pff\Debug\pff3a\pff$3714         pff
C:   0000173A  A$pff\Debug\pff3a\pff$3715         pff
C:   0000173B  A$pff\Debug\pff3a\pff$3716         pff
C:   0000173D  A$pff\Debug\pff3a\pff$3717         pff
C:   0000173E  A$pff\Debug\pff3a\pff$3718         pff
C:   0000173F  A$pff\Debug\pff3a\pff$3719         pff
C:   00001741  A$pff\Debug\pff3a\pff$3720         pff
C:   00001743  A$pff\Debug\pff3a\pff$3721         pff
C:   00001745  A$pff\Debug\pff3a\pff$3722         pff
C:   00001747  A$pff\Debug\pff3a\pff$3723         pff
C:   0000174A  A$pff\Debug\pff3a\pff$3724         pff
C:   0000174C  A$pff\Debug\pff3a\pff$3725         pff
C:   0000174E  A$pff\Debug\pff3a\pff$3726         pff
C:   00001750  A$pff\Debug\pff3a\pff$3727         pff
C:   00001752  A$pff\Debug\pff3a\pff$3728         pff
C:   00001754  A$pff\Debug\pff3a\pff$3729         pff
C:   00001756  A$pff\Debug\pff3a\pff$3730         pff
C:   00001758  A$pff\Debug\pff3a\pff$3731         pff
C:   00001759  A$pff\Debug\pff3a\pff$3732         pff
C:   0000175B  A$pff\Debug\pff3a\pff$3735         pff
C:   0000175B  C$pff.c$788$2_0$57                 pff
C:   0000175E  A$pff\Debug\pff3a\pff$3736         pff
C:   00001761  A$pff\Debug\pff3a\pff$3740         pff
C:   00001761  C$pff.c$790$1_0$56                 pff
C:   00001763  A$pff\Debug\pff3a\pff$3741         pff
C:   00001765  A$pff\Debug\pff3a\pff$3742         pff
C:   00001767  A$pff\Debug\pff3a\pff$3743         pff
C:   00001769  A$pff\Debug\pff3a\pff$3744         pff
C:   0000176B  A$pff\Debug\pff3a\pff$3745         pff
C:   0000176D  A$pff\Debug\pff3a\pff$3746         pff
C:   00001770  A$pff\Debug\pff3a\pff$3747         pff
C:   00001772  A$pff\Debug\pff3a\pff$3748         pff
C:   00001774  A$pff\Debug\pff3a\pff$3749         pff
C:   00001776  A$pff\Debug\pff3a\pff$3750         pff
C:   00001778  A$pff\Debug\pff3a\pff$3751         pff
C:   0000177A  A$pff\Debug\pff3a\pff$3752         pff
C:   0000177D  A$pff\Debug\pff3a\pff$3753         pff
C:   00001780  A$pff\Debug\pff3a\pff$3754         pff
C:   00001782  A$pff\Debug\pff3a\pff$3758         pff
C:   00001782  C$pff.c$791$2_0$58                 pff
C:   00001785  A$pff\Debug\pff3a\pff$3759         pff
C:   00001788  A$pff\Debug\pff3a\pff$3763         pff
C:   00001788  C$pff.c$794$1_0$56                 pff
C:   0000178A  A$pff\Debug\pff3a\pff$3764         pff
C:   0000178C  A$pff\Debug\pff3a\pff$3765         pff
C:   0000178E  A$pff\Debug\pff3a\pff$3766         pff
C:   00001790  A$pff\Debug\pff3a\pff$3767         pff
C:   00001792  A$pff\Debug\pff3a\pff$3768         pff
C:   00001793  A$pff\Debug\pff3a\pff$3769         pff
ASxxxx Linker V03.00 + NoICE + sdld,  page 96.
Hexadecimal  [32-Bits]

Area                                    Addr        Size        Decimal Bytes (Attributes)
--------------------------------        ----        ----        ------- ----- ------------
CSEG                                00000062    00003CB7 =       15543. bytes (REL,CON,CODE)

      Value  Global                              Global Defined In Module
      -----  --------------------------------   ------------------------
C:   00001795  A$pff\Debug\pff3a\pff$3770         pff
C:   00001797  A$pff\Debug\pff3a\pff$3771         pff
C:   00001799  A$pff\Debug\pff3a\pff$3772         pff
C:   0000179A  A$pff\Debug\pff3a\pff$3773         pff
C:   0000179C  A$pff\Debug\pff3a\pff$3774         pff
C:   0000179E  A$pff\Debug\pff3a\pff$3775         pff
C:   000017A0  A$pff\Debug\pff3a\pff$3776         pff
C:   000017A1  A$pff\Debug\pff3a\pff$3777         pff
C:   000017A2  A$pff\Debug\pff3a\pff$3778         pff
C:   000017A4  A$pff\Debug\pff3a\pff$3779         pff
C:   000017A5  A$pff\Debug\pff3a\pff$3780         pff
C:   000017A6  A$pff\Debug\pff3a\pff$3781         pff
C:   000017A8  A$pff\Debug\pff3a\pff$3782         pff
C:   000017A9  A$pff\Debug\pff3a\pff$3783         pff
C:   000017AA  A$pff\Debug\pff3a\pff$3784         pff
C:   000017AC  A$pff\Debug\pff3a\pff$3785         pff
C:   000017AD  A$pff\Debug\pff3a\pff$3786         pff
C:   000017AE  A$pff\Debug\pff3a\pff$3787         pff
C:   000017B0  A$pff\Debug\pff3a\pff$3788         pff
C:   000017B2  A$pff\Debug\pff3a\pff$3789         pff
C:   000017B4  A$pff\Debug\pff3a\pff$3790         pff
C:   000017B6  A$pff\Debug\pff3a\pff$3791         pff
C:   000017B9  A$pff\Debug\pff3a\pff$3792         pff
C:   000017BB  A$pff\Debug\pff3a\pff$3793         pff
C:   000017BD  A$pff\Debug\pff3a\pff$3794         pff
C:   000017BF  A$pff\Debug\pff3a\pff$3795         pff
C:   000017C1  A$pff\Debug\pff3a\pff$3796         pff
C:   000017C3  A$pff\Debug\pff3a\pff$3797         pff
C:   000017C5  A$pff\Debug\pff3a\pff$3798         pff
C:   000017C7  A$pff\Debug\pff3a\pff$3799         pff
C:   000017C8  A$pff\Debug\pff3a\pff$3800         pff
C:   000017CA  A$pff\Debug\pff3a\pff$3801         pff
C:   000017CC  A$pff\Debug\pff3a\pff$3802         pff
C:   000017CE  A$pff\Debug\pff3a\pff$3803         pff
C:   000017D0  A$pff\Debug\pff3a\pff$3804         pff
C:   000017D2  A$pff\Debug\pff3a\pff$3805         pff
C:   000017D4  A$pff\Debug\pff3a\pff$3806         pff
C:   000017D6  A$pff\Debug\pff3a\pff$3807         pff
C:   000017D9  A$pff\Debug\pff3a\pff$3808         pff
C:   000017DB  A$pff\Debug\pff3a\pff$3809         pff
C:   000017DD  A$pff\Debug\pff3a\pff$3810         pff
C:   000017DF  A$pff\Debug\pff3a\pff$3811         pff
C:   000017E1  A$pff\Debug\pff3a\pff$3812         pff
C:   000017E3  A$pff\Debug\pff3a\pff$3813         pff
C:   000017E6  A$pff\Debug\pff3a\pff$3814         pff
C:   000017E9  A$pff\Debug\pff3a\pff$3817         pff
C:   000017E9  C$pff.c$795$2_0$59                 pff
C:   000017EC  A$pff\Debug\pff3a\pff$3820         pff
C:   000017EC  C$pff.c$797$1_0$56                 pff
C:   000017EE  A$pff\Debug\pff3a\pff$3822         pff
C:   000017F0  A$pff\Debug\pff3a\pff$3823         pff
ASxxxx Linker V03.00 + NoICE + sdld,  page 97.
Hexadecimal  [32-Bits]

Area                                    Addr        Size        Decimal Bytes (Attributes)
--------------------------------        ----        ----        ------- ----- ------------
CSEG                                00000062    00003CB7 =       15543. bytes (REL,CON,CODE)

      Value  Global                              Global Defined In Module
      -----  --------------------------------   ------------------------
C:   000017F2  A$pff\Debug\pff3a\pff$3824         pff
C:   000017F4  A$pff\Debug\pff3a\pff$3825         pff
C:   000017F6  A$pff\Debug\pff3a\pff$3826         pff
C:   000017F8  A$pff\Debug\pff3a\pff$3827         pff
C:   000017F9  A$pff\Debug\pff3a\pff$3828         pff
C:   000017FB  A$pff\Debug\pff3a\pff$3829         pff
C:   000017FD  A$pff\Debug\pff3a\pff$3830         pff
C:   000017FF  A$pff\Debug\pff3a\pff$3831         pff
C:   00001800  A$pff\Debug\pff3a\pff$3832         pff
C:   00001802  A$pff\Debug\pff3a\pff$3833         pff
C:   00001804  A$pff\Debug\pff3a\pff$3834         pff
C:   00001806  A$pff\Debug\pff3a\pff$3835         pff
C:   00001807  A$pff\Debug\pff3a\pff$3836         pff
C:   00001808  A$pff\Debug\pff3a\pff$3837         pff
C:   0000180A  A$pff\Debug\pff3a\pff$3838         pff
C:   0000180B  A$pff\Debug\pff3a\pff$3839         pff
C:   0000180C  A$pff\Debug\pff3a\pff$3840         pff
C:   0000180E  A$pff\Debug\pff3a\pff$3841         pff
C:   0000180F  A$pff\Debug\pff3a\pff$3842         pff
C:   00001810  A$pff\Debug\pff3a\pff$3843         pff
C:   00001812  A$pff\Debug\pff3a\pff$3844         pff
C:   00001813  A$pff\Debug\pff3a\pff$3845         pff
C:   00001814  A$pff\Debug\pff3a\pff$3846         pff
C:   00001816  A$pff\Debug\pff3a\pff$3847         pff
C:   00001818  A$pff\Debug\pff3a\pff$3848         pff
C:   0000181A  A$pff\Debug\pff3a\pff$3849         pff
C:   0000181C  A$pff\Debug\pff3a\pff$3850         pff
C:   0000181F  A$pff\Debug\pff3a\pff$3851         pff
C:   00001821  A$pff\Debug\pff3a\pff$3852         pff
C:   00001823  A$pff\Debug\pff3a\pff$3853         pff
C:   00001825  A$pff\Debug\pff3a\pff$3854         pff
C:   00001827  A$pff\Debug\pff3a\pff$3855         pff
C:   00001829  A$pff\Debug\pff3a\pff$3856         pff
C:   0000182B  A$pff\Debug\pff3a\pff$3857         pff
C:   0000182D  A$pff\Debug\pff3a\pff$3858         pff
C:   0000182E  A$pff\Debug\pff3a\pff$3859         pff
C:   00001830  A$pff\Debug\pff3a\pff$3860         pff
C:   00001832  A$pff\Debug\pff3a\pff$3861         pff
C:   00001834  A$pff\Debug\pff3a\pff$3862         pff
C:   00001836  A$pff\Debug\pff3a\pff$3863         pff
C:   00001839  A$pff\Debug\pff3a\pff$3864         pff
C:   0000183B  A$pff\Debug\pff3a\pff$3865         pff
C:   0000183D  A$pff\Debug\pff3a\pff$3866         pff
C:   00001840  A$pff\Debug\pff3a\pff$3867         pff
C:   00001843  A$pff\Debug\pff3a\pff$3870         pff
C:   00001843  C$pff.c$798$2_0$60                 pff
C:   00001846  A$pff\Debug\pff3a\pff$3871         pff
C:   00001848  A$pff\Debug\pff3a\pff$3875         pff
C:   00001848  C$pff.c$800$1_0$56                 pff
C:   0000184B  A$pff\Debug\pff3a\pff$3879         pff
C:   0000184D  A$pff\Debug\pff3a\pff$3882         pff
ASxxxx Linker V03.00 + NoICE + sdld,  page 98.
Hexadecimal  [32-Bits]

Area                                    Addr        Size        Decimal Bytes (Attributes)
--------------------------------        ----        ----        ------- ----- ------------
CSEG                                00000062    00003CB7 =       15543. bytes (REL,CON,CODE)

      Value  Global                              Global Defined In Module
      -----  --------------------------------   ------------------------
C:   0000184D  C$pff.c$801$1_0$56                 pff
C:   0000184D  XFpff$check_fs$0$0                 pff
C:   0000184E  A$pff\Debug\pff3a\pff$3906         pff
C:   0000184E  C$pff.c$818$1_0$62                 pff
C:   0000184E  G$pf_mount$0$0                     pff
C:   0000184E  _pf_mount                          pff
C:   00001850  A$pff\Debug\pff3a\pff$3907         pff
C:   00001853  A$pff\Debug\pff3a\pff$3908         pff
C:   00001855  A$pff\Debug\pff3a\pff$3909         pff
C:   00001857  A$pff\Debug\pff3a\pff$3910         pff
C:   00001859  A$pff\Debug\pff3a\pff$3911         pff
C:   0000185B  A$pff\Debug\pff3a\pff$3912         pff
C:   0000185D  A$pff\Debug\pff3a\pff$3913         pff
C:   0000185F  A$pff\Debug\pff3a\pff$3916         pff
C:   0000185F  C$pff.c$825$1_0$62                 pff
C:   00001862  A$pff\Debug\pff3a\pff$3917         pff
C:   00001863  A$pff\Debug\pff3a\pff$3918         pff
C:   00001864  A$pff\Debug\pff3a\pff$3919         pff
C:   00001865  A$pff\Debug\pff3a\pff$3920         pff
C:   00001866  A$pff\Debug\pff3a\pff$3921         pff
C:   00001867  A$pff\Debug\pff3a\pff$3922         pff
C:   00001868  A$pff\Debug\pff3a\pff$3925         pff
C:   00001868  C$pff.c$826$1_0$62                 pff
C:   0000186B  A$pff\Debug\pff3a\pff$3926         pff
C:   0000186D  A$pff\Debug\pff3a\pff$3927         pff
C:   00001870  A$pff\Debug\pff3a\pff$3930         pff
C:   00001870  C$pff.c$827$2_0$63                 pff
C:   00001873  A$pff\Debug\pff3a\pff$3931         pff
C:   00001876  A$pff\Debug\pff3a\pff$3935         pff
C:   00001876  C$pff.c$831$1_0$62                 pff
C:   00001878  A$pff\Debug\pff3a\pff$3936         pff
C:   0000187A  A$pff\Debug\pff3a\pff$3937         pff
C:   0000187B  A$pff\Debug\pff3a\pff$3938         pff
C:   0000187C  A$pff\Debug\pff3a\pff$3939         pff
C:   0000187D  A$pff\Debug\pff3a\pff$3940         pff
C:   0000187E  A$pff\Debug\pff3a\pff$3941         pff
C:   0000187F  A$pff\Debug\pff3a\pff$3942         pff
C:   00001880  A$pff\Debug\pff3a\pff$3943         pff
C:   00001881  A$pff\Debug\pff3a\pff$3944         pff
C:   00001882  A$pff\Debug\pff3a\pff$3945         pff
C:   00001883  A$pff\Debug\pff3a\pff$3948         pff
C:   00001883  C$pff.c$832$1_0$62                 pff
C:   00001885  A$pff\Debug\pff3a\pff$3949         pff
C:   00001887  A$pff\Debug\pff3a\pff$3950         pff
C:   00001888  A$pff\Debug\pff3a\pff$3951         pff
C:   00001889  A$pff\Debug\pff3a\pff$3952         pff
C:   0000188B  A$pff\Debug\pff3a\pff$3953         pff
C:   0000188D  A$pff\Debug\pff3a\pff$3954         pff
C:   0000188F  A$pff\Debug\pff3a\pff$3955         pff
C:   00001890  A$pff\Debug\pff3a\pff$3956         pff
C:   00001892  A$pff\Debug\pff3a\pff$3957         pff
ASxxxx Linker V03.00 + NoICE + sdld,  page 99.
Hexadecimal  [32-Bits]

Area                                    Addr        Size        Decimal Bytes (Attributes)
--------------------------------        ----        ----        ------- ----- ------------
CSEG                                00000062    00003CB7 =       15543. bytes (REL,CON,CODE)

      Value  Global                              Global Defined In Module
      -----  --------------------------------   ------------------------
C:   00001894  A$pff\Debug\pff3a\pff$3958         pff
C:   00001896  A$pff\Debug\pff3a\pff$3959         pff
C:   00001898  A$pff\Debug\pff3a\pff$3960         pff
C:   0000189A  A$pff\Debug\pff3a\pff$3961         pff
C:   0000189C  A$pff\Debug\pff3a\pff$3962         pff
C:   0000189E  A$pff\Debug\pff3a\pff$3963         pff
C:   000018A1  A$pff\Debug\pff3a\pff$3964         pff
C:   000018A3  A$pff\Debug\pff3a\pff$3965         pff
C:   000018A5  A$pff\Debug\pff3a\pff$3966         pff
C:   000018A7  A$pff\Debug\pff3a\pff$3967         pff
C:   000018A9  A$pff\Debug\pff3a\pff$3968         pff
C:   000018AB  A$pff\Debug\pff3a\pff$3971         pff
C:   000018AB  C$pff.c$833$1_0$62                 pff
C:   000018AE  A$pff\Debug\pff3a\pff$3972         pff
C:   000018B0  A$pff\Debug\pff3a\pff$3974         pff
C:   000018B3  A$pff\Debug\pff3a\pff$3978         pff
C:   000018B3  C$pff.c$837$1_0$62                 pff
C:   000018B5  A$pff\Debug\pff3a\pff$3979         pff
C:   000018B7  A$pff\Debug\pff3a\pff$3980         pff
C:   000018B9  A$pff\Debug\pff3a\pff$3981         pff
C:   000018BB  A$pff\Debug\pff3a\pff$3982         pff
C:   000018BD  A$pff\Debug\pff3a\pff$3983         pff
C:   000018BF  A$pff\Debug\pff3a\pff$3984         pff
C:   000018C1  A$pff\Debug\pff3a\pff$3985         pff
C:   000018C3  A$pff\Debug\pff3a\pff$3986         pff
C:   000018C4  A$pff\Debug\pff3a\pff$3987         pff
C:   000018C6  A$pff\Debug\pff3a\pff$3988         pff
C:   000018C8  A$pff\Debug\pff3a\pff$3989         pff
C:   000018CA  A$pff\Debug\pff3a\pff$3990         pff
C:   000018CC  A$pff\Debug\pff3a\pff$3991         pff
C:   000018CE  A$pff\Debug\pff3a\pff$3992         pff
C:   000018CF  A$pff\Debug\pff3a\pff$3993         pff
C:   000018D1  A$pff\Debug\pff3a\pff$3994         pff
C:   000018D3  A$pff\Debug\pff3a\pff$3995         pff
C:   000018D5  A$pff\Debug\pff3a\pff$3996         pff
C:   000018D7  A$pff\Debug\pff3a\pff$3997         pff
C:   000018D9  A$pff\Debug\pff3a\pff$3998         pff
C:   000018DB  A$pff\Debug\pff3a\pff$3999         pff
C:   000018DD  A$pff\Debug\pff3a\pff$4000         pff
C:   000018E0  A$pff\Debug\pff3a\pff$4001         pff
C:   000018E2  A$pff\Debug\pff3a\pff$4002         pff
C:   000018E4  A$pff\Debug\pff3a\pff$4003         pff
C:   000018E6  A$pff\Debug\pff3a\pff$4004         pff
C:   000018E8  A$pff\Debug\pff3a\pff$4005         pff
C:   000018EA  A$pff\Debug\pff3a\pff$4006         pff
C:   000018EB  A$pff\Debug\pff3a\pff$4007         pff
C:   000018ED  A$pff\Debug\pff3a\pff$4008         pff
C:   000018EF  A$pff\Debug\pff3a\pff$4011         pff
C:   000018EF  C$pff.c$840$3_0$65                 pff
C:   000018F1  A$pff\Debug\pff3a\pff$4012         pff
C:   000018F3  A$pff\Debug\pff3a\pff$4016         pff
ASxxxx Linker V03.00 + NoICE + sdld,  page 100.
Hexadecimal  [32-Bits]

Area                                    Addr        Size        Decimal Bytes (Attributes)
--------------------------------        ----        ----        ------- ----- ------------
CSEG                                00000062    00003CB7 =       15543. bytes (REL,CON,CODE)

      Value  Global                              Global Defined In Module
      -----  --------------------------------   ------------------------
C:   000018F3  C$pff.c$844$3_0$66                 pff
C:   000018F5  A$pff\Debug\pff3a\pff$4017         pff
C:   000018F6  A$pff\Debug\pff3a\pff$4018         pff
C:   000018F7  A$pff\Debug\pff3a\pff$4019         pff
C:   000018F8  A$pff\Debug\pff3a\pff$4020         pff
C:   000018FA  A$pff\Debug\pff3a\pff$4023         pff
C:   000018FA  C$pff.c$847$1_0$62                 pff
C:   000018FC  A$pff\Debug\pff3a\pff$4024         pff
C:   000018FD  A$pff\Debug\pff3a\pff$4025         pff
C:   000018FE  A$pff\Debug\pff3a\pff$4026         pff
C:   00001900  A$pff\Debug\pff3a\pff$4027         pff
C:   00001902  A$pff\Debug\pff3a\pff$4028         pff
C:   00001904  A$pff\Debug\pff3a\pff$4029         pff
C:   00001906  A$pff\Debug\pff3a\pff$4030         pff
C:   00001908  A$pff\Debug\pff3a\pff$4031         pff
C:   0000190A  A$pff\Debug\pff3a\pff$4032         pff
C:   0000190D  A$pff\Debug\pff3a\pff$4033         pff
C:   0000190F  A$pff\Debug\pff3a\pff$4034         pff
C:   00001911  A$pff\Debug\pff3a\pff$4035         pff
C:   00001913  A$pff\Debug\pff3a\pff$4036         pff
C:   00001914  A$pff\Debug\pff3a\pff$4037         pff
C:   00001916  A$pff\Debug\pff3a\pff$4038         pff
C:   00001918  A$pff\Debug\pff3a\pff$4039         pff
C:   0000191A  A$pff\Debug\pff3a\pff$4040         pff
C:   0000191B  A$pff\Debug\pff3a\pff$4041         pff
C:   0000191D  A$pff\Debug\pff3a\pff$4042         pff
C:   0000191E  A$pff\Debug\pff3a\pff$4043         pff
C:   00001920  A$pff\Debug\pff3a\pff$4044         pff
C:   00001921  A$pff\Debug\pff3a\pff$4045         pff
C:   00001923  A$pff\Debug\pff3a\pff$4046         pff
C:   00001924  A$pff\Debug\pff3a\pff$4047         pff
C:   00001926  A$pff\Debug\pff3a\pff$4050         pff
C:   00001926  C$pff.c$849$4_0$67                 pff
C:   00001928  A$pff\Debug\pff3a\pff$4051         pff
C:   0000192A  A$pff\Debug\pff3a\pff$4052         pff
C:   0000192C  A$pff\Debug\pff3a\pff$4053         pff
C:   0000192E  A$pff\Debug\pff3a\pff$4054         pff
C:   00001930  A$pff\Debug\pff3a\pff$4055         pff
C:   00001932  A$pff\Debug\pff3a\pff$4056         pff
C:   00001933  A$pff\Debug\pff3a\pff$4057         pff
C:   00001934  A$pff\Debug\pff3a\pff$4058         pff
C:   00001936  A$pff\Debug\pff3a\pff$4059         pff
C:   00001937  A$pff\Debug\pff3a\pff$4060         pff
C:   00001938  A$pff\Debug\pff3a\pff$4061         pff
C:   0000193A  A$pff\Debug\pff3a\pff$4062         pff
C:   0000193B  A$pff\Debug\pff3a\pff$4063         pff
C:   0000193C  A$pff\Debug\pff3a\pff$4064         pff
C:   0000193E  A$pff\Debug\pff3a\pff$4065         pff
C:   0000193F  A$pff\Debug\pff3a\pff$4066         pff
C:   00001940  A$pff\Debug\pff3a\pff$4067         pff
C:   00001942  A$pff\Debug\pff3a\pff$4068         pff
ASxxxx Linker V03.00 + NoICE + sdld,  page 101.
Hexadecimal  [32-Bits]

Area                                    Addr        Size        Decimal Bytes (Attributes)
--------------------------------        ----        ----        ------- ----- ------------
CSEG                                00000062    00003CB7 =       15543. bytes (REL,CON,CODE)

      Value  Global                              Global Defined In Module
      -----  --------------------------------   ------------------------
C:   00001944  A$pff\Debug\pff3a\pff$4069         pff
C:   00001946  A$pff\Debug\pff3a\pff$4070         pff
C:   00001948  A$pff\Debug\pff3a\pff$4071         pff
C:   0000194B  A$pff\Debug\pff3a\pff$4072         pff
C:   0000194D  A$pff\Debug\pff3a\pff$4073         pff
C:   0000194F  A$pff\Debug\pff3a\pff$4074         pff
C:   00001951  A$pff\Debug\pff3a\pff$4075         pff
C:   00001953  A$pff\Debug\pff3a\pff$4076         pff
C:   00001955  A$pff\Debug\pff3a\pff$4084         pff
C:   00001955  C$pff.c$849$1_0$62                 pff
C:   00001955  C$pff.c$853$1_0$62                 pff
C:   00001958  A$pff\Debug\pff3a\pff$4087         pff
C:   00001958  C$pff.c$855$2_0$68                 pff
C:   0000195B  A$pff\Debug\pff3a\pff$4088         pff
C:   0000195E  A$pff\Debug\pff3a\pff$4092         pff
C:   0000195E  C$pff.c$857$1_0$62                 pff
C:   0000195F  A$pff\Debug\pff3a\pff$4093         pff
C:   00001961  A$pff\Debug\pff3a\pff$4096         pff
C:   00001961  C$pff.c$859$2_0$69                 pff
C:   00001964  A$pff\Debug\pff3a\pff$4097         pff
C:   00001967  A$pff\Debug\pff3a\pff$4101         pff
C:   00001967  C$pff.c$863$1_0$62                 pff
C:   00001969  A$pff\Debug\pff3a\pff$4102         pff
C:   0000196B  A$pff\Debug\pff3a\pff$4103         pff
C:   0000196D  A$pff\Debug\pff3a\pff$4104         pff
C:   0000196F  A$pff\Debug\pff3a\pff$4105         pff
C:   00001971  A$pff\Debug\pff3a\pff$4106         pff
C:   00001973  A$pff\Debug\pff3a\pff$4107         pff
C:   00001974  A$pff\Debug\pff3a\pff$4108         pff
C:   00001976  A$pff\Debug\pff3a\pff$4109         pff
C:   00001978  A$pff\Debug\pff3a\pff$4110         pff
C:   0000197A  A$pff\Debug\pff3a\pff$4111         pff
C:   0000197B  A$pff\Debug\pff3a\pff$4112         pff
C:   0000197D  A$pff\Debug\pff3a\pff$4113         pff
C:   0000197F  A$pff\Debug\pff3a\pff$4114         pff
C:   00001981  A$pff\Debug\pff3a\pff$4115         pff
C:   00001982  A$pff\Debug\pff3a\pff$4116         pff
C:   00001983  A$pff\Debug\pff3a\pff$4117         pff
C:   00001985  A$pff\Debug\pff3a\pff$4118         pff
C:   00001986  A$pff\Debug\pff3a\pff$4119         pff
C:   00001987  A$pff\Debug\pff3a\pff$4120         pff
C:   00001989  A$pff\Debug\pff3a\pff$4121         pff
C:   0000198A  A$pff\Debug\pff3a\pff$4122         pff
C:   0000198B  A$pff\Debug\pff3a\pff$4123         pff
C:   0000198D  A$pff\Debug\pff3a\pff$4124         pff
C:   0000198E  A$pff\Debug\pff3a\pff$4125         pff
C:   0000198F  A$pff\Debug\pff3a\pff$4126         pff
C:   00001991  A$pff\Debug\pff3a\pff$4127         pff
C:   00001993  A$pff\Debug\pff3a\pff$4128         pff
C:   00001995  A$pff\Debug\pff3a\pff$4129         pff
C:   00001997  A$pff\Debug\pff3a\pff$4130         pff
ASxxxx Linker V03.00 + NoICE + sdld,  page 102.
Hexadecimal  [32-Bits]

Area                                    Addr        Size        Decimal Bytes (Attributes)
--------------------------------        ----        ----        ------- ----- ------------
CSEG                                00000062    00003CB7 =       15543. bytes (REL,CON,CODE)

      Value  Global                              Global Defined In Module
      -----  --------------------------------   ------------------------
C:   0000199A  A$pff\Debug\pff3a\pff$4131         pff
C:   0000199C  A$pff\Debug\pff3a\pff$4132         pff
C:   0000199E  A$pff\Debug\pff3a\pff$4133         pff
C:   000019A0  A$pff\Debug\pff3a\pff$4134         pff
C:   000019A2  A$pff\Debug\pff3a\pff$4135         pff
C:   000019A4  A$pff\Debug\pff3a\pff$4136         pff
C:   000019A5  A$pff\Debug\pff3a\pff$4137         pff
C:   000019A7  A$pff\Debug\pff3a\pff$4140         pff
C:   000019A7  C$pff.c$865$2_0$70                 pff
C:   000019AA  A$pff\Debug\pff3a\pff$4141         pff
C:   000019AD  A$pff\Debug\pff3a\pff$4145         pff
C:   000019AD  C$pff.c$868$1_0$62                 pff
C:   000019AF  A$pff\Debug\pff3a\pff$4146         pff
C:   000019B0  A$pff\Debug\pff3a\pff$4147         pff
C:   000019B1  A$pff\Debug\pff3a\pff$4148         pff
C:   000019B3  A$pff\Debug\pff3a\pff$4149         pff
C:   000019B5  A$pff\Debug\pff3a\pff$4150         pff
C:   000019B7  A$pff\Debug\pff3a\pff$4151         pff
C:   000019B9  A$pff\Debug\pff3a\pff$4152         pff
C:   000019BB  A$pff\Debug\pff3a\pff$4153         pff
C:   000019BD  A$pff\Debug\pff3a\pff$4154         pff
C:   000019C0  A$pff\Debug\pff3a\pff$4155         pff
C:   000019C2  A$pff\Debug\pff3a\pff$4156         pff
C:   000019C4  A$pff\Debug\pff3a\pff$4157         pff
C:   000019C6  A$pff\Debug\pff3a\pff$4158         pff
C:   000019C8  A$pff\Debug\pff3a\pff$4159         pff
C:   000019CA  A$pff\Debug\pff3a\pff$4160         pff
C:   000019CB  A$pff\Debug\pff3a\pff$4161         pff
C:   000019CD  A$pff\Debug\pff3a\pff$4162         pff
C:   000019CE  A$pff\Debug\pff3a\pff$4163         pff
C:   000019D0  A$pff\Debug\pff3a\pff$4164         pff
C:   000019D1  A$pff\Debug\pff3a\pff$4165         pff
C:   000019D3  A$pff\Debug\pff3a\pff$4166         pff
C:   000019D4  A$pff\Debug\pff3a\pff$4167         pff
C:   000019D6  A$pff\Debug\pff3a\pff$4170         pff
C:   000019D6  C$pff.c$869$1_0$62                 pff
C:   000019D8  A$pff\Debug\pff3a\pff$4171         pff
C:   000019DA  A$pff\Debug\pff3a\pff$4172         pff
C:   000019DB  A$pff\Debug\pff3a\pff$4173         pff
C:   000019DC  A$pff\Debug\pff3a\pff$4174         pff
C:   000019DD  A$pff\Debug\pff3a\pff$4175         pff
C:   000019DE  A$pff\Debug\pff3a\pff$4176         pff
C:   000019DF  A$pff\Debug\pff3a\pff$4177         pff
C:   000019E0  A$pff\Debug\pff3a\pff$4178         pff
C:   000019E1  A$pff\Debug\pff3a\pff$4179         pff
C:   000019E2  A$pff\Debug\pff3a\pff$4180         pff
C:   000019E4  A$pff\Debug\pff3a\pff$4183         pff
C:   000019E4  C$pff.c$871$2_0$71                 pff
C:   000019E6  A$pff\Debug\pff3a\pff$4184         pff
C:   000019E7  A$pff\Debug\pff3a\pff$4185         pff
C:   000019E8  A$pff\Debug\pff3a\pff$4186         pff
ASxxxx Linker V03.00 + NoICE + sdld,  page 103.
Hexadecimal  [32-Bits]

Area                                    Addr        Size        Decimal Bytes (Attributes)
--------------------------------        ----        ----        ------- ----- ------------
CSEG                                00000062    00003CB7 =       15543. bytes (REL,CON,CODE)

      Value  Global                              Global Defined In Module
      -----  --------------------------------   ------------------------
C:   000019EA  A$pff\Debug\pff3a\pff$4187         pff
C:   000019EC  A$pff\Debug\pff3a\pff$4188         pff
C:   000019EE  A$pff\Debug\pff3a\pff$4189         pff
C:   000019F0  A$pff\Debug\pff3a\pff$4190         pff
C:   000019F2  A$pff\Debug\pff3a\pff$4191         pff
C:   000019F4  A$pff\Debug\pff3a\pff$4192         pff
C:   000019F7  A$pff\Debug\pff3a\pff$4193         pff
C:   000019F8  A$pff\Debug\pff3a\pff$4194         pff
C:   000019FA  A$pff\Debug\pff3a\pff$4195         pff
C:   000019FC  A$pff\Debug\pff3a\pff$4196         pff
C:   000019FD  A$pff\Debug\pff3a\pff$4197         pff
C:   000019FF  A$pff\Debug\pff3a\pff$4198         pff
C:   00001A00  A$pff\Debug\pff3a\pff$4199         pff
C:   00001A02  A$pff\Debug\pff3a\pff$4200         pff
C:   00001A03  A$pff\Debug\pff3a\pff$4201         pff
C:   00001A05  A$pff\Debug\pff3a\pff$4202         pff
C:   00001A06  A$pff\Debug\pff3a\pff$4203         pff
C:   00001A07  A$pff\Debug\pff3a\pff$4204         pff
C:   00001A09  A$pff\Debug\pff3a\pff$4208         pff
C:   00001A09  C$pff.c$874$1_0$62                 pff
C:   00001A0B  A$pff\Debug\pff3a\pff$4209         pff
C:   00001A0C  A$pff\Debug\pff3a\pff$4210         pff
C:   00001A0D  A$pff\Debug\pff3a\pff$4211         pff
C:   00001A0F  A$pff\Debug\pff3a\pff$4212         pff
C:   00001A11  A$pff\Debug\pff3a\pff$4213         pff
C:   00001A13  A$pff\Debug\pff3a\pff$4214         pff
C:   00001A15  A$pff\Debug\pff3a\pff$4215         pff
C:   00001A17  A$pff\Debug\pff3a\pff$4216         pff
C:   00001A19  A$pff\Debug\pff3a\pff$4217         pff
C:   00001A1B  A$pff\Debug\pff3a\pff$4218         pff
C:   00001A1D  A$pff\Debug\pff3a\pff$4219         pff
C:   00001A1F  A$pff\Debug\pff3a\pff$4220         pff
C:   00001A21  A$pff\Debug\pff3a\pff$4221         pff
C:   00001A23  A$pff\Debug\pff3a\pff$4222         pff
C:   00001A25  A$pff\Debug\pff3a\pff$4223         pff
C:   00001A26  A$pff\Debug\pff3a\pff$4224         pff
C:   00001A28  A$pff\Debug\pff3a\pff$4225         pff
C:   00001A29  A$pff\Debug\pff3a\pff$4226         pff
C:   00001A2B  A$pff\Debug\pff3a\pff$4227         pff
C:   00001A2C  A$pff\Debug\pff3a\pff$4228         pff
C:   00001A2E  A$pff\Debug\pff3a\pff$4229         pff
C:   00001A2F  A$pff\Debug\pff3a\pff$4230         pff
C:   00001A30  A$pff\Debug\pff3a\pff$4231         pff
C:   00001A33  A$pff\Debug\pff3a\pff$4232         pff
C:   00001A35  A$pff\Debug\pff3a\pff$4233         pff
C:   00001A37  A$pff\Debug\pff3a\pff$4234         pff
C:   00001A39  A$pff\Debug\pff3a\pff$4235         pff
C:   00001A3A  A$pff\Debug\pff3a\pff$4236         pff
C:   00001A3C  A$pff\Debug\pff3a\pff$4237         pff
C:   00001A3E  A$pff\Debug\pff3a\pff$4238         pff
C:   00001A40  A$pff\Debug\pff3a\pff$4239         pff
ASxxxx Linker V03.00 + NoICE + sdld,  page 104.
Hexadecimal  [32-Bits]

Area                                    Addr        Size        Decimal Bytes (Attributes)
--------------------------------        ----        ----        ------- ----- ------------
CSEG                                00000062    00003CB7 =       15543. bytes (REL,CON,CODE)

      Value  Global                              Global Defined In Module
      -----  --------------------------------   ------------------------
C:   00001A42  A$pff\Debug\pff3a\pff$4240         pff
C:   00001A44  A$pff\Debug\pff3a\pff$4241         pff
C:   00001A45  A$pff\Debug\pff3a\pff$4242         pff
C:   00001A47  A$pff\Debug\pff3a\pff$4243         pff
C:   00001A48  A$pff\Debug\pff3a\pff$4244         pff
C:   00001A4A  A$pff\Debug\pff3a\pff$4245         pff
C:   00001A4B  A$pff\Debug\pff3a\pff$4246         pff
C:   00001A4D  A$pff\Debug\pff3a\pff$4247         pff
C:   00001A4E  A$pff\Debug\pff3a\pff$4248         pff
C:   00001A50  A$pff\Debug\pff3a\pff$4251         pff
C:   00001A50  C$pff.c$875$1_0$62                 pff
C:   00001A52  A$pff\Debug\pff3a\pff$4252         pff
C:   00001A53  A$pff\Debug\pff3a\pff$4253         pff
C:   00001A55  A$pff\Debug\pff3a\pff$4254         pff
C:   00001A57  A$pff\Debug\pff3a\pff$4255         pff
C:   00001A58  A$pff\Debug\pff3a\pff$4256         pff
C:   00001A5A  A$pff\Debug\pff3a\pff$4257         pff
C:   00001A5B  A$pff\Debug\pff3a\pff$4258         pff
C:   00001A5C  A$pff\Debug\pff3a\pff$4259         pff
C:   00001A5D  A$pff\Debug\pff3a\pff$4260         pff
C:   00001A5E  A$pff\Debug\pff3a\pff$4261         pff
C:   00001A5F  A$pff\Debug\pff3a\pff$4262         pff
C:   00001A60  A$pff\Debug\pff3a\pff$4263         pff
C:   00001A61  A$pff\Debug\pff3a\pff$4264         pff
C:   00001A62  A$pff\Debug\pff3a\pff$4265         pff
C:   00001A63  A$pff\Debug\pff3a\pff$4266         pff
C:   00001A64  A$pff\Debug\pff3a\pff$4267         pff
C:   00001A65  A$pff\Debug\pff3a\pff$4268         pff
C:   00001A67  A$pff\Debug\pff3a\pff$4269         pff
C:   00001A69  A$pff\Debug\pff3a\pff$4270         pff
C:   00001A6B  A$pff\Debug\pff3a\pff$4271         pff
C:   00001A6C  A$pff\Debug\pff3a\pff$4272         pff
C:   00001A6D  A$pff\Debug\pff3a\pff$4273         pff
C:   00001A6E  A$pff\Debug\pff3a\pff$4274         pff
C:   00001A6F  A$pff\Debug\pff3a\pff$4275         pff
C:   00001A71  A$pff\Debug\pff3a\pff$4276         pff
C:   00001A73  A$pff\Debug\pff3a\pff$4277         pff
C:   00001A74  A$pff\Debug\pff3a\pff$4278         pff
C:   00001A76  A$pff\Debug\pff3a\pff$4279         pff
C:   00001A78  A$pff\Debug\pff3a\pff$4280         pff
C:   00001A7A  A$pff\Debug\pff3a\pff$4281         pff
C:   00001A7C  A$pff\Debug\pff3a\pff$4282         pff
C:   00001A7E  A$pff\Debug\pff3a\pff$4283         pff
C:   00001A80  A$pff\Debug\pff3a\pff$4284         pff
C:   00001A82  A$pff\Debug\pff3a\pff$4285         pff
C:   00001A85  A$pff\Debug\pff3a\pff$4286         pff
C:   00001A87  A$pff\Debug\pff3a\pff$4287         pff
C:   00001A89  A$pff\Debug\pff3a\pff$4288         pff
C:   00001A8A  A$pff\Debug\pff3a\pff$4289         pff
C:   00001A8B  A$pff\Debug\pff3a\pff$4290         pff
C:   00001A8C  A$pff\Debug\pff3a\pff$4291         pff
ASxxxx Linker V03.00 + NoICE + sdld,  page 105.
Hexadecimal  [32-Bits]

Area                                    Addr        Size        Decimal Bytes (Attributes)
--------------------------------        ----        ----        ------- ----- ------------
CSEG                                00000062    00003CB7 =       15543. bytes (REL,CON,CODE)

      Value  Global                              Global Defined In Module
      -----  --------------------------------   ------------------------
C:   00001A8E  A$pff\Debug\pff3a\pff$4292         pff
C:   00001A90  A$pff\Debug\pff3a\pff$4293         pff
C:   00001A91  A$pff\Debug\pff3a\pff$4294         pff
C:   00001A92  A$pff\Debug\pff3a\pff$4295         pff
C:   00001A93  A$pff\Debug\pff3a\pff$4296         pff
C:   00001A94  A$pff\Debug\pff3a\pff$4297         pff
C:   00001A95  A$pff\Debug\pff3a\pff$4298         pff
C:   00001A96  A$pff\Debug\pff3a\pff$4299         pff
C:   00001A97  A$pff\Debug\pff3a\pff$4300         pff
C:   00001A98  A$pff\Debug\pff3a\pff$4301         pff
C:   00001A99  A$pff\Debug\pff3a\pff$4302         pff
C:   00001A9A  A$pff\Debug\pff3a\pff$4303         pff
C:   00001A9B  A$pff\Debug\pff3a\pff$4304         pff
C:   00001A9C  A$pff\Debug\pff3a\pff$4305         pff
C:   00001A9D  A$pff\Debug\pff3a\pff$4306         pff
C:   00001A9E  A$pff\Debug\pff3a\pff$4307         pff
C:   00001A9F  A$pff\Debug\pff3a\pff$4308         pff
C:   00001AA0  A$pff\Debug\pff3a\pff$4309         pff
C:   00001AA2  A$pff\Debug\pff3a\pff$4310         pff
C:   00001AA4  A$pff\Debug\pff3a\pff$4311         pff
C:   00001AA5  A$pff\Debug\pff3a\pff$4312         pff
C:   00001AA7  A$pff\Debug\pff3a\pff$4313         pff
C:   00001AA8  A$pff\Debug\pff3a\pff$4314         pff
C:   00001AAA  A$pff\Debug\pff3a\pff$4315         pff
C:   00001AAB  A$pff\Debug\pff3a\pff$4316         pff
C:   00001AAD  A$pff\Debug\pff3a\pff$4317         pff
C:   00001AAE  A$pff\Debug\pff3a\pff$4318         pff
C:   00001AB1  A$pff\Debug\pff3a\pff$4319         pff
C:   00001AB2  A$pff\Debug\pff3a\pff$4320         pff
C:   00001AB3  A$pff\Debug\pff3a\pff$4321         pff
C:   00001AB6  A$pff\Debug\pff3a\pff$4322         pff
C:   00001AB7  A$pff\Debug\pff3a\pff$4323         pff
C:   00001AB8  A$pff\Debug\pff3a\pff$4324         pff
C:   00001ABB  A$pff\Debug\pff3a\pff$4325         pff
C:   00001ABC  A$pff\Debug\pff3a\pff$4326         pff
C:   00001ABD  A$pff\Debug\pff3a\pff$4327         pff
C:   00001AC0  A$pff\Debug\pff3a\pff$4330         pff
C:   00001AC0  C$pff.c$876$1_0$62                 pff
C:   00001AC2  A$pff\Debug\pff3a\pff$4331         pff
C:   00001AC3  A$pff\Debug\pff3a\pff$4332         pff
C:   00001AC5  A$pff\Debug\pff3a\pff$4333         pff
C:   00001AC7  A$pff\Debug\pff3a\pff$4334         pff
C:   00001AC8  A$pff\Debug\pff3a\pff$4335         pff
C:   00001ACA  A$pff\Debug\pff3a\pff$4336         pff
C:   00001ACB  A$pff\Debug\pff3a\pff$4337         pff
C:   00001ACC  A$pff\Debug\pff3a\pff$4338         pff
C:   00001ACD  A$pff\Debug\pff3a\pff$4339         pff
C:   00001ACE  A$pff\Debug\pff3a\pff$4340         pff
C:   00001ACF  A$pff\Debug\pff3a\pff$4341         pff
C:   00001AD0  A$pff\Debug\pff3a\pff$4342         pff
C:   00001AD1  A$pff\Debug\pff3a\pff$4343         pff
ASxxxx Linker V03.00 + NoICE + sdld,  page 106.
Hexadecimal  [32-Bits]

Area                                    Addr        Size        Decimal Bytes (Attributes)
--------------------------------        ----        ----        ------- ----- ------------
CSEG                                00000062    00003CB7 =       15543. bytes (REL,CON,CODE)

      Value  Global                              Global Defined In Module
      -----  --------------------------------   ------------------------
C:   00001AD2  A$pff\Debug\pff3a\pff$4344         pff
C:   00001AD3  A$pff\Debug\pff3a\pff$4345         pff
C:   00001AD4  A$pff\Debug\pff3a\pff$4346         pff
C:   00001AD5  A$pff\Debug\pff3a\pff$4347         pff
C:   00001AD7  A$pff\Debug\pff3a\pff$4348         pff
C:   00001AD9  A$pff\Debug\pff3a\pff$4349         pff
C:   00001ADB  A$pff\Debug\pff3a\pff$4350         pff
C:   00001ADD  A$pff\Debug\pff3a\pff$4351         pff
C:   00001ADE  A$pff\Debug\pff3a\pff$4352         pff
C:   00001AE0  A$pff\Debug\pff3a\pff$4353         pff
C:   00001AE1  A$pff\Debug\pff3a\pff$4354         pff
C:   00001AE3  A$pff\Debug\pff3a\pff$4355         pff
C:   00001AE4  A$pff\Debug\pff3a\pff$4356         pff
C:   00001AE6  A$pff\Debug\pff3a\pff$4357         pff
C:   00001AE7  A$pff\Debug\pff3a\pff$4358         pff
C:   00001AEA  A$pff\Debug\pff3a\pff$4361         pff
C:   00001AEA  C$pff.c$877$1_0$62                 pff
C:   00001AEC  A$pff\Debug\pff3a\pff$4362         pff
C:   00001AED  A$pff\Debug\pff3a\pff$4363         pff
C:   00001AEF  A$pff\Debug\pff3a\pff$4364         pff
C:   00001AF1  A$pff\Debug\pff3a\pff$4365         pff
C:   00001AF3  A$pff\Debug\pff3a\pff$4366         pff
C:   00001AF4  A$pff\Debug\pff3a\pff$4367         pff
C:   00001AF6  A$pff\Debug\pff3a\pff$4368         pff
C:   00001AF7  A$pff\Debug\pff3a\pff$4369         pff
C:   00001AF8  A$pff\Debug\pff3a\pff$4370         pff
C:   00001AF9  A$pff\Debug\pff3a\pff$4371         pff
C:   00001AFA  A$pff\Debug\pff3a\pff$4372         pff
C:   00001AFB  A$pff\Debug\pff3a\pff$4373         pff
C:   00001AFC  A$pff\Debug\pff3a\pff$4374         pff
C:   00001AFD  A$pff\Debug\pff3a\pff$4375         pff
C:   00001AFE  A$pff\Debug\pff3a\pff$4376         pff
C:   00001AFF  A$pff\Debug\pff3a\pff$4377         pff
C:   00001B00  A$pff\Debug\pff3a\pff$4378         pff
C:   00001B01  A$pff\Debug\pff3a\pff$4379         pff
C:   00001B03  A$pff\Debug\pff3a\pff$4380         pff
C:   00001B05  A$pff\Debug\pff3a\pff$4381         pff
C:   00001B06  A$pff\Debug\pff3a\pff$4382         pff
C:   00001B07  A$pff\Debug\pff3a\pff$4383         pff
C:   00001B09  A$pff\Debug\pff3a\pff$4384         pff
C:   00001B0B  A$pff\Debug\pff3a\pff$4385         pff
C:   00001B0D  A$pff\Debug\pff3a\pff$4386         pff
C:   00001B0F  A$pff\Debug\pff3a\pff$4387         pff
C:   00001B11  A$pff\Debug\pff3a\pff$4388         pff
C:   00001B13  A$pff\Debug\pff3a\pff$4389         pff
C:   00001B16  A$pff\Debug\pff3a\pff$4390         pff
C:   00001B18  A$pff\Debug\pff3a\pff$4391         pff
C:   00001B1A  A$pff\Debug\pff3a\pff$4392         pff
C:   00001B1C  A$pff\Debug\pff3a\pff$4393         pff
C:   00001B1E  A$pff\Debug\pff3a\pff$4394         pff
C:   00001B20  A$pff\Debug\pff3a\pff$4395         pff
ASxxxx Linker V03.00 + NoICE + sdld,  page 107.
Hexadecimal  [32-Bits]

Area                                    Addr        Size        Decimal Bytes (Attributes)
--------------------------------        ----        ----        ------- ----- ------------
CSEG                                00000062    00003CB7 =       15543. bytes (REL,CON,CODE)

      Value  Global                              Global Defined In Module
      -----  --------------------------------   ------------------------
C:   00001B21  A$pff\Debug\pff3a\pff$4396         pff
C:   00001B23  A$pff\Debug\pff3a\pff$4397         pff
C:   00001B24  A$pff\Debug\pff3a\pff$4398         pff
C:   00001B26  A$pff\Debug\pff3a\pff$4399         pff
C:   00001B27  A$pff\Debug\pff3a\pff$4400         pff
C:   00001B29  A$pff\Debug\pff3a\pff$4401         pff
C:   00001B2A  A$pff\Debug\pff3a\pff$4402         pff
C:   00001B2D  A$pff\Debug\pff3a\pff$4403         pff
C:   00001B2E  A$pff\Debug\pff3a\pff$4404         pff
C:   00001B2F  A$pff\Debug\pff3a\pff$4405         pff
C:   00001B32  A$pff\Debug\pff3a\pff$4408         pff
C:   00001B32  C$pff.c$878$1_0$62                 pff
C:   00001B34  A$pff\Debug\pff3a\pff$4409         pff
C:   00001B35  A$pff\Debug\pff3a\pff$4410         pff
C:   00001B36  A$pff\Debug\pff3a\pff$4411         pff
C:   00001B38  A$pff\Debug\pff3a\pff$4412         pff
C:   00001B3A  A$pff\Debug\pff3a\pff$4413         pff
C:   00001B3C  A$pff\Debug\pff3a\pff$4414         pff
C:   00001B3E  A$pff\Debug\pff3a\pff$4415         pff
C:   00001B40  A$pff\Debug\pff3a\pff$4416         pff
C:   00001B42  A$pff\Debug\pff3a\pff$4417         pff
C:   00001B45  A$pff\Debug\pff3a\pff$4418         pff
C:   00001B47  A$pff\Debug\pff3a\pff$4419         pff
C:   00001B49  A$pff\Debug\pff3a\pff$4420         pff
C:   00001B4B  A$pff\Debug\pff3a\pff$4421         pff
C:   00001B4D  A$pff\Debug\pff3a\pff$4422         pff
C:   00001B4E  A$pff\Debug\pff3a\pff$4423         pff
C:   00001B4F  A$pff\Debug\pff3a\pff$4424         pff
C:   00001B50  A$pff\Debug\pff3a\pff$4425         pff
C:   00001B52  A$pff\Debug\pff3a\pff$4426         pff
C:   00001B54  A$pff\Debug\pff3a\pff$4427         pff
C:   00001B55  A$pff\Debug\pff3a\pff$4428         pff
C:   00001B57  A$pff\Debug\pff3a\pff$4429         pff
C:   00001B58  A$pff\Debug\pff3a\pff$4430         pff
C:   00001B5A  A$pff\Debug\pff3a\pff$4431         pff
C:   00001B5B  A$pff\Debug\pff3a\pff$4432         pff
C:   00001B5D  A$pff\Debug\pff3a\pff$4433         pff
C:   00001B5E  A$pff\Debug\pff3a\pff$4434         pff
C:   00001B60  A$pff\Debug\pff3a\pff$4437         pff
C:   00001B60  C$pff.c$879$1_0$62                 pff
C:   00001B61  A$pff\Debug\pff3a\pff$4438         pff
C:   00001B62  A$pff\Debug\pff3a\pff$4439         pff
C:   00001B63  A$pff\Debug\pff3a\pff$4440         pff
C:   00001B64  A$pff\Debug\pff3a\pff$4441         pff
C:   00001B66  A$pff\Debug\pff3a\pff$4444         pff
C:   00001B66  C$pff.c$881$2_0$72                 pff
C:   00001B68  A$pff\Debug\pff3a\pff$4445         pff
C:   00001B69  A$pff\Debug\pff3a\pff$4446         pff
C:   00001B6A  A$pff\Debug\pff3a\pff$4447         pff
C:   00001B6C  A$pff\Debug\pff3a\pff$4448         pff
C:   00001B6E  A$pff\Debug\pff3a\pff$4449         pff
ASxxxx Linker V03.00 + NoICE + sdld,  page 108.
Hexadecimal  [32-Bits]

Area                                    Addr        Size        Decimal Bytes (Attributes)
--------------------------------        ----        ----        ------- ----- ------------
CSEG                                00000062    00003CB7 =       15543. bytes (REL,CON,CODE)

      Value  Global                              Global Defined In Module
      -----  --------------------------------   ------------------------
C:   00001B70  A$pff\Debug\pff3a\pff$4450         pff
C:   00001B72  A$pff\Debug\pff3a\pff$4451         pff
C:   00001B74  A$pff\Debug\pff3a\pff$4452         pff
C:   00001B76  A$pff\Debug\pff3a\pff$4453         pff
C:   00001B79  A$pff\Debug\pff3a\pff$4454         pff
C:   00001B7B  A$pff\Debug\pff3a\pff$4455         pff
C:   00001B7D  A$pff\Debug\pff3a\pff$4456         pff
C:   00001B7F  A$pff\Debug\pff3a\pff$4457         pff
C:   00001B80  A$pff\Debug\pff3a\pff$4458         pff
C:   00001B82  A$pff\Debug\pff3a\pff$4459         pff
C:   00001B84  A$pff\Debug\pff3a\pff$4460         pff
C:   00001B86  A$pff\Debug\pff3a\pff$4461         pff
C:   00001B87  A$pff\Debug\pff3a\pff$4462         pff
C:   00001B89  A$pff\Debug\pff3a\pff$4463         pff
C:   00001B8A  A$pff\Debug\pff3a\pff$4464         pff
C:   00001B8C  A$pff\Debug\pff3a\pff$4465         pff
C:   00001B8D  A$pff\Debug\pff3a\pff$4466         pff
C:   00001B8F  A$pff\Debug\pff3a\pff$4467         pff
C:   00001B90  A$pff\Debug\pff3a\pff$4468         pff
C:   00001B92  A$pff\Debug\pff3a\pff$4472         pff
C:   00001B92  C$pff.c$884$1_0$62                 pff
C:   00001B94  A$pff\Debug\pff3a\pff$4473         pff
C:   00001B96  A$pff\Debug\pff3a\pff$4474         pff
C:   00001B98  A$pff\Debug\pff3a\pff$4475         pff
C:   00001B99  A$pff\Debug\pff3a\pff$4476         pff
C:   00001B9B  A$pff\Debug\pff3a\pff$4477         pff
C:   00001B9D  A$pff\Debug\pff3a\pff$4478         pff
C:   00001B9F  A$pff\Debug\pff3a\pff$4479         pff
C:   00001BA1  A$pff\Debug\pff3a\pff$4480         pff
C:   00001BA3  A$pff\Debug\pff3a\pff$4481         pff
C:   00001BA5  A$pff\Debug\pff3a\pff$4482         pff
C:   00001BA7  A$pff\Debug\pff3a\pff$4483         pff
C:   00001BAA  A$pff\Debug\pff3a\pff$4484         pff
C:   00001BAC  A$pff\Debug\pff3a\pff$4485         pff
C:   00001BAE  A$pff\Debug\pff3a\pff$4486         pff
C:   00001BAF  A$pff\Debug\pff3a\pff$4487         pff
C:   00001BB0  A$pff\Debug\pff3a\pff$4488         pff
C:   00001BB1  A$pff\Debug\pff3a\pff$4489         pff
C:   00001BB3  A$pff\Debug\pff3a\pff$4490         pff
C:   00001BB5  A$pff\Debug\pff3a\pff$4491         pff
C:   00001BB6  A$pff\Debug\pff3a\pff$4492         pff
C:   00001BB7  A$pff\Debug\pff3a\pff$4493         pff
C:   00001BB8  A$pff\Debug\pff3a\pff$4494         pff
C:   00001BB9  A$pff\Debug\pff3a\pff$4495         pff
C:   00001BBA  A$pff\Debug\pff3a\pff$4496         pff
C:   00001BBB  A$pff\Debug\pff3a\pff$4497         pff
C:   00001BBC  A$pff\Debug\pff3a\pff$4498         pff
C:   00001BBD  A$pff\Debug\pff3a\pff$4499         pff
C:   00001BBE  A$pff\Debug\pff3a\pff$4500         pff
C:   00001BBF  A$pff\Debug\pff3a\pff$4501         pff
C:   00001BC0  A$pff\Debug\pff3a\pff$4502         pff
ASxxxx Linker V03.00 + NoICE + sdld,  page 109.
Hexadecimal  [32-Bits]

Area                                    Addr        Size        Decimal Bytes (Attributes)
--------------------------------        ----        ----        ------- ----- ------------
CSEG                                00000062    00003CB7 =       15543. bytes (REL,CON,CODE)

      Value  Global                              Global Defined In Module
      -----  --------------------------------   ------------------------
C:   00001BC1  A$pff\Debug\pff3a\pff$4503         pff
C:   00001BC2  A$pff\Debug\pff3a\pff$4504         pff
C:   00001BC3  A$pff\Debug\pff3a\pff$4505         pff
C:   00001BC4  A$pff\Debug\pff3a\pff$4506         pff
C:   00001BC5  A$pff\Debug\pff3a\pff$4507         pff
C:   00001BC6  A$pff\Debug\pff3a\pff$4508         pff
C:   00001BC8  A$pff\Debug\pff3a\pff$4509         pff
C:   00001BCA  A$pff\Debug\pff3a\pff$4510         pff
C:   00001BCB  A$pff\Debug\pff3a\pff$4511         pff
C:   00001BCD  A$pff\Debug\pff3a\pff$4512         pff
C:   00001BCF  A$pff\Debug\pff3a\pff$4513         pff
C:   00001BD0  A$pff\Debug\pff3a\pff$4514         pff
C:   00001BD1  A$pff\Debug\pff3a\pff$4515         pff
C:   00001BD2  A$pff\Debug\pff3a\pff$4516         pff
C:   00001BD3  A$pff\Debug\pff3a\pff$4517         pff
C:   00001BD4  A$pff\Debug\pff3a\pff$4518         pff
C:   00001BD5  A$pff\Debug\pff3a\pff$4519         pff
C:   00001BD6  A$pff\Debug\pff3a\pff$4520         pff
C:   00001BD7  A$pff\Debug\pff3a\pff$4521         pff
C:   00001BD8  A$pff\Debug\pff3a\pff$4522         pff
C:   00001BD9  A$pff\Debug\pff3a\pff$4523         pff
C:   00001BDA  A$pff\Debug\pff3a\pff$4524         pff
C:   00001BDB  A$pff\Debug\pff3a\pff$4525         pff
C:   00001BDC  A$pff\Debug\pff3a\pff$4526         pff
C:   00001BDD  A$pff\Debug\pff3a\pff$4527         pff
C:   00001BDE  A$pff\Debug\pff3a\pff$4528         pff
C:   00001BDF  A$pff\Debug\pff3a\pff$4529         pff
C:   00001BE0  A$pff\Debug\pff3a\pff$4530         pff
C:   00001BE1  A$pff\Debug\pff3a\pff$4531         pff
C:   00001BE2  A$pff\Debug\pff3a\pff$4532         pff
C:   00001BE3  A$pff\Debug\pff3a\pff$4533         pff
C:   00001BE5  A$pff\Debug\pff3a\pff$4534         pff
C:   00001BE7  A$pff\Debug\pff3a\pff$4535         pff
C:   00001BE8  A$pff\Debug\pff3a\pff$4536         pff
C:   00001BEA  A$pff\Debug\pff3a\pff$4537         pff
C:   00001BEB  A$pff\Debug\pff3a\pff$4538         pff
C:   00001BED  A$pff\Debug\pff3a\pff$4539         pff
C:   00001BEE  A$pff\Debug\pff3a\pff$4540         pff
C:   00001BF0  A$pff\Debug\pff3a\pff$4541         pff
C:   00001BF3  A$pff\Debug\pff3a\pff$4542         pff
C:   00001BF4  A$pff\Debug\pff3a\pff$4543         pff
C:   00001BF5  A$pff\Debug\pff3a\pff$4544         pff
C:   00001BF8  A$pff\Debug\pff3a\pff$4545         pff
C:   00001BF9  A$pff\Debug\pff3a\pff$4546         pff
C:   00001BFA  A$pff\Debug\pff3a\pff$4547         pff
C:   00001BFB  A$pff\Debug\pff3a\pff$4548         pff
C:   00001BFD  A$pff\Debug\pff3a\pff$4549         pff
C:   00001BFE  A$pff\Debug\pff3a\pff$4550         pff
C:   00001BFF  A$pff\Debug\pff3a\pff$4551         pff
C:   00001C01  A$pff\Debug\pff3a\pff$4552         pff
C:   00001C02  A$pff\Debug\pff3a\pff$4553         pff
ASxxxx Linker V03.00 + NoICE + sdld,  page 110.
Hexadecimal  [32-Bits]

Area                                    Addr        Size        Decimal Bytes (Attributes)
--------------------------------        ----        ----        ------- ----- ------------
CSEG                                00000062    00003CB7 =       15543. bytes (REL,CON,CODE)

      Value  Global                              Global Defined In Module
      -----  --------------------------------   ------------------------
C:   00001C03  A$pff\Debug\pff3a\pff$4554         pff
C:   00001C04  A$pff\Debug\pff3a\pff$4555         pff
C:   00001C05  A$pff\Debug\pff3a\pff$4556         pff
C:   00001C06  A$pff\Debug\pff3a\pff$4557         pff
C:   00001C07  A$pff\Debug\pff3a\pff$4558         pff
C:   00001C08  A$pff\Debug\pff3a\pff$4559         pff
C:   00001C0A  A$pff\Debug\pff3a\pff$4560         pff
C:   00001C0C  A$pff\Debug\pff3a\pff$4561         pff
C:   00001C0D  A$pff\Debug\pff3a\pff$4562         pff
C:   00001C0E  A$pff\Debug\pff3a\pff$4563         pff
C:   00001C0F  A$pff\Debug\pff3a\pff$4564         pff
C:   00001C10  A$pff\Debug\pff3a\pff$4565         pff
C:   00001C11  A$pff\Debug\pff3a\pff$4566         pff
C:   00001C12  A$pff\Debug\pff3a\pff$4567         pff
C:   00001C13  A$pff\Debug\pff3a\pff$4568         pff
C:   00001C14  A$pff\Debug\pff3a\pff$4569         pff
C:   00001C15  A$pff\Debug\pff3a\pff$4570         pff
C:   00001C16  A$pff\Debug\pff3a\pff$4571         pff
C:   00001C17  A$pff\Debug\pff3a\pff$4572         pff
C:   00001C18  A$pff\Debug\pff3a\pff$4573         pff
C:   00001C19  A$pff\Debug\pff3a\pff$4574         pff
C:   00001C1A  A$pff\Debug\pff3a\pff$4575         pff
C:   00001C1B  A$pff\Debug\pff3a\pff$4576         pff
C:   00001C1C  A$pff\Debug\pff3a\pff$4577         pff
C:   00001C1D  A$pff\Debug\pff3a\pff$4580         pff
C:   00001C1D  C$pff.c$885$1_0$62                 pff
C:   00001C1F  A$pff\Debug\pff3a\pff$4581         pff
C:   00001C21  A$pff\Debug\pff3a\pff$4582         pff
C:   00001C22  A$pff\Debug\pff3a\pff$4583         pff
C:   00001C24  A$pff\Debug\pff3a\pff$4584         pff
C:   00001C25  A$pff\Debug\pff3a\pff$4585         pff
C:   00001C27  A$pff\Debug\pff3a\pff$4586         pff
C:   00001C28  A$pff\Debug\pff3a\pff$4587         pff
C:   00001C2A  A$pff\Debug\pff3a\pff$4588         pff
C:   00001C2D  A$pff\Debug\pff3a\pff$4589         pff
C:   00001C2E  A$pff\Debug\pff3a\pff$4590         pff
C:   00001C30  A$pff\Debug\pff3a\pff$4591         pff
C:   00001C32  A$pff\Debug\pff3a\pff$4592         pff
C:   00001C34  A$pff\Debug\pff3a\pff$4593         pff
C:   00001C36  A$pff\Debug\pff3a\pff$4594         pff
C:   00001C38  A$pff\Debug\pff3a\pff$4595         pff
C:   00001C3A  A$pff\Debug\pff3a\pff$4596         pff
C:   00001C3C  A$pff\Debug\pff3a\pff$4597         pff
C:   00001C3E  A$pff\Debug\pff3a\pff$4598         pff
C:   00001C40  A$pff\Debug\pff3a\pff$4599         pff
C:   00001C41  A$pff\Debug\pff3a\pff$4600         pff
C:   00001C43  A$pff\Debug\pff3a\pff$4601         pff
C:   00001C44  A$pff\Debug\pff3a\pff$4602         pff
C:   00001C46  A$pff\Debug\pff3a\pff$4603         pff
C:   00001C47  A$pff\Debug\pff3a\pff$4604         pff
C:   00001C49  A$pff\Debug\pff3a\pff$4605         pff
ASxxxx Linker V03.00 + NoICE + sdld,  page 111.
Hexadecimal  [32-Bits]

Area                                    Addr        Size        Decimal Bytes (Attributes)
--------------------------------        ----        ----        ------- ----- ------------
CSEG                                00000062    00003CB7 =       15543. bytes (REL,CON,CODE)

      Value  Global                              Global Defined In Module
      -----  --------------------------------   ------------------------
C:   00001C4A  A$pff\Debug\pff3a\pff$4606         pff
C:   00001C4B  A$pff\Debug\pff3a\pff$4607         pff
C:   00001C4E  A$pff\Debug\pff3a\pff$4608         pff
C:   00001C50  A$pff\Debug\pff3a\pff$4609         pff
C:   00001C52  A$pff\Debug\pff3a\pff$4610         pff
C:   00001C54  A$pff\Debug\pff3a\pff$4611         pff
C:   00001C55  A$pff\Debug\pff3a\pff$4612         pff
C:   00001C57  A$pff\Debug\pff3a\pff$4613         pff
C:   00001C59  A$pff\Debug\pff3a\pff$4614         pff
C:   00001C5B  A$pff\Debug\pff3a\pff$4615         pff
C:   00001C5D  A$pff\Debug\pff3a\pff$4616         pff
C:   00001C5F  A$pff\Debug\pff3a\pff$4617         pff
C:   00001C61  A$pff\Debug\pff3a\pff$4618         pff
C:   00001C62  A$pff\Debug\pff3a\pff$4619         pff
C:   00001C64  A$pff\Debug\pff3a\pff$4620         pff
C:   00001C65  A$pff\Debug\pff3a\pff$4621         pff
C:   00001C66  A$pff\Debug\pff3a\pff$4622         pff
C:   00001C67  A$pff\Debug\pff3a\pff$4623         pff
C:   00001C68  A$pff\Debug\pff3a\pff$4624         pff
C:   00001C69  A$pff\Debug\pff3a\pff$4625         pff
C:   00001C6A  A$pff\Debug\pff3a\pff$4626         pff
C:   00001C6B  A$pff\Debug\pff3a\pff$4627         pff
C:   00001C6C  A$pff\Debug\pff3a\pff$4628         pff
C:   00001C6D  A$pff\Debug\pff3a\pff$4629         pff
C:   00001C6E  A$pff\Debug\pff3a\pff$4630         pff
C:   00001C6F  A$pff\Debug\pff3a\pff$4631         pff
C:   00001C70  A$pff\Debug\pff3a\pff$4632         pff
C:   00001C71  A$pff\Debug\pff3a\pff$4633         pff
C:   00001C72  A$pff\Debug\pff3a\pff$4636         pff
C:   00001C72  C$pff.c$886$1_0$62                 pff
C:   00001C74  A$pff\Debug\pff3a\pff$4637         pff
C:   00001C75  A$pff\Debug\pff3a\pff$4638         pff
C:   00001C77  A$pff\Debug\pff3a\pff$4639         pff
C:   00001C78  A$pff\Debug\pff3a\pff$4640         pff
C:   00001C79  A$pff\Debug\pff3a\pff$4641         pff
C:   00001C7A  A$pff\Debug\pff3a\pff$4642         pff
C:   00001C7B  A$pff\Debug\pff3a\pff$4643         pff
C:   00001C7C  A$pff\Debug\pff3a\pff$4644         pff
C:   00001C7D  A$pff\Debug\pff3a\pff$4645         pff
C:   00001C7E  A$pff\Debug\pff3a\pff$4646         pff
C:   00001C80  A$pff\Debug\pff3a\pff$4647         pff
C:   00001C82  A$pff\Debug\pff3a\pff$4648         pff
C:   00001C84  A$pff\Debug\pff3a\pff$4649         pff
C:   00001C86  A$pff\Debug\pff3a\pff$4650         pff
C:   00001C88  A$pff\Debug\pff3a\pff$4651         pff
C:   00001C8A  A$pff\Debug\pff3a\pff$4652         pff
C:   00001C8B  A$pff\Debug\pff3a\pff$4653         pff
C:   00001C8C  A$pff\Debug\pff3a\pff$4654         pff
C:   00001C8F  A$pff\Debug\pff3a\pff$4655         pff
C:   00001C90  A$pff\Debug\pff3a\pff$4656         pff
C:   00001C91  A$pff\Debug\pff3a\pff$4657         pff
ASxxxx Linker V03.00 + NoICE + sdld,  page 112.
Hexadecimal  [32-Bits]

Area                                    Addr        Size        Decimal Bytes (Attributes)
--------------------------------        ----        ----        ------- ----- ------------
CSEG                                00000062    00003CB7 =       15543. bytes (REL,CON,CODE)

      Value  Global                              Global Defined In Module
      -----  --------------------------------   ------------------------
C:   00001C92  A$pff\Debug\pff3a\pff$4658         pff
C:   00001C95  A$pff\Debug\pff3a\pff$4659         pff
C:   00001C96  A$pff\Debug\pff3a\pff$4660         pff
C:   00001C97  A$pff\Debug\pff3a\pff$4661         pff
C:   00001C98  A$pff\Debug\pff3a\pff$4662         pff
C:   00001C9B  A$pff\Debug\pff3a\pff$4663         pff
C:   00001C9C  A$pff\Debug\pff3a\pff$4664         pff
C:   00001C9D  A$pff\Debug\pff3a\pff$4665         pff
C:   00001C9E  A$pff\Debug\pff3a\pff$4666         pff
C:   00001CA1  A$pff\Debug\pff3a\pff$4669         pff
C:   00001CA1  C$pff.c$888$1_0$62                 pff
C:   00001CA3  A$pff\Debug\pff3a\pff$4672         pff
C:   00001CA3  C$pff.c$891$1_0$62                 pff
C:   00001CA5  A$pff\Debug\pff3a\pff$4673         pff
C:   00001CA7  A$pff\Debug\pff3a\pff$4674         pff
C:   00001CA8  A$pff\Debug\pff3a\pff$4675         pff
C:   00001CA9  A$pff\Debug\pff3a\pff$4676         pff
C:   00001CAA  A$pff\Debug\pff3a\pff$4677         pff
C:   00001CAC  A$pff\Debug\pff3a\pff$4678         pff
C:   00001CAD  A$pff\Debug\pff3a\pff$4679         pff
C:   00001CAE  A$pff\Debug\pff3a\pff$4680         pff
C:   00001CB0  A$pff\Debug\pff3a\pff$4681         pff
C:   00001CB1  A$pff\Debug\pff3a\pff$4682         pff
C:   00001CB2  A$pff\Debug\pff3a\pff$4683         pff
C:   00001CB4  A$pff\Debug\pff3a\pff$4684         pff
C:   00001CB5  A$pff\Debug\pff3a\pff$4685         pff
C:   00001CB6  A$pff\Debug\pff3a\pff$4686         pff
C:   00001CB8  A$pff\Debug\pff3a\pff$4687         pff
C:   00001CBA  A$pff\Debug\pff3a\pff$4688         pff
C:   00001CBC  A$pff\Debug\pff3a\pff$4689         pff
C:   00001CBE  A$pff\Debug\pff3a\pff$4690         pff
C:   00001CC0  A$pff\Debug\pff3a\pff$4691         pff
C:   00001CC1  A$pff\Debug\pff3a\pff$4692         pff
C:   00001CC2  A$pff\Debug\pff3a\pff$4693         pff
C:   00001CC3  A$pff\Debug\pff3a\pff$4694         pff
C:   00001CC5  A$pff\Debug\pff3a\pff$4695         pff
C:   00001CC6  A$pff\Debug\pff3a\pff$4696         pff
C:   00001CC7  A$pff\Debug\pff3a\pff$4697         pff
C:   00001CC9  A$pff\Debug\pff3a\pff$4698         pff
C:   00001CCA  A$pff\Debug\pff3a\pff$4699         pff
C:   00001CCB  A$pff\Debug\pff3a\pff$4700         pff
C:   00001CCD  A$pff\Debug\pff3a\pff$4701         pff
C:   00001CCE  A$pff\Debug\pff3a\pff$4702         pff
C:   00001CCF  A$pff\Debug\pff3a\pff$4703         pff
C:   00001CD1  A$pff\Debug\pff3a\pff$4704         pff
C:   00001CD3  A$pff\Debug\pff3a\pff$4707         pff
C:   00001CD3  C$pff.c$892$1_0$62                 pff
C:   00001CD5  A$pff\Debug\pff3a\pff$4711         pff
C:   00001CD5  C$pff.c$893$1_0$62                 pff
C:   00001CD7  A$pff\Debug\pff3a\pff$4712         pff
C:   00001CD9  A$pff\Debug\pff3a\pff$4713         pff
ASxxxx Linker V03.00 + NoICE + sdld,  page 113.
Hexadecimal  [32-Bits]

Area                                    Addr        Size        Decimal Bytes (Attributes)
--------------------------------        ----        ----        ------- ----- ------------
CSEG                                00000062    00003CB7 =       15543. bytes (REL,CON,CODE)

      Value  Global                              Global Defined In Module
      -----  --------------------------------   ------------------------
C:   00001CDA  A$pff\Debug\pff3a\pff$4714         pff
C:   00001CDB  A$pff\Debug\pff3a\pff$4715         pff
C:   00001CDC  A$pff\Debug\pff3a\pff$4716         pff
C:   00001CDE  A$pff\Debug\pff3a\pff$4717         pff
C:   00001CDF  A$pff\Debug\pff3a\pff$4718         pff
C:   00001CE0  A$pff\Debug\pff3a\pff$4719         pff
C:   00001CE2  A$pff\Debug\pff3a\pff$4720         pff
C:   00001CE3  A$pff\Debug\pff3a\pff$4721         pff
C:   00001CE4  A$pff\Debug\pff3a\pff$4722         pff
C:   00001CE6  A$pff\Debug\pff3a\pff$4723         pff
C:   00001CE7  A$pff\Debug\pff3a\pff$4724         pff
C:   00001CE8  A$pff\Debug\pff3a\pff$4725         pff
C:   00001CEA  A$pff\Debug\pff3a\pff$4726         pff
C:   00001CEC  A$pff\Debug\pff3a\pff$4729         pff
C:   00001CEC  C$pff.c$894$1_0$62                 pff
C:   00001CEE  A$pff\Debug\pff3a\pff$4733         pff
C:   00001CEE  C$pff.c$895$1_0$62                 pff
C:   00001CEF  A$pff\Debug\pff3a\pff$4734         pff
C:   00001CF1  A$pff\Debug\pff3a\pff$4737         pff
C:   00001CF1  C$pff.c$897$2_0$73                 pff
C:   00001CF4  A$pff\Debug\pff3a\pff$4738         pff
C:   00001CF7  A$pff\Debug\pff3a\pff$4742         pff
C:   00001CF7  C$pff.c$899$1_0$62                 pff
C:   00001CF9  A$pff\Debug\pff3a\pff$4743         pff
C:   00001CFA  A$pff\Debug\pff3a\pff$4744         pff
C:   00001CFC  A$pff\Debug\pff3a\pff$4745         pff
C:   00001CFD  A$pff\Debug\pff3a\pff$4746         pff
C:   00001CFF  A$pff\Debug\pff3a\pff$4747         pff
C:   00001D00  A$pff\Debug\pff3a\pff$4748         pff
C:   00001D02  A$pff\Debug\pff3a\pff$4749         pff
C:   00001D03  A$pff\Debug\pff3a\pff$4750         pff
C:   00001D06  A$pff\Debug\pff3a\pff$4753         pff
C:   00001D06  C$pff.c$901$1_0$62                 pff
C:   00001D09  A$pff\Debug\pff3a\pff$4756         pff
C:   00001D09  C$pff.c$903$2_0$74                 pff
C:   00001D0B  A$pff\Debug\pff3a\pff$4757         pff
C:   00001D0C  A$pff\Debug\pff3a\pff$4758         pff
C:   00001D0E  A$pff\Debug\pff3a\pff$4759         pff
C:   00001D10  A$pff\Debug\pff3a\pff$4760         pff
C:   00001D12  A$pff\Debug\pff3a\pff$4761         pff
C:   00001D13  A$pff\Debug\pff3a\pff$4762         pff
C:   00001D15  A$pff\Debug\pff3a\pff$4763         pff
C:   00001D16  A$pff\Debug\pff3a\pff$4764         pff
C:   00001D17  A$pff\Debug\pff3a\pff$4765         pff
C:   00001D18  A$pff\Debug\pff3a\pff$4766         pff
C:   00001D19  A$pff\Debug\pff3a\pff$4767         pff
C:   00001D1A  A$pff\Debug\pff3a\pff$4768         pff
C:   00001D1B  A$pff\Debug\pff3a\pff$4769         pff
C:   00001D1C  A$pff\Debug\pff3a\pff$4770         pff
C:   00001D1D  A$pff\Debug\pff3a\pff$4771         pff
C:   00001D1E  A$pff\Debug\pff3a\pff$4772         pff
ASxxxx Linker V03.00 + NoICE + sdld,  page 114.
Hexadecimal  [32-Bits]

Area                                    Addr        Size        Decimal Bytes (Attributes)
--------------------------------        ----        ----        ------- ----- ------------
CSEG                                00000062    00003CB7 =       15543. bytes (REL,CON,CODE)

      Value  Global                              Global Defined In Module
      -----  --------------------------------   ------------------------
C:   00001D1F  A$pff\Debug\pff3a\pff$4773         pff
C:   00001D20  A$pff\Debug\pff3a\pff$4774         pff
C:   00001D22  A$pff\Debug\pff3a\pff$4775         pff
C:   00001D24  A$pff\Debug\pff3a\pff$4776         pff
C:   00001D25  A$pff\Debug\pff3a\pff$4777         pff
C:   00001D26  A$pff\Debug\pff3a\pff$4778         pff
C:   00001D28  A$pff\Debug\pff3a\pff$4779         pff
C:   00001D2A  A$pff\Debug\pff3a\pff$4780         pff
C:   00001D2C  A$pff\Debug\pff3a\pff$4781         pff
C:   00001D2E  A$pff\Debug\pff3a\pff$4782         pff
C:   00001D30  A$pff\Debug\pff3a\pff$4783         pff
C:   00001D33  A$pff\Debug\pff3a\pff$4784         pff
C:   00001D35  A$pff\Debug\pff3a\pff$4785         pff
C:   00001D37  A$pff\Debug\pff3a\pff$4786         pff
C:   00001D39  A$pff\Debug\pff3a\pff$4787         pff
C:   00001D3A  A$pff\Debug\pff3a\pff$4788         pff
C:   00001D3C  A$pff\Debug\pff3a\pff$4789         pff
C:   00001D3E  A$pff\Debug\pff3a\pff$4790         pff
C:   00001D3F  A$pff\Debug\pff3a\pff$4791         pff
C:   00001D41  A$pff\Debug\pff3a\pff$4792         pff
C:   00001D42  A$pff\Debug\pff3a\pff$4793         pff
C:   00001D44  A$pff\Debug\pff3a\pff$4794         pff
C:   00001D45  A$pff\Debug\pff3a\pff$4795         pff
C:   00001D47  A$pff\Debug\pff3a\pff$4796         pff
C:   00001D48  A$pff\Debug\pff3a\pff$4797         pff
C:   00001D4B  A$pff\Debug\pff3a\pff$4798         pff
C:   00001D4C  A$pff\Debug\pff3a\pff$4799         pff
C:   00001D4D  A$pff\Debug\pff3a\pff$4800         pff
C:   00001D50  A$pff\Debug\pff3a\pff$4801         pff
C:   00001D51  A$pff\Debug\pff3a\pff$4802         pff
C:   00001D52  A$pff\Debug\pff3a\pff$4803         pff
C:   00001D55  A$pff\Debug\pff3a\pff$4804         pff
C:   00001D56  A$pff\Debug\pff3a\pff$4805         pff
C:   00001D57  A$pff\Debug\pff3a\pff$4806         pff
C:   00001D5A  A$pff\Debug\pff3a\pff$4807         pff
C:   00001D5C  A$pff\Debug\pff3a\pff$4811         pff
C:   00001D5C  C$pff.c$907$2_0$75                 pff
C:   00001D5E  A$pff\Debug\pff3a\pff$4812         pff
C:   00001D5F  A$pff\Debug\pff3a\pff$4813         pff
C:   00001D61  A$pff\Debug\pff3a\pff$4814         pff
C:   00001D63  A$pff\Debug\pff3a\pff$4815         pff
C:   00001D64  A$pff\Debug\pff3a\pff$4816         pff
C:   00001D66  A$pff\Debug\pff3a\pff$4817         pff
C:   00001D67  A$pff\Debug\pff3a\pff$4818         pff
C:   00001D68  A$pff\Debug\pff3a\pff$4819         pff
C:   00001D69  A$pff\Debug\pff3a\pff$4820         pff
C:   00001D6A  A$pff\Debug\pff3a\pff$4821         pff
C:   00001D6B  A$pff\Debug\pff3a\pff$4822         pff
C:   00001D6C  A$pff\Debug\pff3a\pff$4823         pff
C:   00001D6D  A$pff\Debug\pff3a\pff$4824         pff
C:   00001D6E  A$pff\Debug\pff3a\pff$4825         pff
ASxxxx Linker V03.00 + NoICE + sdld,  page 115.
Hexadecimal  [32-Bits]

Area                                    Addr        Size        Decimal Bytes (Attributes)
--------------------------------        ----        ----        ------- ----- ------------
CSEG                                00000062    00003CB7 =       15543. bytes (REL,CON,CODE)

      Value  Global                              Global Defined In Module
      -----  --------------------------------   ------------------------
C:   00001D6F  A$pff\Debug\pff3a\pff$4826         pff
C:   00001D70  A$pff\Debug\pff3a\pff$4827         pff
C:   00001D71  A$pff\Debug\pff3a\pff$4828         pff
C:   00001D73  A$pff\Debug\pff3a\pff$4829         pff
C:   00001D75  A$pff\Debug\pff3a\pff$4830         pff
C:   00001D76  A$pff\Debug\pff3a\pff$4831         pff
C:   00001D78  A$pff\Debug\pff3a\pff$4832         pff
C:   00001D79  A$pff\Debug\pff3a\pff$4833         pff
C:   00001D7B  A$pff\Debug\pff3a\pff$4834         pff
C:   00001D7C  A$pff\Debug\pff3a\pff$4835         pff
C:   00001D7E  A$pff\Debug\pff3a\pff$4836         pff
C:   00001D81  A$pff\Debug\pff3a\pff$4837         pff
C:   00001D82  A$pff\Debug\pff3a\pff$4838         pff
C:   00001D83  A$pff\Debug\pff3a\pff$4839         pff
C:   00001D86  A$pff\Debug\pff3a\pff$4840         pff
C:   00001D87  A$pff\Debug\pff3a\pff$4841         pff
C:   00001D88  A$pff\Debug\pff3a\pff$4842         pff
C:   00001D8B  A$pff\Debug\pff3a\pff$4843         pff
C:   00001D8C  A$pff\Debug\pff3a\pff$4844         pff
C:   00001D8D  A$pff\Debug\pff3a\pff$4845         pff
C:   00001D90  A$pff\Debug\pff3a\pff$4846         pff
C:   00001D91  A$pff\Debug\pff3a\pff$4847         pff
C:   00001D93  A$pff\Debug\pff3a\pff$4848         pff
C:   00001D95  A$pff\Debug\pff3a\pff$4849         pff
C:   00001D96  A$pff\Debug\pff3a\pff$4850         pff
C:   00001D97  A$pff\Debug\pff3a\pff$4851         pff
C:   00001D98  A$pff\Debug\pff3a\pff$4852         pff
C:   00001D99  A$pff\Debug\pff3a\pff$4853         pff
C:   00001D9A  A$pff\Debug\pff3a\pff$4854         pff
C:   00001D9B  A$pff\Debug\pff3a\pff$4855         pff
C:   00001D9C  A$pff\Debug\pff3a\pff$4856         pff
C:   00001D9D  A$pff\Debug\pff3a\pff$4857         pff
C:   00001D9E  A$pff\Debug\pff3a\pff$4858         pff
C:   00001D9F  A$pff\Debug\pff3a\pff$4859         pff
C:   00001DA0  A$pff\Debug\pff3a\pff$4860         pff
C:   00001DA1  A$pff\Debug\pff3a\pff$4861         pff
C:   00001DA2  A$pff\Debug\pff3a\pff$4862         pff
C:   00001DA3  A$pff\Debug\pff3a\pff$4863         pff
C:   00001DA4  A$pff\Debug\pff3a\pff$4864         pff
C:   00001DA5  A$pff\Debug\pff3a\pff$4865         pff
C:   00001DA7  A$pff\Debug\pff3a\pff$4866         pff
C:   00001DA9  A$pff\Debug\pff3a\pff$4867         pff
C:   00001DAA  A$pff\Debug\pff3a\pff$4868         pff
C:   00001DAC  A$pff\Debug\pff3a\pff$4869         pff
C:   00001DAD  A$pff\Debug\pff3a\pff$4870         pff
C:   00001DAF  A$pff\Debug\pff3a\pff$4871         pff
C:   00001DB0  A$pff\Debug\pff3a\pff$4872         pff
C:   00001DB2  A$pff\Debug\pff3a\pff$4873         pff
C:   00001DB3  A$pff\Debug\pff3a\pff$4874         pff
C:   00001DB6  A$pff\Debug\pff3a\pff$4875         pff
C:   00001DB7  A$pff\Debug\pff3a\pff$4876         pff
ASxxxx Linker V03.00 + NoICE + sdld,  page 116.
Hexadecimal  [32-Bits]

Area                                    Addr        Size        Decimal Bytes (Attributes)
--------------------------------        ----        ----        ------- ----- ------------
CSEG                                00000062    00003CB7 =       15543. bytes (REL,CON,CODE)

      Value  Global                              Global Defined In Module
      -----  --------------------------------   ------------------------
C:   00001DB8  A$pff\Debug\pff3a\pff$4877         pff
C:   00001DBB  A$pff\Debug\pff3a\pff$4878         pff
C:   00001DBC  A$pff\Debug\pff3a\pff$4879         pff
C:   00001DBD  A$pff\Debug\pff3a\pff$4880         pff
C:   00001DC0  A$pff\Debug\pff3a\pff$4881         pff
C:   00001DC1  A$pff\Debug\pff3a\pff$4882         pff
C:   00001DC2  A$pff\Debug\pff3a\pff$4883         pff
C:   00001DC5  A$pff\Debug\pff3a\pff$4887         pff
C:   00001DC5  C$pff.c$909$1_0$62                 pff
C:   00001DC7  A$pff\Debug\pff3a\pff$4888         pff
C:   00001DC8  A$pff\Debug\pff3a\pff$4889         pff
C:   00001DCA  A$pff\Debug\pff3a\pff$4890         pff
C:   00001DCC  A$pff\Debug\pff3a\pff$4891         pff
C:   00001DCD  A$pff\Debug\pff3a\pff$4892         pff
C:   00001DCF  A$pff\Debug\pff3a\pff$4893         pff
C:   00001DD0  A$pff\Debug\pff3a\pff$4894         pff
C:   00001DD1  A$pff\Debug\pff3a\pff$4895         pff
C:   00001DD2  A$pff\Debug\pff3a\pff$4896         pff
C:   00001DD3  A$pff\Debug\pff3a\pff$4897         pff
C:   00001DD4  A$pff\Debug\pff3a\pff$4898         pff
C:   00001DD5  A$pff\Debug\pff3a\pff$4899         pff
C:   00001DD6  A$pff\Debug\pff3a\pff$4900         pff
C:   00001DD7  A$pff\Debug\pff3a\pff$4901         pff
C:   00001DD8  A$pff\Debug\pff3a\pff$4902         pff
C:   00001DD9  A$pff\Debug\pff3a\pff$4903         pff
C:   00001DDA  A$pff\Debug\pff3a\pff$4904         pff
C:   00001DDC  A$pff\Debug\pff3a\pff$4905         pff
C:   00001DDE  A$pff\Debug\pff3a\pff$4906         pff
C:   00001DDF  A$pff\Debug\pff3a\pff$4907         pff
C:   00001DE1  A$pff\Debug\pff3a\pff$4908         pff
C:   00001DE2  A$pff\Debug\pff3a\pff$4909         pff
C:   00001DE4  A$pff\Debug\pff3a\pff$4910         pff
C:   00001DE5  A$pff\Debug\pff3a\pff$4911         pff
C:   00001DE7  A$pff\Debug\pff3a\pff$4912         pff
C:   00001DEA  A$pff\Debug\pff3a\pff$4913         pff
C:   00001DEB  A$pff\Debug\pff3a\pff$4914         pff
C:   00001DEC  A$pff\Debug\pff3a\pff$4915         pff
C:   00001DEF  A$pff\Debug\pff3a\pff$4916         pff
C:   00001DF0  A$pff\Debug\pff3a\pff$4917         pff
C:   00001DF1  A$pff\Debug\pff3a\pff$4918         pff
C:   00001DF4  A$pff\Debug\pff3a\pff$4919         pff
C:   00001DF5  A$pff\Debug\pff3a\pff$4920         pff
C:   00001DF6  A$pff\Debug\pff3a\pff$4921         pff
C:   00001DF9  A$pff\Debug\pff3a\pff$4922         pff
C:   00001DFA  A$pff\Debug\pff3a\pff$4923         pff
C:   00001DFC  A$pff\Debug\pff3a\pff$4924         pff
C:   00001DFE  A$pff\Debug\pff3a\pff$4925         pff
C:   00001DFF  A$pff\Debug\pff3a\pff$4926         pff
C:   00001E01  A$pff\Debug\pff3a\pff$4927         pff
C:   00001E03  A$pff\Debug\pff3a\pff$4928         pff
C:   00001E04  A$pff\Debug\pff3a\pff$4929         pff
ASxxxx Linker V03.00 + NoICE + sdld,  page 117.
Hexadecimal  [32-Bits]

Area                                    Addr        Size        Decimal Bytes (Attributes)
--------------------------------        ----        ----        ------- ----- ------------
CSEG                                00000062    00003CB7 =       15543. bytes (REL,CON,CODE)

      Value  Global                              Global Defined In Module
      -----  --------------------------------   ------------------------
C:   00001E05  A$pff\Debug\pff3a\pff$4930         pff
C:   00001E06  A$pff\Debug\pff3a\pff$4931         pff
C:   00001E07  A$pff\Debug\pff3a\pff$4932         pff
C:   00001E08  A$pff\Debug\pff3a\pff$4933         pff
C:   00001E09  A$pff\Debug\pff3a\pff$4934         pff
C:   00001E0A  A$pff\Debug\pff3a\pff$4935         pff
C:   00001E0B  A$pff\Debug\pff3a\pff$4936         pff
C:   00001E0C  A$pff\Debug\pff3a\pff$4937         pff
C:   00001E0D  A$pff\Debug\pff3a\pff$4938         pff
C:   00001E0E  A$pff\Debug\pff3a\pff$4939         pff
C:   00001E0F  A$pff\Debug\pff3a\pff$4940         pff
C:   00001E10  A$pff\Debug\pff3a\pff$4941         pff
C:   00001E11  A$pff\Debug\pff3a\pff$4942         pff
C:   00001E12  A$pff\Debug\pff3a\pff$4943         pff
C:   00001E13  A$pff\Debug\pff3a\pff$4944         pff
C:   00001E14  A$pff\Debug\pff3a\pff$4945         pff
C:   00001E15  A$pff\Debug\pff3a\pff$4946         pff
C:   00001E16  A$pff\Debug\pff3a\pff$4947         pff
C:   00001E18  A$pff\Debug\pff3a\pff$4948         pff
C:   00001E1A  A$pff\Debug\pff3a\pff$4949         pff
C:   00001E1B  A$pff\Debug\pff3a\pff$4950         pff
C:   00001E1D  A$pff\Debug\pff3a\pff$4951         pff
C:   00001E1E  A$pff\Debug\pff3a\pff$4952         pff
C:   00001E20  A$pff\Debug\pff3a\pff$4953         pff
C:   00001E21  A$pff\Debug\pff3a\pff$4954         pff
C:   00001E23  A$pff\Debug\pff3a\pff$4955         pff
C:   00001E26  A$pff\Debug\pff3a\pff$4956         pff
C:   00001E27  A$pff\Debug\pff3a\pff$4957         pff
C:   00001E28  A$pff\Debug\pff3a\pff$4958         pff
C:   00001E2B  A$pff\Debug\pff3a\pff$4959         pff
C:   00001E2C  A$pff\Debug\pff3a\pff$4960         pff
C:   00001E2D  A$pff\Debug\pff3a\pff$4961         pff
C:   00001E2E  A$pff\Debug\pff3a\pff$4962         pff
C:   00001E30  A$pff\Debug\pff3a\pff$4963         pff
C:   00001E31  A$pff\Debug\pff3a\pff$4964         pff
C:   00001E32  A$pff\Debug\pff3a\pff$4965         pff
C:   00001E34  A$pff\Debug\pff3a\pff$4966         pff
C:   00001E35  A$pff\Debug\pff3a\pff$4967         pff
C:   00001E36  A$pff\Debug\pff3a\pff$4968         pff
C:   00001E37  A$pff\Debug\pff3a\pff$4969         pff
C:   00001E38  A$pff\Debug\pff3a\pff$4970         pff
C:   00001E39  A$pff\Debug\pff3a\pff$4971         pff
C:   00001E3A  A$pff\Debug\pff3a\pff$4972         pff
C:   00001E3B  A$pff\Debug\pff3a\pff$4973         pff
C:   00001E3D  A$pff\Debug\pff3a\pff$4974         pff
C:   00001E3F  A$pff\Debug\pff3a\pff$4975         pff
C:   00001E40  A$pff\Debug\pff3a\pff$4976         pff
C:   00001E41  A$pff\Debug\pff3a\pff$4977         pff
C:   00001E42  A$pff\Debug\pff3a\pff$4978         pff
C:   00001E43  A$pff\Debug\pff3a\pff$4979         pff
C:   00001E44  A$pff\Debug\pff3a\pff$4980         pff
ASxxxx Linker V03.00 + NoICE + sdld,  page 118.
Hexadecimal  [32-Bits]

Area                                    Addr        Size        Decimal Bytes (Attributes)
--------------------------------        ----        ----        ------- ----- ------------
CSEG                                00000062    00003CB7 =       15543. bytes (REL,CON,CODE)

      Value  Global                              Global Defined In Module
      -----  --------------------------------   ------------------------
C:   00001E45  A$pff\Debug\pff3a\pff$4981         pff
C:   00001E46  A$pff\Debug\pff3a\pff$4982         pff
C:   00001E47  A$pff\Debug\pff3a\pff$4983         pff
C:   00001E48  A$pff\Debug\pff3a\pff$4984         pff
C:   00001E49  A$pff\Debug\pff3a\pff$4985         pff
C:   00001E4A  A$pff\Debug\pff3a\pff$4986         pff
C:   00001E4B  A$pff\Debug\pff3a\pff$4987         pff
C:   00001E4C  A$pff\Debug\pff3a\pff$4988         pff
C:   00001E4D  A$pff\Debug\pff3a\pff$4989         pff
C:   00001E4E  A$pff\Debug\pff3a\pff$4990         pff
C:   00001E4F  A$pff\Debug\pff3a\pff$4991         pff
C:   00001E51  A$pff\Debug\pff3a\pff$4992         pff
C:   00001E53  A$pff\Debug\pff3a\pff$4993         pff
C:   00001E54  A$pff\Debug\pff3a\pff$4994         pff
C:   00001E56  A$pff\Debug\pff3a\pff$4995         pff
C:   00001E57  A$pff\Debug\pff3a\pff$4996         pff
C:   00001E59  A$pff\Debug\pff3a\pff$4997         pff
C:   00001E5A  A$pff\Debug\pff3a\pff$4998         pff
C:   00001E5C  A$pff\Debug\pff3a\pff$4999         pff
C:   00001E5D  A$pff\Debug\pff3a\pff$5000         pff
C:   00001E60  A$pff\Debug\pff3a\pff$5001         pff
C:   00001E61  A$pff\Debug\pff3a\pff$5002         pff
C:   00001E62  A$pff\Debug\pff3a\pff$5003         pff
C:   00001E65  A$pff\Debug\pff3a\pff$5004         pff
C:   00001E66  A$pff\Debug\pff3a\pff$5005         pff
C:   00001E67  A$pff\Debug\pff3a\pff$5006         pff
C:   00001E6A  A$pff\Debug\pff3a\pff$5007         pff
C:   00001E6B  A$pff\Debug\pff3a\pff$5008         pff
C:   00001E6C  A$pff\Debug\pff3a\pff$5009         pff
C:   00001E6F  A$pff\Debug\pff3a\pff$5012         pff
C:   00001E6F  C$pff.c$911$1_0$62                 pff
C:   00001E71  A$pff\Debug\pff3a\pff$5013         pff
C:   00001E72  A$pff\Debug\pff3a\pff$5014         pff
C:   00001E74  A$pff\Debug\pff3a\pff$5015         pff
C:   00001E75  A$pff\Debug\pff3a\pff$5016         pff
C:   00001E76  A$pff\Debug\pff3a\pff$5017         pff
C:   00001E77  A$pff\Debug\pff3a\pff$5018         pff
C:   00001E78  A$pff\Debug\pff3a\pff$5019         pff
C:   00001E79  A$pff\Debug\pff3a\pff$5020         pff
C:   00001E7A  A$pff\Debug\pff3a\pff$5021         pff
C:   00001E7B  A$pff\Debug\pff3a\pff$5022         pff
C:   00001E7D  A$pff\Debug\pff3a\pff$5023         pff
C:   00001E7F  A$pff\Debug\pff3a\pff$5024         pff
C:   00001E81  A$pff\Debug\pff3a\pff$5025         pff
C:   00001E83  A$pff\Debug\pff3a\pff$5026         pff
C:   00001E84  A$pff\Debug\pff3a\pff$5027         pff
C:   00001E87  A$pff\Debug\pff3a\pff$5030         pff
C:   00001E87  C$pff.c$912$1_0$62                 pff
C:   00001E89  A$pff\Debug\pff3a\pff$5031         pff
C:   00001E8A  A$pff\Debug\pff3a\pff$5032         pff
C:   00001E8D  A$pff\Debug\pff3a\pff$5033         pff
ASxxxx Linker V03.00 + NoICE + sdld,  page 119.
Hexadecimal  [32-Bits]

Area                                    Addr        Size        Decimal Bytes (Attributes)
--------------------------------        ----        ----        ------- ----- ------------
CSEG                                00000062    00003CB7 =       15543. bytes (REL,CON,CODE)

      Value  Global                              Global Defined In Module
      -----  --------------------------------   ------------------------
C:   00001E8E  A$pff\Debug\pff3a\pff$5034         pff
C:   00001E8F  A$pff\Debug\pff3a\pff$5035         pff
C:   00001E90  A$pff\Debug\pff3a\pff$5036         pff
C:   00001E91  A$pff\Debug\pff3a\pff$5037         pff
C:   00001E92  A$pff\Debug\pff3a\pff$5038         pff
C:   00001E93  A$pff\Debug\pff3a\pff$5039         pff
C:   00001E94  A$pff\Debug\pff3a\pff$5040         pff
C:   00001E95  A$pff\Debug\pff3a\pff$5041         pff
C:   00001E96  A$pff\Debug\pff3a\pff$5042         pff
C:   00001E97  A$pff\Debug\pff3a\pff$5045         pff
C:   00001E97  C$pff.c$914$1_0$62                 pff
C:   00001E9A  A$pff\Debug\pff3a\pff$5049         pff
C:   00001E9D  A$pff\Debug\pff3a\pff$5050         pff
C:   00001E9F  A$pff\Debug\pff3a\pff$5053         pff
C:   00001E9F  C$pff.c$915$1_0$62                 pff
C:   00001E9F  XG$pf_mount$0$0                    pff
C:   00001EA0  A$pff\Debug\pff3a\pff$5074         pff
C:   00001EA0  C$pff.c$924$1_0$77                 pff
C:   00001EA0  G$pf_open$0$0                      pff
C:   00001EA0  _pf_open                           pff
C:   00001EA2  A$pff\Debug\pff3a\pff$5075         pff
C:   00001EA5  A$pff\Debug\pff3a\pff$5076         pff
C:   00001EA7  A$pff\Debug\pff3a\pff$5077         pff
C:   00001EA9  A$pff\Debug\pff3a\pff$5078         pff
C:   00001EAB  A$pff\Debug\pff3a\pff$5079         pff
C:   00001EAD  A$pff\Debug\pff3a\pff$5080         pff
C:   00001EAF  A$pff\Debug\pff3a\pff$5081         pff
C:   00001EB1  A$pff\Debug\pff3a\pff$5084         pff
C:   00001EB1  C$pff.c$931$2_0$77                 pff
C:   00001EB4  A$pff\Debug\pff3a\pff$5085         pff
C:   00001EB5  A$pff\Debug\pff3a\pff$5086         pff
C:   00001EB6  A$pff\Debug\pff3a\pff$5087         pff
C:   00001EB7  A$pff\Debug\pff3a\pff$5088         pff
C:   00001EB8  A$pff\Debug\pff3a\pff$5089         pff
C:   00001EB9  A$pff\Debug\pff3a\pff$5090         pff
C:   00001EBA  A$pff\Debug\pff3a\pff$5091         pff
C:   00001EBB  A$pff\Debug\pff3a\pff$5092         pff
C:   00001EBC  A$pff\Debug\pff3a\pff$5093         pff
C:   00001EBE  A$pff\Debug\pff3a\pff$5094         pff
C:   00001EC0  A$pff\Debug\pff3a\pff$5095         pff
C:   00001EC1  A$pff\Debug\pff3a\pff$5096         pff
C:   00001EC3  A$pff\Debug\pff3a\pff$5097         pff
C:   00001EC4  A$pff\Debug\pff3a\pff$5098         pff
C:   00001EC6  A$pff\Debug\pff3a\pff$5099         pff
C:   00001EC7  A$pff\Debug\pff3a\pff$5100         pff
C:   00001EC9  A$pff\Debug\pff3a\pff$5103         pff
C:   00001EC9  C$pff.c$933$1_0$77                 pff
C:   00001ECB  A$pff\Debug\pff3a\pff$5104         pff
C:   00001ECD  A$pff\Debug\pff3a\pff$5105         pff
C:   00001ECE  A$pff\Debug\pff3a\pff$5106         pff
C:   00001ECF  A$pff\Debug\pff3a\pff$5107         pff
ASxxxx Linker V03.00 + NoICE + sdld,  page 120.
Hexadecimal  [32-Bits]

Area                                    Addr        Size        Decimal Bytes (Attributes)
--------------------------------        ----        ----        ------- ----- ------------
CSEG                                00000062    00003CB7 =       15543. bytes (REL,CON,CODE)

      Value  Global                              Global Defined In Module
      -----  --------------------------------   ------------------------
C:   00001ED0  A$pff\Debug\pff3a\pff$5108         pff
C:   00001ED1  A$pff\Debug\pff3a\pff$5109         pff
C:   00001ED3  A$pff\Debug\pff3a\pff$5112         pff
C:   00001ED3  C$pff.c$935$2_0$78                 pff
C:   00001ED6  A$pff\Debug\pff3a\pff$5113         pff
C:   00001ED9  A$pff\Debug\pff3a\pff$5117         pff
C:   00001ED9  C$pff.c$938$1_0$77                 pff
C:   00001EDB  A$pff\Debug\pff3a\pff$5118         pff
C:   00001EDD  A$pff\Debug\pff3a\pff$5119         pff
C:   00001EDE  A$pff\Debug\pff3a\pff$5120         pff
C:   00001EE0  A$pff\Debug\pff3a\pff$5121         pff
C:   00001EE1  A$pff\Debug\pff3a\pff$5122         pff
C:   00001EE2  A$pff\Debug\pff3a\pff$5123         pff
C:   00001EE3  A$pff\Debug\pff3a\pff$5124         pff
C:   00001EE4  A$pff\Debug\pff3a\pff$5125         pff
C:   00001EE5  A$pff\Debug\pff3a\pff$5126         pff
C:   00001EE6  A$pff\Debug\pff3a\pff$5127         pff
C:   00001EE7  A$pff\Debug\pff3a\pff$5128         pff
C:   00001EE9  A$pff\Debug\pff3a\pff$5129         pff
C:   00001EEB  A$pff\Debug\pff3a\pff$5130         pff
C:   00001EED  A$pff\Debug\pff3a\pff$5131         pff
C:   00001EEF  A$pff\Debug\pff3a\pff$5132         pff
C:   00001EF0  A$pff\Debug\pff3a\pff$5133         pff
C:   00001EF3  A$pff\Debug\pff3a\pff$5136         pff
C:   00001EF3  C$pff.c$939$1_0$77                 pff
C:   00001EF5  A$pff\Debug\pff3a\pff$5137         pff
C:   00001EF7  A$pff\Debug\pff3a\pff$5138         pff
C:   00001EF8  A$pff\Debug\pff3a\pff$5139         pff
C:   00001EFA  A$pff\Debug\pff3a\pff$5140         pff
C:   00001EFB  A$pff\Debug\pff3a\pff$5141         pff
C:   00001EFD  A$pff\Debug\pff3a\pff$5142         pff
C:   00001EFF  A$pff\Debug\pff3a\pff$5143         pff
C:   00001F00  A$pff\Debug\pff3a\pff$5144         pff
C:   00001F02  A$pff\Debug\pff3a\pff$5145         pff
C:   00001F04  A$pff\Debug\pff3a\pff$5146         pff
C:   00001F06  A$pff\Debug\pff3a\pff$5147         pff
C:   00001F07  A$pff\Debug\pff3a\pff$5148         pff
C:   00001F09  A$pff\Debug\pff3a\pff$5149         pff
C:   00001F0A  A$pff\Debug\pff3a\pff$5150         pff
C:   00001F0C  A$pff\Debug\pff3a\pff$5153         pff
C:   00001F0C  C$pff.c$940$1_0$77                 pff
C:   00001F0E  A$pff\Debug\pff3a\pff$5154         pff
C:   00001F10  A$pff\Debug\pff3a\pff$5155         pff
C:   00001F11  A$pff\Debug\pff3a\pff$5156         pff
C:   00001F12  A$pff\Debug\pff3a\pff$5157         pff
C:   00001F14  A$pff\Debug\pff3a\pff$5158         pff
C:   00001F16  A$pff\Debug\pff3a\pff$5159         pff
C:   00001F18  A$pff\Debug\pff3a\pff$5160         pff
C:   00001F1A  A$pff\Debug\pff3a\pff$5161         pff
C:   00001F1C  A$pff\Debug\pff3a\pff$5162         pff
C:   00001F1E  A$pff\Debug\pff3a\pff$5163         pff
ASxxxx Linker V03.00 + NoICE + sdld,  page 121.
Hexadecimal  [32-Bits]

Area                                    Addr        Size        Decimal Bytes (Attributes)
--------------------------------        ----        ----        ------- ----- ------------
CSEG                                00000062    00003CB7 =       15543. bytes (REL,CON,CODE)

      Value  Global                              Global Defined In Module
      -----  --------------------------------   ------------------------
C:   00001F1F  A$pff\Debug\pff3a\pff$5164         pff
C:   00001F20  A$pff\Debug\pff3a\pff$5165         pff
C:   00001F22  A$pff\Debug\pff3a\pff$5166         pff
C:   00001F23  A$pff\Debug\pff3a\pff$5167         pff
C:   00001F24  A$pff\Debug\pff3a\pff$5168         pff
C:   00001F26  A$pff\Debug\pff3a\pff$5169         pff
C:   00001F27  A$pff\Debug\pff3a\pff$5170         pff
C:   00001F28  A$pff\Debug\pff3a\pff$5171         pff
C:   00001F2A  A$pff\Debug\pff3a\pff$5172         pff
C:   00001F2C  A$pff\Debug\pff3a\pff$5173         pff
C:   00001F2E  A$pff\Debug\pff3a\pff$5174         pff
C:   00001F30  A$pff\Debug\pff3a\pff$5175         pff
C:   00001F32  A$pff\Debug\pff3a\pff$5176         pff
C:   00001F34  A$pff\Debug\pff3a\pff$5177         pff
C:   00001F36  A$pff\Debug\pff3a\pff$5178         pff
C:   00001F39  A$pff\Debug\pff3a\pff$5179         pff
C:   00001F3B  A$pff\Debug\pff3a\pff$5180         pff
C:   00001F3D  A$pff\Debug\pff3a\pff$5181         pff
C:   00001F3F  A$pff\Debug\pff3a\pff$5182         pff
C:   00001F41  A$pff\Debug\pff3a\pff$5183         pff
C:   00001F43  A$pff\Debug\pff3a\pff$5186         pff
C:   00001F43  C$pff.c$941$1_0$77                 pff
C:   00001F44  A$pff\Debug\pff3a\pff$5187         pff
C:   00001F45  A$pff\Debug\pff3a\pff$5188         pff
C:   00001F47  A$pff\Debug\pff3a\pff$5191         pff
C:   00001F47  C$pff.c$943$2_0$79                 pff
C:   00001F49  A$pff\Debug\pff3a\pff$5192         pff
C:   00001F4C  A$pff\Debug\pff3a\pff$5196         pff
C:   00001F4C  C$pff.c$945$1_0$77                 pff
C:   00001F4D  A$pff\Debug\pff3a\pff$5197         pff
C:   00001F4F  A$pff\Debug\pff3a\pff$5198         pff
C:   00001F51  A$pff\Debug\pff3a\pff$5199         pff
C:   00001F52  A$pff\Debug\pff3a\pff$5200         pff
C:   00001F53  A$pff\Debug\pff3a\pff$5201         pff
C:   00001F54  A$pff\Debug\pff3a\pff$5202         pff
C:   00001F55  A$pff\Debug\pff3a\pff$5203         pff
C:   00001F58  A$pff\Debug\pff3a\pff$5207         pff
C:   00001F58  C$pff.c$947$2_0$80                 pff
C:   00001F5B  A$pff\Debug\pff3a\pff$5208         pff
C:   00001F5E  A$pff\Debug\pff3a\pff$5212         pff
C:   00001F5E  C$pff.c$950$1_0$77                 pff
C:   00001F60  A$pff\Debug\pff3a\pff$5213         pff
C:   00001F62  A$pff\Debug\pff3a\pff$5214         pff
C:   00001F63  A$pff\Debug\pff3a\pff$5215         pff
C:   00001F65  A$pff\Debug\pff3a\pff$5216         pff
C:   00001F67  A$pff\Debug\pff3a\pff$5217         pff
C:   00001F69  A$pff\Debug\pff3a\pff$5218         pff
C:   00001F6A  A$pff\Debug\pff3a\pff$5219         pff
C:   00001F6C  A$pff\Debug\pff3a\pff$5220         pff
C:   00001F6D  A$pff\Debug\pff3a\pff$5221         pff
C:   00001F6E  A$pff\Debug\pff3a\pff$5222         pff
ASxxxx Linker V03.00 + NoICE + sdld,  page 122.
Hexadecimal  [32-Bits]

Area                                    Addr        Size        Decimal Bytes (Attributes)
--------------------------------        ----        ----        ------- ----- ------------
CSEG                                00000062    00003CB7 =       15543. bytes (REL,CON,CODE)

      Value  Global                              Global Defined In Module
      -----  --------------------------------   ------------------------
C:   00001F6F  A$pff\Debug\pff3a\pff$5223         pff
C:   00001F70  A$pff\Debug\pff3a\pff$5224         pff
C:   00001F71  A$pff\Debug\pff3a\pff$5225         pff
C:   00001F72  A$pff\Debug\pff3a\pff$5226         pff
C:   00001F73  A$pff\Debug\pff3a\pff$5227         pff
C:   00001F74  A$pff\Debug\pff3a\pff$5228         pff
C:   00001F75  A$pff\Debug\pff3a\pff$5229         pff
C:   00001F76  A$pff\Debug\pff3a\pff$5230         pff
C:   00001F77  A$pff\Debug\pff3a\pff$5231         pff
C:   00001F79  A$pff\Debug\pff3a\pff$5232         pff
C:   00001F7B  A$pff\Debug\pff3a\pff$5233         pff
C:   00001F7D  A$pff\Debug\pff3a\pff$5234         pff
C:   00001F7F  A$pff\Debug\pff3a\pff$5235         pff
C:   00001F81  A$pff\Debug\pff3a\pff$5236         pff
C:   00001F83  A$pff\Debug\pff3a\pff$5237         pff
C:   00001F85  A$pff\Debug\pff3a\pff$5238         pff
C:   00001F87  A$pff\Debug\pff3a\pff$5239         pff
C:   00001F8A  A$pff\Debug\pff3a\pff$5240         pff
C:   00001F8C  A$pff\Debug\pff3a\pff$5241         pff
C:   00001F8E  A$pff\Debug\pff3a\pff$5242         pff
C:   00001F90  A$pff\Debug\pff3a\pff$5243         pff
C:   00001F91  A$pff\Debug\pff3a\pff$5244         pff
C:   00001F93  A$pff\Debug\pff3a\pff$5245         pff
C:   00001F95  A$pff\Debug\pff3a\pff$5246         pff
C:   00001F96  A$pff\Debug\pff3a\pff$5247         pff
C:   00001F98  A$pff\Debug\pff3a\pff$5248         pff
C:   00001F99  A$pff\Debug\pff3a\pff$5249         pff
C:   00001F9B  A$pff\Debug\pff3a\pff$5250         pff
C:   00001F9C  A$pff\Debug\pff3a\pff$5251         pff
C:   00001F9E  A$pff\Debug\pff3a\pff$5252         pff
C:   00001F9F  A$pff\Debug\pff3a\pff$5253         pff
C:   00001FA2  A$pff\Debug\pff3a\pff$5254         pff
C:   00001FA3  A$pff\Debug\pff3a\pff$5255         pff
C:   00001FA4  A$pff\Debug\pff3a\pff$5256         pff
C:   00001FA7  A$pff\Debug\pff3a\pff$5257         pff
C:   00001FA8  A$pff\Debug\pff3a\pff$5258         pff
C:   00001FA9  A$pff\Debug\pff3a\pff$5259         pff
C:   00001FAC  A$pff\Debug\pff3a\pff$5260         pff
C:   00001FAD  A$pff\Debug\pff3a\pff$5261         pff
C:   00001FAE  A$pff\Debug\pff3a\pff$5262         pff
C:   00001FB1  A$pff\Debug\pff3a\pff$5265         pff
C:   00001FB1  C$pff.c$952$1_0$77                 pff
C:   00001FB3  A$pff\Debug\pff3a\pff$5266         pff
C:   00001FB5  A$pff\Debug\pff3a\pff$5267         pff
C:   00001FB6  A$pff\Debug\pff3a\pff$5268         pff
C:   00001FB8  A$pff\Debug\pff3a\pff$5269         pff
C:   00001FBA  A$pff\Debug\pff3a\pff$5270         pff
C:   00001FBB  A$pff\Debug\pff3a\pff$5271         pff
C:   00001FBD  A$pff\Debug\pff3a\pff$5272         pff
C:   00001FBE  A$pff\Debug\pff3a\pff$5273         pff
C:   00001FBF  A$pff\Debug\pff3a\pff$5274         pff
ASxxxx Linker V03.00 + NoICE + sdld,  page 123.
Hexadecimal  [32-Bits]

Area                                    Addr        Size        Decimal Bytes (Attributes)
--------------------------------        ----        ----        ------- ----- ------------
CSEG                                00000062    00003CB7 =       15543. bytes (REL,CON,CODE)

      Value  Global                              Global Defined In Module
      -----  --------------------------------   ------------------------
C:   00001FC0  A$pff\Debug\pff3a\pff$5275         pff
C:   00001FC1  A$pff\Debug\pff3a\pff$5276         pff
C:   00001FC2  A$pff\Debug\pff3a\pff$5277         pff
C:   00001FC3  A$pff\Debug\pff3a\pff$5278         pff
C:   00001FC4  A$pff\Debug\pff3a\pff$5279         pff
C:   00001FC5  A$pff\Debug\pff3a\pff$5280         pff
C:   00001FC6  A$pff\Debug\pff3a\pff$5281         pff
C:   00001FC7  A$pff\Debug\pff3a\pff$5282         pff
C:   00001FC8  A$pff\Debug\pff3a\pff$5283         pff
C:   00001FCA  A$pff\Debug\pff3a\pff$5284         pff
C:   00001FCC  A$pff\Debug\pff3a\pff$5285         pff
C:   00001FCD  A$pff\Debug\pff3a\pff$5286         pff
C:   00001FCE  A$pff\Debug\pff3a\pff$5287         pff
C:   00001FD0  A$pff\Debug\pff3a\pff$5288         pff
C:   00001FD2  A$pff\Debug\pff3a\pff$5289         pff
C:   00001FD4  A$pff\Debug\pff3a\pff$5290         pff
C:   00001FD6  A$pff\Debug\pff3a\pff$5291         pff
C:   00001FD8  A$pff\Debug\pff3a\pff$5292         pff
C:   00001FDB  A$pff\Debug\pff3a\pff$5293         pff
C:   00001FDD  A$pff\Debug\pff3a\pff$5294         pff
C:   00001FDF  A$pff\Debug\pff3a\pff$5295         pff
C:   00001FE1  A$pff\Debug\pff3a\pff$5296         pff
C:   00001FE2  A$pff\Debug\pff3a\pff$5297         pff
C:   00001FE4  A$pff\Debug\pff3a\pff$5298         pff
C:   00001FE6  A$pff\Debug\pff3a\pff$5299         pff
C:   00001FE7  A$pff\Debug\pff3a\pff$5300         pff
C:   00001FE9  A$pff\Debug\pff3a\pff$5301         pff
C:   00001FEA  A$pff\Debug\pff3a\pff$5302         pff
C:   00001FEC  A$pff\Debug\pff3a\pff$5303         pff
C:   00001FED  A$pff\Debug\pff3a\pff$5304         pff
C:   00001FEF  A$pff\Debug\pff3a\pff$5305         pff
C:   00001FF0  A$pff\Debug\pff3a\pff$5306         pff
C:   00001FF3  A$pff\Debug\pff3a\pff$5307         pff
C:   00001FF4  A$pff\Debug\pff3a\pff$5308         pff
C:   00001FF5  A$pff\Debug\pff3a\pff$5309         pff
C:   00001FF8  A$pff\Debug\pff3a\pff$5310         pff
C:   00001FF9  A$pff\Debug\pff3a\pff$5311         pff
C:   00001FFA  A$pff\Debug\pff3a\pff$5312         pff
C:   00001FFD  A$pff\Debug\pff3a\pff$5313         pff
C:   00001FFE  A$pff\Debug\pff3a\pff$5314         pff
C:   00001FFF  A$pff\Debug\pff3a\pff$5315         pff
C:   00002002  A$pff\Debug\pff3a\pff$5318         pff
C:   00002002  C$pff.c$954$1_0$77                 pff
C:   00002004  A$pff\Debug\pff3a\pff$5319         pff
C:   00002006  A$pff\Debug\pff3a\pff$5320         pff
C:   00002007  A$pff\Debug\pff3a\pff$5321         pff
C:   00002009  A$pff\Debug\pff3a\pff$5322         pff
C:   0000200A  A$pff\Debug\pff3a\pff$5323         pff
C:   0000200B  A$pff\Debug\pff3a\pff$5324         pff
C:   0000200C  A$pff\Debug\pff3a\pff$5325         pff
C:   0000200D  A$pff\Debug\pff3a\pff$5326         pff
ASxxxx Linker V03.00 + NoICE + sdld,  page 124.
Hexadecimal  [32-Bits]

Area                                    Addr        Size        Decimal Bytes (Attributes)
--------------------------------        ----        ----        ------- ----- ------------
CSEG                                00000062    00003CB7 =       15543. bytes (REL,CON,CODE)

      Value  Global                              Global Defined In Module
      -----  --------------------------------   ------------------------
C:   0000200E  A$pff\Debug\pff3a\pff$5327         pff
C:   0000200F  A$pff\Debug\pff3a\pff$5328         pff
C:   00002010  A$pff\Debug\pff3a\pff$5329         pff
C:   00002012  A$pff\Debug\pff3a\pff$5330         pff
C:   00002014  A$pff\Debug\pff3a\pff$5331         pff
C:   00002016  A$pff\Debug\pff3a\pff$5332         pff
C:   00002018  A$pff\Debug\pff3a\pff$5333         pff
C:   00002019  A$pff\Debug\pff3a\pff$5334         pff
C:   0000201C  A$pff\Debug\pff3a\pff$5335         pff
C:   0000201D  A$pff\Debug\pff3a\pff$5336         pff
C:   00002020  A$pff\Debug\pff3a\pff$5337         pff
C:   00002021  A$pff\Debug\pff3a\pff$5338         pff
C:   00002024  A$pff\Debug\pff3a\pff$5339         pff
C:   00002025  A$pff\Debug\pff3a\pff$5340         pff
C:   00002028  A$pff\Debug\pff3a\pff$5343         pff
C:   00002028  C$pff.c$956$1_0$77                 pff
C:   0000202A  A$pff\Debug\pff3a\pff$5344         pff
C:   0000202C  A$pff\Debug\pff3a\pff$5345         pff
C:   0000202D  A$pff\Debug\pff3a\pff$5346         pff
C:   0000202F  A$pff\Debug\pff3a\pff$5347         pff
C:   00002030  A$pff\Debug\pff3a\pff$5348         pff
C:   00002031  A$pff\Debug\pff3a\pff$5349         pff
C:   00002032  A$pff\Debug\pff3a\pff$5350         pff
C:   00002033  A$pff\Debug\pff3a\pff$5351         pff
C:   00002034  A$pff\Debug\pff3a\pff$5352         pff
C:   00002035  A$pff\Debug\pff3a\pff$5353         pff
C:   00002036  A$pff\Debug\pff3a\pff$5354         pff
C:   00002038  A$pff\Debug\pff3a\pff$5355         pff
C:   0000203A  A$pff\Debug\pff3a\pff$5356         pff
C:   0000203C  A$pff\Debug\pff3a\pff$5357         pff
C:   0000203E  A$pff\Debug\pff3a\pff$5358         pff
C:   00002040  A$pff\Debug\pff3a\pff$5359         pff
C:   00002043  A$pff\Debug\pff3a\pff$5362         pff
C:   00002043  C$pff.c$958$1_0$77                 pff
C:   00002046  A$pff\Debug\pff3a\pff$5366         pff
C:   00002049  A$pff\Debug\pff3a\pff$5367         pff
C:   0000204B  A$pff\Debug\pff3a\pff$5370         pff
C:   0000204B  C$pff.c$959$1_0$77                 pff
C:   0000204B  XG$pf_open$0$0                     pff
C:   0000204C  A$pff\Debug\pff3a\pff$5402         pff
C:   0000204C  C$pff.c$966$1_0$82                 pff
C:   0000204C  G$pf_read$0$0                      pff
C:   0000204C  _pf_read                           pff
C:   0000204E  A$pff\Debug\pff3a\pff$5403         pff
C:   00002050  A$pff\Debug\pff3a\pff$5404         pff
C:   00002052  A$pff\Debug\pff3a\pff$5405         pff
C:   00002054  A$pff\Debug\pff3a\pff$5406         pff
C:   00002056  A$pff\Debug\pff3a\pff$5407         pff
C:   00002058  A$pff\Debug\pff3a\pff$5408         pff
C:   0000205A  A$pff\Debug\pff3a\pff$5409         pff
C:   0000205C  A$pff\Debug\pff3a\pff$5412         pff
ASxxxx Linker V03.00 + NoICE + sdld,  page 125.
Hexadecimal  [32-Bits]

Area                                    Addr        Size        Decimal Bytes (Attributes)
--------------------------------        ----        ----        ------- ----- ------------
CSEG                                00000062    00003CB7 =       15543. bytes (REL,CON,CODE)

      Value  Global                              Global Defined In Module
      -----  --------------------------------   ------------------------
C:   0000205C  C$pff.c$976$2_0$82                 pff
C:   0000205E  A$pff\Debug\pff3a\pff$5413         pff
C:   00002060  A$pff\Debug\pff3a\pff$5414         pff
C:   00002061  A$pff\Debug\pff3a\pff$5415         pff
C:   00002063  A$pff\Debug\pff3a\pff$5416         pff
C:   00002064  A$pff\Debug\pff3a\pff$5417         pff
C:   00002066  A$pff\Debug\pff3a\pff$5418         pff
C:   00002067  A$pff\Debug\pff3a\pff$5419         pff
C:   00002069  A$pff\Debug\pff3a\pff$5422         pff
C:   00002069  C$pff.c$977$2_0$82                 pff
C:   0000206C  A$pff\Debug\pff3a\pff$5423         pff
C:   0000206D  A$pff\Debug\pff3a\pff$5424         pff
C:   0000206E  A$pff\Debug\pff3a\pff$5425         pff
C:   0000206F  A$pff\Debug\pff3a\pff$5426         pff
C:   00002070  A$pff\Debug\pff3a\pff$5427         pff
C:   00002071  A$pff\Debug\pff3a\pff$5428         pff
C:   00002072  A$pff\Debug\pff3a\pff$5429         pff
C:   00002073  A$pff\Debug\pff3a\pff$5430         pff
C:   00002074  A$pff\Debug\pff3a\pff$5431         pff
C:   00002076  A$pff\Debug\pff3a\pff$5432         pff
C:   00002078  A$pff\Debug\pff3a\pff$5433         pff
C:   00002079  A$pff\Debug\pff3a\pff$5434         pff
C:   0000207B  A$pff\Debug\pff3a\pff$5435         pff
C:   0000207C  A$pff\Debug\pff3a\pff$5436         pff
C:   0000207E  A$pff\Debug\pff3a\pff$5437         pff
C:   0000207F  A$pff\Debug\pff3a\pff$5438         pff
C:   00002081  A$pff\Debug\pff3a\pff$5441         pff
C:   00002081  C$pff.c$980$1_0$82                 pff
C:   00002083  A$pff\Debug\pff3a\pff$5442         pff
C:   00002085  A$pff\Debug\pff3a\pff$5443         pff
C:   00002086  A$pff\Debug\pff3a\pff$5444         pff
C:   00002088  A$pff\Debug\pff3a\pff$5445         pff
C:   0000208A  A$pff\Debug\pff3a\pff$5446         pff
C:   0000208B  A$pff\Debug\pff3a\pff$5447         pff
C:   0000208C  A$pff\Debug\pff3a\pff$5448         pff
C:   0000208D  A$pff\Debug\pff3a\pff$5449         pff
C:   0000208E  A$pff\Debug\pff3a\pff$5450         pff
C:   0000208F  A$pff\Debug\pff3a\pff$5451         pff
C:   00002090  A$pff\Debug\pff3a\pff$5452         pff
C:   00002091  A$pff\Debug\pff3a\pff$5453         pff
C:   00002092  A$pff\Debug\pff3a\pff$5454         pff
C:   00002093  A$pff\Debug\pff3a\pff$5455         pff
C:   00002094  A$pff\Debug\pff3a\pff$5456         pff
C:   00002095  A$pff\Debug\pff3a\pff$5457         pff
C:   00002097  A$pff\Debug\pff3a\pff$5458         pff
C:   00002099  A$pff\Debug\pff3a\pff$5459         pff
C:   0000209A  A$pff\Debug\pff3a\pff$5460         pff
C:   0000209C  A$pff\Debug\pff3a\pff$5461         pff
C:   0000209D  A$pff\Debug\pff3a\pff$5462         pff
C:   0000209F  A$pff\Debug\pff3a\pff$5463         pff
C:   000020A0  A$pff\Debug\pff3a\pff$5464         pff
ASxxxx Linker V03.00 + NoICE + sdld,  page 126.
Hexadecimal  [32-Bits]

Area                                    Addr        Size        Decimal Bytes (Attributes)
--------------------------------        ----        ----        ------- ----- ------------
CSEG                                00000062    00003CB7 =       15543. bytes (REL,CON,CODE)

      Value  Global                              Global Defined In Module
      -----  --------------------------------   ------------------------
C:   000020A2  A$pff\Debug\pff3a\pff$5465         pff
C:   000020A3  A$pff\Debug\pff3a\pff$5466         pff
C:   000020A6  A$pff\Debug\pff3a\pff$5467         pff
C:   000020A7  A$pff\Debug\pff3a\pff$5468         pff
C:   000020AA  A$pff\Debug\pff3a\pff$5471         pff
C:   000020AA  C$pff.c$981$1_0$82                 pff
C:   000020AC  A$pff\Debug\pff3a\pff$5472         pff
C:   000020AE  A$pff\Debug\pff3a\pff$5473         pff
C:   000020AF  A$pff\Debug\pff3a\pff$5474         pff
C:   000020B0  A$pff\Debug\pff3a\pff$5475         pff
C:   000020B1  A$pff\Debug\pff3a\pff$5476         pff
C:   000020B2  A$pff\Debug\pff3a\pff$5477         pff
C:   000020B4  A$pff\Debug\pff3a\pff$5478         pff
C:   000020B7  A$pff\Debug\pff3a\pff$5479         pff
C:   000020BA  A$pff\Debug\pff3a\pff$5483         pff
C:   000020BA  C$pff.c$982$1_0$82                 pff
C:   000020BC  A$pff\Debug\pff3a\pff$5484         pff
C:   000020BE  A$pff\Debug\pff3a\pff$5485         pff
C:   000020BF  A$pff\Debug\pff3a\pff$5486         pff
C:   000020C1  A$pff\Debug\pff3a\pff$5487         pff
C:   000020C3  A$pff\Debug\pff3a\pff$5488         pff
C:   000020C4  A$pff\Debug\pff3a\pff$5489         pff
C:   000020C6  A$pff\Debug\pff3a\pff$5490         pff
C:   000020C7  A$pff\Debug\pff3a\pff$5491         pff
C:   000020C8  A$pff\Debug\pff3a\pff$5492         pff
C:   000020C9  A$pff\Debug\pff3a\pff$5493         pff
C:   000020CA  A$pff\Debug\pff3a\pff$5494         pff
C:   000020CB  A$pff\Debug\pff3a\pff$5495         pff
C:   000020CC  A$pff\Debug\pff3a\pff$5496         pff
C:   000020CD  A$pff\Debug\pff3a\pff$5497         pff
C:   000020CE  A$pff\Debug\pff3a\pff$5498         pff
C:   000020CF  A$pff\Debug\pff3a\pff$5499         pff
C:   000020D0  A$pff\Debug\pff3a\pff$5500         pff
C:   000020D1  A$pff\Debug\pff3a\pff$5501         pff
C:   000020D3  A$pff\Debug\pff3a\pff$5502         pff
C:   000020D5  A$pff\Debug\pff3a\pff$5503         pff
C:   000020D6  A$pff\Debug\pff3a\pff$5504         pff
C:   000020D8  A$pff\Debug\pff3a\pff$5505         pff
C:   000020D9  A$pff\Debug\pff3a\pff$5506         pff
C:   000020DB  A$pff\Debug\pff3a\pff$5507         pff
C:   000020DC  A$pff\Debug\pff3a\pff$5508         pff
C:   000020DE  A$pff\Debug\pff3a\pff$5509         pff
C:   000020E1  A$pff\Debug\pff3a\pff$5510         pff
C:   000020E2  A$pff\Debug\pff3a\pff$5511         pff
C:   000020E5  A$pff\Debug\pff3a\pff$5512         pff
C:   000020E8  A$pff\Debug\pff3a\pff$5513         pff
C:   000020EB  A$pff\Debug\pff3a\pff$5517         pff
C:   000020EB  C$pff.c$984$1_0$82                 pff
C:   000020ED  A$pff\Debug\pff3a\pff$5518         pff
C:   000020EF  A$pff\Debug\pff3a\pff$5519         pff
C:   000020F0  A$pff\Debug\pff3a\pff$5520         pff
ASxxxx Linker V03.00 + NoICE + sdld,  page 127.
Hexadecimal  [32-Bits]

Area                                    Addr        Size        Decimal Bytes (Attributes)
--------------------------------        ----        ----        ------- ----- ------------
CSEG                                00000062    00003CB7 =       15543. bytes (REL,CON,CODE)

      Value  Global                              Global Defined In Module
      -----  --------------------------------   ------------------------
C:   000020F2  A$pff\Debug\pff3a\pff$5521         pff
C:   000020F3  A$pff\Debug\pff3a\pff$5522         pff
C:   000020F4  A$pff\Debug\pff3a\pff$5523         pff
C:   000020F5  A$pff\Debug\pff3a\pff$5524         pff
C:   000020F6  A$pff\Debug\pff3a\pff$5525         pff
C:   000020F7  A$pff\Debug\pff3a\pff$5526         pff
C:   000020F8  A$pff\Debug\pff3a\pff$5527         pff
C:   000020F9  A$pff\Debug\pff3a\pff$5528         pff
C:   000020FB  A$pff\Debug\pff3a\pff$5529         pff
C:   000020FD  A$pff\Debug\pff3a\pff$5530         pff
C:   000020FF  A$pff\Debug\pff3a\pff$5531         pff
C:   00002101  A$pff\Debug\pff3a\pff$5532         pff
C:   00002103  A$pff\Debug\pff3a\pff$5533         pff
C:   00002105  A$pff\Debug\pff3a\pff$5534         pff
C:   00002106  A$pff\Debug\pff3a\pff$5535         pff
C:   00002109  A$pff\Debug\pff3a\pff$5536         pff
C:   0000210A  A$pff\Debug\pff3a\pff$5537         pff
C:   0000210B  A$pff\Debug\pff3a\pff$5538         pff
C:   0000210E  A$pff\Debug\pff3a\pff$5539         pff
C:   0000210F  A$pff\Debug\pff3a\pff$5540         pff
C:   00002110  A$pff\Debug\pff3a\pff$5541         pff
C:   00002111  A$pff\Debug\pff3a\pff$5542         pff
C:   00002114  A$pff\Debug\pff3a\pff$5543         pff
C:   00002115  A$pff\Debug\pff3a\pff$5544         pff
C:   00002116  A$pff\Debug\pff3a\pff$5545         pff
C:   00002117  A$pff\Debug\pff3a\pff$5546         pff
C:   0000211A  A$pff\Debug\pff3a\pff$5547         pff
C:   0000211B  A$pff\Debug\pff3a\pff$5548         pff
C:   0000211C  A$pff\Debug\pff3a\pff$5549         pff
C:   0000211E  A$pff\Debug\pff3a\pff$5550         pff
C:   00002120  A$pff\Debug\pff3a\pff$5551         pff
C:   00002121  A$pff\Debug\pff3a\pff$5552         pff
C:   00002123  A$pff\Debug\pff3a\pff$5553         pff
C:   00002124  A$pff\Debug\pff3a\pff$5554         pff
C:   00002126  A$pff\Debug\pff3a\pff$5555         pff
C:   00002127  A$pff\Debug\pff3a\pff$5556         pff
C:   00002128  A$pff\Debug\pff3a\pff$5557         pff
C:   00002129  A$pff\Debug\pff3a\pff$5558         pff
C:   0000212A  A$pff\Debug\pff3a\pff$5559         pff
C:   0000212B  A$pff\Debug\pff3a\pff$5560         pff
C:   0000212C  A$pff\Debug\pff3a\pff$5561         pff
C:   0000212D  A$pff\Debug\pff3a\pff$5562         pff
C:   0000212E  A$pff\Debug\pff3a\pff$5563         pff
C:   0000212F  A$pff\Debug\pff3a\pff$5564         pff
C:   00002130  A$pff\Debug\pff3a\pff$5565         pff
C:   00002131  A$pff\Debug\pff3a\pff$5566         pff
C:   00002133  A$pff\Debug\pff3a\pff$5567         pff
C:   00002134  A$pff\Debug\pff3a\pff$5568         pff
C:   00002136  A$pff\Debug\pff3a\pff$5569         pff
C:   00002137  A$pff\Debug\pff3a\pff$5570         pff
C:   00002139  A$pff\Debug\pff3a\pff$5571         pff
ASxxxx Linker V03.00 + NoICE + sdld,  page 128.
Hexadecimal  [32-Bits]

Area                                    Addr        Size        Decimal Bytes (Attributes)
--------------------------------        ----        ----        ------- ----- ------------
CSEG                                00000062    00003CB7 =       15543. bytes (REL,CON,CODE)

      Value  Global                              Global Defined In Module
      -----  --------------------------------   ------------------------
C:   0000213A  A$pff\Debug\pff3a\pff$5572         pff
C:   0000213C  A$pff\Debug\pff3a\pff$5573         pff
C:   0000213F  A$pff\Debug\pff3a\pff$5574         pff
C:   00002140  A$pff\Debug\pff3a\pff$5575         pff
C:   00002141  A$pff\Debug\pff3a\pff$5576         pff
C:   00002144  A$pff\Debug\pff3a\pff$5577         pff
C:   00002145  A$pff\Debug\pff3a\pff$5578         pff
C:   00002146  A$pff\Debug\pff3a\pff$5579         pff
C:   00002149  A$pff\Debug\pff3a\pff$5580         pff
C:   0000214A  A$pff\Debug\pff3a\pff$5581         pff
C:   0000214B  A$pff\Debug\pff3a\pff$5582         pff
C:   0000214E  A$pff\Debug\pff3a\pff$5583         pff
C:   0000214F  A$pff\Debug\pff3a\pff$5584         pff
C:   00002151  A$pff\Debug\pff3a\pff$5585         pff
C:   00002153  A$pff\Debug\pff3a\pff$5586         pff
C:   00002154  A$pff\Debug\pff3a\pff$5587         pff
C:   00002155  A$pff\Debug\pff3a\pff$5588         pff
C:   00002156  A$pff\Debug\pff3a\pff$5589         pff
C:   00002157  A$pff\Debug\pff3a\pff$5590         pff
C:   00002158  A$pff\Debug\pff3a\pff$5591         pff
C:   00002159  A$pff\Debug\pff3a\pff$5592         pff
C:   0000215A  A$pff\Debug\pff3a\pff$5593         pff
C:   0000215B  A$pff\Debug\pff3a\pff$5594         pff
C:   0000215C  A$pff\Debug\pff3a\pff$5595         pff
C:   0000215D  A$pff\Debug\pff3a\pff$5596         pff
C:   0000215E  A$pff\Debug\pff3a\pff$5597         pff
C:   0000215F  A$pff\Debug\pff3a\pff$5598         pff
C:   00002160  A$pff\Debug\pff3a\pff$5599         pff
C:   00002161  A$pff\Debug\pff3a\pff$5600         pff
C:   00002162  A$pff\Debug\pff3a\pff$5601         pff
C:   00002163  A$pff\Debug\pff3a\pff$5602         pff
C:   00002164  A$pff\Debug\pff3a\pff$5603         pff
C:   00002166  A$pff\Debug\pff3a\pff$5604         pff
C:   00002168  A$pff\Debug\pff3a\pff$5605         pff
C:   00002169  A$pff\Debug\pff3a\pff$5606         pff
C:   0000216B  A$pff\Debug\pff3a\pff$5607         pff
C:   0000216C  A$pff\Debug\pff3a\pff$5608         pff
C:   0000216E  A$pff\Debug\pff3a\pff$5609         pff
C:   0000216F  A$pff\Debug\pff3a\pff$5610         pff
C:   00002171  A$pff\Debug\pff3a\pff$5611         pff
C:   00002172  A$pff\Debug\pff3a\pff$5612         pff
C:   00002174  A$pff\Debug\pff3a\pff$5615         pff
C:   00002174  C$pff.c$985$1_0$82                 pff
C:   00002176  A$pff\Debug\pff3a\pff$5616         pff
C:   00002178  A$pff\Debug\pff3a\pff$5617         pff
C:   00002179  A$pff\Debug\pff3a\pff$5618         pff
C:   0000217B  A$pff\Debug\pff3a\pff$5619         pff
C:   0000217C  A$pff\Debug\pff3a\pff$5620         pff
C:   0000217E  A$pff\Debug\pff3a\pff$5621         pff
C:   0000217F  A$pff\Debug\pff3a\pff$5622         pff
C:   00002180  A$pff\Debug\pff3a\pff$5623         pff
ASxxxx Linker V03.00 + NoICE + sdld,  page 129.
Hexadecimal  [32-Bits]

Area                                    Addr        Size        Decimal Bytes (Attributes)
--------------------------------        ----        ----        ------- ----- ------------
CSEG                                00000062    00003CB7 =       15543. bytes (REL,CON,CODE)

      Value  Global                              Global Defined In Module
      -----  --------------------------------   ------------------------
C:   00002181  A$pff\Debug\pff3a\pff$5624         pff
C:   00002183  A$pff\Debug\pff3a\pff$5625         pff
C:   00002185  A$pff\Debug\pff3a\pff$5626         pff
C:   00002186  A$pff\Debug\pff3a\pff$5627         pff
C:   00002187  A$pff\Debug\pff3a\pff$5628         pff
C:   00002188  A$pff\Debug\pff3a\pff$5629         pff
C:   00002189  A$pff\Debug\pff3a\pff$5630         pff
C:   0000218A  A$pff\Debug\pff3a\pff$5631         pff
C:   0000218B  A$pff\Debug\pff3a\pff$5632         pff
C:   0000218C  A$pff\Debug\pff3a\pff$5633         pff
C:   0000218D  A$pff\Debug\pff3a\pff$5634         pff
C:   0000218E  A$pff\Debug\pff3a\pff$5635         pff
C:   0000218F  A$pff\Debug\pff3a\pff$5636         pff
C:   00002190  A$pff\Debug\pff3a\pff$5637         pff
C:   00002191  A$pff\Debug\pff3a\pff$5638         pff
C:   00002192  A$pff\Debug\pff3a\pff$5639         pff
C:   00002194  A$pff\Debug\pff3a\pff$5640         pff
C:   00002196  A$pff\Debug\pff3a\pff$5641         pff
C:   00002198  A$pff\Debug\pff3a\pff$5642         pff
C:   00002199  A$pff\Debug\pff3a\pff$5643         pff
C:   0000219B  A$pff\Debug\pff3a\pff$5644         pff
C:   0000219D  A$pff\Debug\pff3a\pff$5645         pff
C:   0000219E  A$pff\Debug\pff3a\pff$5646         pff
C:   0000219F  A$pff\Debug\pff3a\pff$5647         pff
C:   000021A0  A$pff\Debug\pff3a\pff$5648         pff
C:   000021A1  A$pff\Debug\pff3a\pff$5649         pff
C:   000021A2  A$pff\Debug\pff3a\pff$5650         pff
C:   000021A3  A$pff\Debug\pff3a\pff$5651         pff
C:   000021A4  A$pff\Debug\pff3a\pff$5655         pff
C:   000021A4  C$pff.c$987$1_0$82                 pff
C:   000021A6  A$pff\Debug\pff3a\pff$5656         pff
C:   000021A8  A$pff\Debug\pff3a\pff$5657         pff
C:   000021A9  A$pff\Debug\pff3a\pff$5658         pff
C:   000021AB  A$pff\Debug\pff3a\pff$5659         pff
C:   000021AD  A$pff\Debug\pff3a\pff$5660         pff
C:   000021AE  A$pff\Debug\pff3a\pff$5661         pff
C:   000021B0  A$pff\Debug\pff3a\pff$5662         pff
C:   000021B1  A$pff\Debug\pff3a\pff$5663         pff
C:   000021B2  A$pff\Debug\pff3a\pff$5664         pff
C:   000021B3  A$pff\Debug\pff3a\pff$5665         pff
C:   000021B4  A$pff\Debug\pff3a\pff$5666         pff
C:   000021B5  A$pff\Debug\pff3a\pff$5667         pff
C:   000021B6  A$pff\Debug\pff3a\pff$5668         pff
C:   000021B7  A$pff\Debug\pff3a\pff$5669         pff
C:   000021B8  A$pff\Debug\pff3a\pff$5670         pff
C:   000021B9  A$pff\Debug\pff3a\pff$5671         pff
C:   000021BA  A$pff\Debug\pff3a\pff$5672         pff
C:   000021BB  A$pff\Debug\pff3a\pff$5673         pff
C:   000021BD  A$pff\Debug\pff3a\pff$5674         pff
C:   000021BF  A$pff\Debug\pff3a\pff$5675         pff
C:   000021C0  A$pff\Debug\pff3a\pff$5676         pff
ASxxxx Linker V03.00 + NoICE + sdld,  page 130.
Hexadecimal  [32-Bits]

Area                                    Addr        Size        Decimal Bytes (Attributes)
--------------------------------        ----        ----        ------- ----- ------------
CSEG                                00000062    00003CB7 =       15543. bytes (REL,CON,CODE)

      Value  Global                              Global Defined In Module
      -----  --------------------------------   ------------------------
C:   000021C2  A$pff\Debug\pff3a\pff$5677         pff
C:   000021C4  A$pff\Debug\pff3a\pff$5678         pff
C:   000021C5  A$pff\Debug\pff3a\pff$5679         pff
C:   000021C7  A$pff\Debug\pff3a\pff$5680         pff
C:   000021C8  A$pff\Debug\pff3a\pff$5681         pff
C:   000021C9  A$pff\Debug\pff3a\pff$5682         pff
C:   000021CA  A$pff\Debug\pff3a\pff$5683         pff
C:   000021CB  A$pff\Debug\pff3a\pff$5684         pff
C:   000021CC  A$pff\Debug\pff3a\pff$5685         pff
C:   000021CD  A$pff\Debug\pff3a\pff$5686         pff
C:   000021CE  A$pff\Debug\pff3a\pff$5687         pff
C:   000021CF  A$pff\Debug\pff3a\pff$5688         pff
C:   000021D0  A$pff\Debug\pff3a\pff$5689         pff
C:   000021D1  A$pff\Debug\pff3a\pff$5690         pff
C:   000021D2  A$pff\Debug\pff3a\pff$5691         pff
C:   000021D4  A$pff\Debug\pff3a\pff$5692         pff
C:   000021D6  A$pff\Debug\pff3a\pff$5693         pff
C:   000021D7  A$pff\Debug\pff3a\pff$5694         pff
C:   000021D9  A$pff\Debug\pff3a\pff$5695         pff
C:   000021DB  A$pff\Debug\pff3a\pff$5696         pff
C:   000021DC  A$pff\Debug\pff3a\pff$5697         pff
C:   000021DE  A$pff\Debug\pff3a\pff$5698         pff
C:   000021DF  A$pff\Debug\pff3a\pff$5699         pff
C:   000021E0  A$pff\Debug\pff3a\pff$5700         pff
C:   000021E1  A$pff\Debug\pff3a\pff$5701         pff
C:   000021E2  A$pff\Debug\pff3a\pff$5702         pff
C:   000021E3  A$pff\Debug\pff3a\pff$5703         pff
C:   000021E4  A$pff\Debug\pff3a\pff$5704         pff
C:   000021E5  A$pff\Debug\pff3a\pff$5705         pff
C:   000021E6  A$pff\Debug\pff3a\pff$5706         pff
C:   000021E7  A$pff\Debug\pff3a\pff$5707         pff
C:   000021E8  A$pff\Debug\pff3a\pff$5708         pff
C:   000021E9  A$pff\Debug\pff3a\pff$5709         pff
C:   000021EB  A$pff\Debug\pff3a\pff$5710         pff
C:   000021ED  A$pff\Debug\pff3a\pff$5711         pff
C:   000021EE  A$pff\Debug\pff3a\pff$5712         pff
C:   000021F0  A$pff\Debug\pff3a\pff$5713         pff
C:   000021F2  A$pff\Debug\pff3a\pff$5714         pff
C:   000021F3  A$pff\Debug\pff3a\pff$5715         pff
C:   000021F5  A$pff\Debug\pff3a\pff$5716         pff
C:   000021F6  A$pff\Debug\pff3a\pff$5717         pff
C:   000021F7  A$pff\Debug\pff3a\pff$5718         pff
C:   000021F8  A$pff\Debug\pff3a\pff$5719         pff
C:   000021F9  A$pff\Debug\pff3a\pff$5720         pff
C:   000021FA  A$pff\Debug\pff3a\pff$5721         pff
C:   000021FB  A$pff\Debug\pff3a\pff$5722         pff
C:   000021FC  A$pff\Debug\pff3a\pff$5723         pff
C:   000021FD  A$pff\Debug\pff3a\pff$5724         pff
C:   000021FE  A$pff\Debug\pff3a\pff$5725         pff
C:   000021FF  A$pff\Debug\pff3a\pff$5726         pff
C:   00002200  A$pff\Debug\pff3a\pff$5728         pff
ASxxxx Linker V03.00 + NoICE + sdld,  page 131.
Hexadecimal  [32-Bits]

Area                                    Addr        Size        Decimal Bytes (Attributes)
--------------------------------        ----        ----        ------- ----- ------------
CSEG                                00000062    00003CB7 =       15543. bytes (REL,CON,CODE)

      Value  Global                              Global Defined In Module
      -----  --------------------------------   ------------------------
C:   00002202  A$pff\Debug\pff3a\pff$5729         pff
C:   00002204  A$pff\Debug\pff3a\pff$5730         pff
C:   00002205  A$pff\Debug\pff3a\pff$5731         pff
C:   00002206  A$pff\Debug\pff3a\pff$5732         pff
C:   00002207  A$pff\Debug\pff3a\pff$5733         pff
C:   00002208  A$pff\Debug\pff3a\pff$5734         pff
C:   0000220A  A$pff\Debug\pff3a\pff$5735         pff
C:   0000220D  A$pff\Debug\pff3a\pff$5739         pff
C:   0000220D  C$pff.c$988$2_0$83                 pff
C:   0000220F  A$pff\Debug\pff3a\pff$5740         pff
C:   00002210  A$pff\Debug\pff3a\pff$5741         pff
C:   00002212  A$pff\Debug\pff3a\pff$5742         pff
C:   00002213  A$pff\Debug\pff3a\pff$5743         pff
C:   00002215  A$pff\Debug\pff3a\pff$5744         pff
C:   00002216  A$pff\Debug\pff3a\pff$5745         pff
C:   00002218  A$pff\Debug\pff3a\pff$5746         pff
C:   0000221A  A$pff\Debug\pff3a\pff$5747         pff
C:   0000221C  A$pff\Debug\pff3a\pff$5748         pff
C:   0000221D  A$pff\Debug\pff3a\pff$5749         pff
C:   00002220  A$pff\Debug\pff3a\pff$5750         pff
C:   00002221  A$pff\Debug\pff3a\pff$5751         pff
C:   00002222  A$pff\Debug\pff3a\pff$5752         pff
C:   00002225  A$pff\Debug\pff3a\pff$5753         pff
C:   00002226  A$pff\Debug\pff3a\pff$5754         pff
C:   00002227  A$pff\Debug\pff3a\pff$5755         pff
C:   00002228  A$pff\Debug\pff3a\pff$5756         pff
C:   0000222B  A$pff\Debug\pff3a\pff$5757         pff
C:   0000222C  A$pff\Debug\pff3a\pff$5758         pff
C:   0000222D  A$pff\Debug\pff3a\pff$5759         pff
C:   0000222E  A$pff\Debug\pff3a\pff$5760         pff
C:   00002231  A$pff\Debug\pff3a\pff$5761         pff
C:   00002232  A$pff\Debug\pff3a\pff$5762         pff
C:   00002233  A$pff\Debug\pff3a\pff$5763         pff
C:   00002235  A$pff\Debug\pff3a\pff$5764         pff
C:   00002237  A$pff\Debug\pff3a\pff$5765         pff
C:   00002238  A$pff\Debug\pff3a\pff$5766         pff
C:   00002239  A$pff\Debug\pff3a\pff$5767         pff
C:   0000223B  A$pff\Debug\pff3a\pff$5768         pff
C:   0000223C  A$pff\Debug\pff3a\pff$5769         pff
C:   0000223D  A$pff\Debug\pff3a\pff$5770         pff
C:   00002240  A$pff\Debug\pff3a\pff$5772         pff
C:   00002243  A$pff\Debug\pff3a\pff$5776         pff
C:   00002243  C$pff.c$989$1_0$82                 pff
C:   00002245  A$pff\Debug\pff3a\pff$5777         pff
C:   00002247  A$pff\Debug\pff3a\pff$5778         pff
C:   00002248  A$pff\Debug\pff3a\pff$5779         pff
C:   00002249  A$pff\Debug\pff3a\pff$5780         pff
C:   0000224A  A$pff\Debug\pff3a\pff$5781         pff
C:   0000224B  A$pff\Debug\pff3a\pff$5782         pff
C:   0000224C  A$pff\Debug\pff3a\pff$5783         pff
C:   0000224E  A$pff\Debug\pff3a\pff$5784         pff
ASxxxx Linker V03.00 + NoICE + sdld,  page 132.
Hexadecimal  [32-Bits]

Area                                    Addr        Size        Decimal Bytes (Attributes)
--------------------------------        ----        ----        ------- ----- ------------
CSEG                                00000062    00003CB7 =       15543. bytes (REL,CON,CODE)

      Value  Global                              Global Defined In Module
      -----  --------------------------------   ------------------------
C:   0000224F  A$pff\Debug\pff3a\pff$5785         pff
C:   00002250  A$pff\Debug\pff3a\pff$5786         pff
C:   00002251  A$pff\Debug\pff3a\pff$5787         pff
C:   00002252  A$pff\Debug\pff3a\pff$5788         pff
C:   00002253  A$pff\Debug\pff3a\pff$5789         pff
C:   00002254  A$pff\Debug\pff3a\pff$5790         pff
C:   00002255  A$pff\Debug\pff3a\pff$5791         pff
C:   00002256  A$pff\Debug\pff3a\pff$5792         pff
C:   00002257  A$pff\Debug\pff3a\pff$5793         pff
C:   00002258  A$pff\Debug\pff3a\pff$5794         pff
C:   0000225A  A$pff\Debug\pff3a\pff$5795         pff
C:   0000225C  A$pff\Debug\pff3a\pff$5796         pff
C:   0000225D  A$pff\Debug\pff3a\pff$5797         pff
C:   0000225F  A$pff\Debug\pff3a\pff$5798         pff
C:   00002260  A$pff\Debug\pff3a\pff$5799         pff
C:   00002262  A$pff\Debug\pff3a\pff$5800         pff
C:   00002263  A$pff\Debug\pff3a\pff$5801         pff
C:   00002265  A$pff\Debug\pff3a\pff$5802         pff
C:   00002268  A$pff\Debug\pff3a\pff$5803         pff
C:   00002269  A$pff\Debug\pff3a\pff$5804         pff
C:   0000226A  A$pff\Debug\pff3a\pff$5805         pff
C:   0000226B  A$pff\Debug\pff3a\pff$5806         pff
C:   0000226D  A$pff\Debug\pff3a\pff$5809         pff
C:   0000226D  C$pff.c$990$1_0$82                 pff
C:   0000226E  A$pff\Debug\pff3a\pff$5810         pff
C:   0000226F  A$pff\Debug\pff3a\pff$5811         pff
C:   00002271  A$pff\Debug\pff3a\pff$5812         pff
C:   00002274  A$pff\Debug\pff3a\pff$5816         pff
C:   00002274  C$pff.c$991$4_0$85                 pff
C:   00002276  A$pff\Debug\pff3a\pff$5817         pff
C:   00002278  A$pff\Debug\pff3a\pff$5818         pff
C:   00002279  A$pff\Debug\pff3a\pff$5819         pff
C:   0000227A  A$pff\Debug\pff3a\pff$5820         pff
C:   0000227B  A$pff\Debug\pff3a\pff$5821         pff
C:   0000227C  A$pff\Debug\pff3a\pff$5822         pff
C:   0000227D  A$pff\Debug\pff3a\pff$5823         pff
C:   0000227E  A$pff\Debug\pff3a\pff$5824         pff
C:   0000227F  A$pff\Debug\pff3a\pff$5825         pff
C:   00002280  A$pff\Debug\pff3a\pff$5826         pff
C:   00002282  A$pff\Debug\pff3a\pff$5829         pff
C:   00002282  C$pff.c$992$5_0$86                 pff
C:   00002284  A$pff\Debug\pff3a\pff$5830         pff
C:   00002286  A$pff\Debug\pff3a\pff$5831         pff
C:   00002287  A$pff\Debug\pff3a\pff$5832         pff
C:   00002289  A$pff\Debug\pff3a\pff$5833         pff
C:   0000228A  A$pff\Debug\pff3a\pff$5834         pff
C:   0000228C  A$pff\Debug\pff3a\pff$5835         pff
C:   0000228D  A$pff\Debug\pff3a\pff$5836         pff
C:   0000228F  A$pff\Debug\pff3a\pff$5837         pff
C:   00002291  A$pff\Debug\pff3a\pff$5838         pff
C:   00002293  A$pff\Debug\pff3a\pff$5839         pff
ASxxxx Linker V03.00 + NoICE + sdld,  page 133.
Hexadecimal  [32-Bits]

Area                                    Addr        Size        Decimal Bytes (Attributes)
--------------------------------        ----        ----        ------- ----- ------------
CSEG                                00000062    00003CB7 =       15543. bytes (REL,CON,CODE)

      Value  Global                              Global Defined In Module
      -----  --------------------------------   ------------------------
C:   00002294  A$pff\Debug\pff3a\pff$5840         pff
C:   00002297  A$pff\Debug\pff3a\pff$5841         pff
C:   00002298  A$pff\Debug\pff3a\pff$5842         pff
C:   00002299  A$pff\Debug\pff3a\pff$5843         pff
C:   0000229C  A$pff\Debug\pff3a\pff$5844         pff
C:   0000229D  A$pff\Debug\pff3a\pff$5845         pff
C:   0000229E  A$pff\Debug\pff3a\pff$5846         pff
C:   0000229F  A$pff\Debug\pff3a\pff$5847         pff
C:   000022A2  A$pff\Debug\pff3a\pff$5848         pff
C:   000022A3  A$pff\Debug\pff3a\pff$5849         pff
C:   000022A4  A$pff\Debug\pff3a\pff$5850         pff
C:   000022A5  A$pff\Debug\pff3a\pff$5851         pff
C:   000022A8  A$pff\Debug\pff3a\pff$5852         pff
C:   000022A9  A$pff\Debug\pff3a\pff$5853         pff
C:   000022AA  A$pff\Debug\pff3a\pff$5854         pff
C:   000022AC  A$pff\Debug\pff3a\pff$5858         pff
C:   000022AC  C$pff.c$994$1_0$82                 pff
C:   000022AE  A$pff\Debug\pff3a\pff$5859         pff
C:   000022B0  A$pff\Debug\pff3a\pff$5860         pff
C:   000022B1  A$pff\Debug\pff3a\pff$5861         pff
C:   000022B3  A$pff\Debug\pff3a\pff$5862         pff
C:   000022B4  A$pff\Debug\pff3a\pff$5863         pff
C:   000022B6  A$pff\Debug\pff3a\pff$5864         pff
C:   000022B7  A$pff\Debug\pff3a\pff$5865         pff
C:   000022B9  A$pff\Debug\pff3a\pff$5866         pff
C:   000022BC  A$pff\Debug\pff3a\pff$5867         pff
C:   000022BD  A$pff\Debug\pff3a\pff$5868         pff
C:   000022BE  A$pff\Debug\pff3a\pff$5869         pff
C:   000022C1  A$pff\Debug\pff3a\pff$5870         pff
C:   000022C2  A$pff\Debug\pff3a\pff$5871         pff
C:   000022C3  A$pff\Debug\pff3a\pff$5872         pff
C:   000022C6  A$pff\Debug\pff3a\pff$5873         pff
C:   000022C7  A$pff\Debug\pff3a\pff$5874         pff
C:   000022C8  A$pff\Debug\pff3a\pff$5875         pff
C:   000022CB  A$pff\Debug\pff3a\pff$5876         pff
C:   000022CD  A$pff\Debug\pff3a\pff$5877         pff
C:   000022CF  A$pff\Debug\pff3a\pff$5878         pff
C:   000022D1  A$pff\Debug\pff3a\pff$5879         pff
C:   000022D3  A$pff\Debug\pff3a\pff$5880         pff
C:   000022D6  A$pff\Debug\pff3a\pff$5881         pff
C:   000022D8  A$pff\Debug\pff3a\pff$5882         pff
C:   000022DA  A$pff\Debug\pff3a\pff$5883         pff
C:   000022DC  A$pff\Debug\pff3a\pff$5884         pff
C:   000022DD  A$pff\Debug\pff3a\pff$5885         pff
C:   000022DF  A$pff\Debug\pff3a\pff$5886         pff
C:   000022E1  A$pff\Debug\pff3a\pff$5887         pff
C:   000022E3  A$pff\Debug\pff3a\pff$5888         pff
C:   000022E4  A$pff\Debug\pff3a\pff$5889         pff
C:   000022E6  A$pff\Debug\pff3a\pff$5890         pff
C:   000022E7  A$pff\Debug\pff3a\pff$5891         pff
C:   000022E9  A$pff\Debug\pff3a\pff$5892         pff
ASxxxx Linker V03.00 + NoICE + sdld,  page 134.
Hexadecimal  [32-Bits]

Area                                    Addr        Size        Decimal Bytes (Attributes)
--------------------------------        ----        ----        ------- ----- ------------
CSEG                                00000062    00003CB7 =       15543. bytes (REL,CON,CODE)

      Value  Global                              Global Defined In Module
      -----  --------------------------------   ------------------------
C:   000022EA  A$pff\Debug\pff3a\pff$5893         pff
C:   000022EC  A$pff\Debug\pff3a\pff$5894         pff
C:   000022ED  A$pff\Debug\pff3a\pff$5895         pff
C:   000022EF  A$pff\Debug\pff3a\pff$5903         pff
C:   000022EF  C$pff.c$994$4_0$85                 pff
C:   000022EF  C$pff.c$996$4_0$85                 pff
C:   000022F1  A$pff\Debug\pff3a\pff$5904         pff
C:   000022F3  A$pff\Debug\pff3a\pff$5905         pff
C:   000022F4  A$pff\Debug\pff3a\pff$5906         pff
C:   000022F5  A$pff\Debug\pff3a\pff$5907         pff
C:   000022F7  A$pff\Debug\pff3a\pff$5908         pff
C:   000022F8  A$pff\Debug\pff3a\pff$5909         pff
C:   000022F9  A$pff\Debug\pff3a\pff$5910         pff
C:   000022FA  A$pff\Debug\pff3a\pff$5911         pff
C:   000022FB  A$pff\Debug\pff3a\pff$5912         pff
C:   000022FC  A$pff\Debug\pff3a\pff$5913         pff
C:   000022FD  A$pff\Debug\pff3a\pff$5914         pff
C:   000022FE  A$pff\Debug\pff3a\pff$5915         pff
C:   000022FF  A$pff\Debug\pff3a\pff$5916         pff
C:   00002300  A$pff\Debug\pff3a\pff$5917         pff
C:   00002301  A$pff\Debug\pff3a\pff$5918         pff
C:   00002303  A$pff\Debug\pff3a\pff$5919         pff
C:   00002305  A$pff\Debug\pff3a\pff$5920         pff
C:   00002307  A$pff\Debug\pff3a\pff$5921         pff
C:   00002308  A$pff\Debug\pff3a\pff$5922         pff
C:   0000230A  A$pff\Debug\pff3a\pff$5923         pff
C:   0000230B  A$pff\Debug\pff3a\pff$5924         pff
C:   0000230D  A$pff\Debug\pff3a\pff$5925         pff
C:   0000230E  A$pff\Debug\pff3a\pff$5926         pff
C:   00002310  A$pff\Debug\pff3a\pff$5927         pff
C:   00002311  A$pff\Debug\pff3a\pff$5928         pff
C:   00002314  A$pff\Debug\pff3a\pff$5929         pff
C:   00002317  A$pff\Debug\pff3a\pff$5930         pff
C:   0000231A  A$pff\Debug\pff3a\pff$5934         pff
C:   0000231A  C$pff.c$997$4_0$85                 pff
C:   0000231C  A$pff\Debug\pff3a\pff$5935         pff
C:   0000231E  A$pff\Debug\pff3a\pff$5936         pff
C:   0000231F  A$pff\Debug\pff3a\pff$5937         pff
C:   00002321  A$pff\Debug\pff3a\pff$5938         pff
C:   00002322  A$pff\Debug\pff3a\pff$5939         pff
C:   00002324  A$pff\Debug\pff3a\pff$5940         pff
C:   00002325  A$pff\Debug\pff3a\pff$5941         pff
C:   00002327  A$pff\Debug\pff3a\pff$5942         pff
C:   00002329  A$pff\Debug\pff3a\pff$5943         pff
C:   0000232B  A$pff\Debug\pff3a\pff$5944         pff
C:   0000232C  A$pff\Debug\pff3a\pff$5945         pff
C:   0000232D  A$pff\Debug\pff3a\pff$5946         pff
C:   00002330  A$pff\Debug\pff3a\pff$5947         pff
C:   00002331  A$pff\Debug\pff3a\pff$5948         pff
C:   00002332  A$pff\Debug\pff3a\pff$5949         pff
C:   00002333  A$pff\Debug\pff3a\pff$5950         pff
ASxxxx Linker V03.00 + NoICE + sdld,  page 135.
Hexadecimal  [32-Bits]

Area                                    Addr        Size        Decimal Bytes (Attributes)
--------------------------------        ----        ----        ------- ----- ------------
CSEG                                00000062    00003CB7 =       15543. bytes (REL,CON,CODE)

      Value  Global                              Global Defined In Module
      -----  --------------------------------   ------------------------
C:   00002336  A$pff\Debug\pff3a\pff$5951         pff
C:   00002337  A$pff\Debug\pff3a\pff$5952         pff
C:   00002338  A$pff\Debug\pff3a\pff$5953         pff
C:   00002339  A$pff\Debug\pff3a\pff$5954         pff
C:   0000233C  A$pff\Debug\pff3a\pff$5955         pff
C:   0000233D  A$pff\Debug\pff3a\pff$5956         pff
C:   0000233E  A$pff\Debug\pff3a\pff$5957         pff
C:   0000233F  A$pff\Debug\pff3a\pff$5958         pff
C:   00002342  A$pff\Debug\pff3a\pff$5962         pff
C:   00002342  C$pff.c$999$1_0$82                 pff
C:   00002344  A$pff\Debug\pff3a\pff$5963         pff
C:   00002346  A$pff\Debug\pff3a\pff$5964         pff
C:   00002347  A$pff\Debug\pff3a\pff$5965         pff
C:   00002349  A$pff\Debug\pff3a\pff$5966         pff
C:   0000234A  A$pff\Debug\pff3a\pff$5967         pff
C:   0000234C  A$pff\Debug\pff3a\pff$5968         pff
C:   0000234D  A$pff\Debug\pff3a\pff$5969         pff
C:   0000234F  A$pff\Debug\pff3a\pff$5970         pff
C:   00002352  A$pff\Debug\pff3a\pff$5971         pff
C:   00002353  A$pff\Debug\pff3a\pff$5972         pff
C:   00002354  A$pff\Debug\pff3a\pff$5973         pff
C:   00002357  A$pff\Debug\pff3a\pff$5974         pff
C:   00002358  A$pff\Debug\pff3a\pff$5975         pff
C:   00002359  A$pff\Debug\pff3a\pff$5976         pff
C:   0000235C  A$pff\Debug\pff3a\pff$5977         pff
C:   0000235D  A$pff\Debug\pff3a\pff$5978         pff
C:   0000235E  A$pff\Debug\pff3a\pff$5979         pff
C:   00002361  A$pff\Debug\pff3a\pff$5980         pff
C:   00002363  A$pff\Debug\pff3a\pff$5981         pff
C:   00002365  A$pff\Debug\pff3a\pff$5982         pff
C:   00002367  A$pff\Debug\pff3a\pff$5983         pff
C:   00002369  A$pff\Debug\pff3a\pff$5984         pff
C:   0000236C  A$pff\Debug\pff3a\pff$5985         pff
C:   0000236E  A$pff\Debug\pff3a\pff$5986         pff
C:   00002370  A$pff\Debug\pff3a\pff$5987         pff
C:   00002372  A$pff\Debug\pff3a\pff$5988         pff
C:   00002373  A$pff\Debug\pff3a\pff$5989         pff
C:   00002375  A$pff\Debug\pff3a\pff$5990         pff
C:   00002377  A$pff\Debug\pff3a\pff$5991         pff
C:   00002379  A$pff\Debug\pff3a\pff$5992         pff
C:   0000237A  A$pff\Debug\pff3a\pff$5993         pff
C:   0000237C  A$pff\Debug\pff3a\pff$5994         pff
C:   0000237D  A$pff\Debug\pff3a\pff$5995         pff
C:   0000237F  A$pff\Debug\pff3a\pff$5996         pff
C:   00002380  A$pff\Debug\pff3a\pff$5997         pff
C:   00002382  A$pff\Debug\pff3a\pff$5998         pff
C:   00002383  A$pff\Debug\pff3a\pff$5999         pff
C:   00002385  A$pff\Debug\pff3a\pff$6002         pff
C:   00002385  C$pff.c$1000$1_0$82                pff
C:   00002386  A$pff\Debug\pff3a\pff$6003         pff
C:   00002387  A$pff\Debug\pff3a\pff$6004         pff
ASxxxx Linker V03.00 + NoICE + sdld,  page 136.
Hexadecimal  [32-Bits]

Area                                    Addr        Size        Decimal Bytes (Attributes)
--------------------------------        ----        ----        ------- ----- ------------
CSEG                                00000062    00003CB7 =       15543. bytes (REL,CON,CODE)

      Value  Global                              Global Defined In Module
      -----  --------------------------------   ------------------------
C:   00002388  A$pff\Debug\pff3a\pff$6005         pff
C:   00002389  A$pff\Debug\pff3a\pff$6006         pff
C:   0000238B  A$pff\Debug\pff3a\pff$6007         pff
C:   0000238D  A$pff\Debug\pff3a\pff$6008         pff
C:   0000238F  A$pff\Debug\pff3a\pff$6009         pff
C:   00002390  A$pff\Debug\pff3a\pff$6010         pff
C:   00002392  A$pff\Debug\pff3a\pff$6011         pff
C:   00002393  A$pff\Debug\pff3a\pff$6012         pff
C:   00002395  A$pff\Debug\pff3a\pff$6013         pff
C:   00002396  A$pff\Debug\pff3a\pff$6014         pff
C:   00002398  A$pff\Debug\pff3a\pff$6015         pff
C:   00002399  A$pff\Debug\pff3a\pff$6016         pff
C:   0000239C  A$pff\Debug\pff3a\pff$6017         pff
C:   0000239F  A$pff\Debug\pff3a\pff$6018         pff
C:   000023A2  A$pff\Debug\pff3a\pff$6022         pff
C:   000023A2  C$pff.c$1001$1_0$82                pff
C:   000023A4  A$pff\Debug\pff3a\pff$6023         pff
C:   000023A5  A$pff\Debug\pff3a\pff$6024         pff
C:   000023A6  A$pff\Debug\pff3a\pff$6025         pff
C:   000023A7  A$pff\Debug\pff3a\pff$6026         pff
C:   000023A8  A$pff\Debug\pff3a\pff$6027         pff
C:   000023AA  A$pff\Debug\pff3a\pff$6028         pff
C:   000023AC  A$pff\Debug\pff3a\pff$6029         pff
C:   000023AD  A$pff\Debug\pff3a\pff$6030         pff
C:   000023AE  A$pff\Debug\pff3a\pff$6031         pff
C:   000023AF  A$pff\Debug\pff3a\pff$6032         pff
C:   000023B0  A$pff\Debug\pff3a\pff$6033         pff
C:   000023B1  A$pff\Debug\pff3a\pff$6034         pff
C:   000023B2  A$pff\Debug\pff3a\pff$6035         pff
C:   000023B3  A$pff\Debug\pff3a\pff$6036         pff
C:   000023B4  A$pff\Debug\pff3a\pff$6037         pff
C:   000023B5  A$pff\Debug\pff3a\pff$6038         pff
C:   000023B6  A$pff\Debug\pff3a\pff$6039         pff
C:   000023B7  A$pff\Debug\pff3a\pff$6040         pff
C:   000023B8  A$pff\Debug\pff3a\pff$6041         pff
C:   000023B9  A$pff\Debug\pff3a\pff$6042         pff
C:   000023BA  A$pff\Debug\pff3a\pff$6043         pff
C:   000023BB  A$pff\Debug\pff3a\pff$6044         pff
C:   000023BC  A$pff\Debug\pff3a\pff$6045         pff
C:   000023BE  A$pff\Debug\pff3a\pff$6046         pff
C:   000023C0  A$pff\Debug\pff3a\pff$6047         pff
C:   000023C1  A$pff\Debug\pff3a\pff$6048         pff
C:   000023C3  A$pff\Debug\pff3a\pff$6049         pff
C:   000023C4  A$pff\Debug\pff3a\pff$6050         pff
C:   000023C6  A$pff\Debug\pff3a\pff$6051         pff
C:   000023C7  A$pff\Debug\pff3a\pff$6052         pff
C:   000023C9  A$pff\Debug\pff3a\pff$6053         pff
C:   000023CA  A$pff\Debug\pff3a\pff$6054         pff
C:   000023CD  A$pff\Debug\pff3a\pff$6055         pff
C:   000023CE  A$pff\Debug\pff3a\pff$6056         pff
C:   000023CF  A$pff\Debug\pff3a\pff$6057         pff
ASxxxx Linker V03.00 + NoICE + sdld,  page 137.
Hexadecimal  [32-Bits]

Area                                    Addr        Size        Decimal Bytes (Attributes)
--------------------------------        ----        ----        ------- ----- ------------
CSEG                                00000062    00003CB7 =       15543. bytes (REL,CON,CODE)

      Value  Global                              Global Defined In Module
      -----  --------------------------------   ------------------------
C:   000023D2  A$pff\Debug\pff3a\pff$6058         pff
C:   000023D3  A$pff\Debug\pff3a\pff$6059         pff
C:   000023D4  A$pff\Debug\pff3a\pff$6060         pff
C:   000023D7  A$pff\Debug\pff3a\pff$6061         pff
C:   000023D8  A$pff\Debug\pff3a\pff$6062         pff
C:   000023D9  A$pff\Debug\pff3a\pff$6063         pff
C:   000023DC  A$pff\Debug\pff3a\pff$6071         pff
C:   000023DC  C$pff.c$1001$2_0$83                pff
C:   000023DC  C$pff.c$1003$2_0$83                pff
C:   000023DE  A$pff\Debug\pff3a\pff$6072         pff
C:   000023DF  A$pff\Debug\pff3a\pff$6073         pff
C:   000023E1  A$pff\Debug\pff3a\pff$6074         pff
C:   000023E2  A$pff\Debug\pff3a\pff$6075         pff
C:   000023E4  A$pff\Debug\pff3a\pff$6076         pff
C:   000023E5  A$pff\Debug\pff3a\pff$6077         pff
C:   000023E7  A$pff\Debug\pff3a\pff$6078         pff
C:   000023EA  A$pff\Debug\pff3a\pff$6079         pff
C:   000023EB  A$pff\Debug\pff3a\pff$6080         pff
C:   000023EC  A$pff\Debug\pff3a\pff$6081         pff
C:   000023EF  A$pff\Debug\pff3a\pff$6082         pff
C:   000023F0  A$pff\Debug\pff3a\pff$6083         pff
C:   000023F3  A$pff\Debug\pff3a\pff$6084         pff
C:   000023F5  A$pff\Debug\pff3a\pff$6085         pff
C:   000023F7  A$pff\Debug\pff3a\pff$6086         pff
C:   000023F8  A$pff\Debug\pff3a\pff$6087         pff
C:   000023F9  A$pff\Debug\pff3a\pff$6088         pff
C:   000023FA  A$pff\Debug\pff3a\pff$6089         pff
C:   000023FB  A$pff\Debug\pff3a\pff$6090         pff
C:   000023FC  A$pff\Debug\pff3a\pff$6091         pff
C:   000023FE  A$pff\Debug\pff3a\pff$6092         pff
C:   000023FF  A$pff\Debug\pff3a\pff$6093         pff
C:   00002400  A$pff\Debug\pff3a\pff$6094         pff
C:   00002401  A$pff\Debug\pff3a\pff$6097         pff
C:   00002401  C$pff.c$1004$2_0$83                pff
C:   00002403  A$pff\Debug\pff3a\pff$6098         pff
C:   00002405  A$pff\Debug\pff3a\pff$6099         pff
C:   00002406  A$pff\Debug\pff3a\pff$6100         pff
C:   00002408  A$pff\Debug\pff3a\pff$6101         pff
C:   0000240A  A$pff\Debug\pff3a\pff$6102         pff
C:   0000240B  A$pff\Debug\pff3a\pff$6103         pff
C:   0000240C  A$pff\Debug\pff3a\pff$6104         pff
C:   0000240D  A$pff\Debug\pff3a\pff$6105         pff
C:   0000240E  A$pff\Debug\pff3a\pff$6106         pff
C:   0000240F  A$pff\Debug\pff3a\pff$6107         pff
C:   00002410  A$pff\Debug\pff3a\pff$6108         pff
C:   00002411  A$pff\Debug\pff3a\pff$6109         pff
C:   00002412  A$pff\Debug\pff3a\pff$6110         pff
C:   00002414  A$pff\Debug\pff3a\pff$6111         pff
C:   00002416  A$pff\Debug\pff3a\pff$6112         pff
C:   00002418  A$pff\Debug\pff3a\pff$6113         pff
C:   00002419  A$pff\Debug\pff3a\pff$6114         pff
ASxxxx Linker V03.00 + NoICE + sdld,  page 138.
Hexadecimal  [32-Bits]

Area                                    Addr        Size        Decimal Bytes (Attributes)
--------------------------------        ----        ----        ------- ----- ------------
CSEG                                00000062    00003CB7 =       15543. bytes (REL,CON,CODE)

      Value  Global                              Global Defined In Module
      -----  --------------------------------   ------------------------
C:   0000241B  A$pff\Debug\pff3a\pff$6115         pff
C:   0000241D  A$pff\Debug\pff3a\pff$6116         pff
C:   0000241E  A$pff\Debug\pff3a\pff$6117         pff
C:   0000241F  A$pff\Debug\pff3a\pff$6118         pff
C:   00002420  A$pff\Debug\pff3a\pff$6119         pff
C:   00002421  A$pff\Debug\pff3a\pff$6120         pff
C:   00002422  A$pff\Debug\pff3a\pff$6121         pff
C:   00002423  A$pff\Debug\pff3a\pff$6122         pff
C:   00002424  A$pff\Debug\pff3a\pff$6126         pff
C:   00002424  C$pff.c$1005$1_0$82                pff
C:   00002426  A$pff\Debug\pff3a\pff$6127         pff
C:   00002427  A$pff\Debug\pff3a\pff$6128         pff
C:   00002429  A$pff\Debug\pff3a\pff$6129         pff
C:   0000242A  A$pff\Debug\pff3a\pff$6130         pff
C:   0000242C  A$pff\Debug\pff3a\pff$6131         pff
C:   0000242D  A$pff\Debug\pff3a\pff$6132         pff
C:   0000242F  A$pff\Debug\pff3a\pff$6133         pff
C:   00002432  A$pff\Debug\pff3a\pff$6134         pff
C:   00002433  A$pff\Debug\pff3a\pff$6135         pff
C:   00002434  A$pff\Debug\pff3a\pff$6136         pff
C:   00002437  A$pff\Debug\pff3a\pff$6137         pff
C:   00002438  A$pff\Debug\pff3a\pff$6138         pff
C:   0000243B  A$pff\Debug\pff3a\pff$6139         pff
C:   0000243D  A$pff\Debug\pff3a\pff$6140         pff
C:   0000243F  A$pff\Debug\pff3a\pff$6141         pff
C:   00002440  A$pff\Debug\pff3a\pff$6142         pff
C:   00002442  A$pff\Debug\pff3a\pff$6143         pff
C:   00002443  A$pff\Debug\pff3a\pff$6144         pff
C:   00002445  A$pff\Debug\pff3a\pff$6145         pff
C:   00002446  A$pff\Debug\pff3a\pff$6146         pff
C:   00002448  A$pff\Debug\pff3a\pff$6147         pff
C:   0000244B  A$pff\Debug\pff3a\pff$6148         pff
C:   0000244C  A$pff\Debug\pff3a\pff$6149         pff
C:   0000244D  A$pff\Debug\pff3a\pff$6150         pff
C:   00002450  A$pff\Debug\pff3a\pff$6151         pff
C:   00002451  A$pff\Debug\pff3a\pff$6152         pff
C:   00002452  A$pff\Debug\pff3a\pff$6153         pff
C:   00002455  A$pff\Debug\pff3a\pff$6154         pff
C:   00002456  A$pff\Debug\pff3a\pff$6155         pff
C:   00002457  A$pff\Debug\pff3a\pff$6156         pff
C:   0000245A  A$pff\Debug\pff3a\pff$6157         pff
C:   0000245B  A$pff\Debug\pff3a\pff$6158         pff
C:   0000245D  A$pff\Debug\pff3a\pff$6159         pff
C:   0000245F  A$pff\Debug\pff3a\pff$6160         pff
C:   00002460  A$pff\Debug\pff3a\pff$6161         pff
C:   00002461  A$pff\Debug\pff3a\pff$6162         pff
C:   00002463  A$pff\Debug\pff3a\pff$6163         pff
C:   00002464  A$pff\Debug\pff3a\pff$6164         pff
C:   00002465  A$pff\Debug\pff3a\pff$6165         pff
C:   00002467  A$pff\Debug\pff3a\pff$6166         pff
C:   00002469  A$pff\Debug\pff3a\pff$6167         pff
ASxxxx Linker V03.00 + NoICE + sdld,  page 139.
Hexadecimal  [32-Bits]

Area                                    Addr        Size        Decimal Bytes (Attributes)
--------------------------------        ----        ----        ------- ----- ------------
CSEG                                00000062    00003CB7 =       15543. bytes (REL,CON,CODE)

      Value  Global                              Global Defined In Module
      -----  --------------------------------   ------------------------
C:   0000246B  A$pff\Debug\pff3a\pff$6168         pff
C:   0000246D  A$pff\Debug\pff3a\pff$6169         pff
C:   0000246F  A$pff\Debug\pff3a\pff$6170         pff
C:   00002471  A$pff\Debug\pff3a\pff$6171         pff
C:   00002473  A$pff\Debug\pff3a\pff$6172         pff
C:   00002475  A$pff\Debug\pff3a\pff$6173         pff
C:   00002477  A$pff\Debug\pff3a\pff$6174         pff
C:   00002478  A$pff\Debug\pff3a\pff$6175         pff
C:   0000247A  A$pff\Debug\pff3a\pff$6176         pff
C:   0000247B  A$pff\Debug\pff3a\pff$6177         pff
C:   0000247D  A$pff\Debug\pff3a\pff$6178         pff
C:   0000247E  A$pff\Debug\pff3a\pff$6179         pff
C:   00002480  A$pff\Debug\pff3a\pff$6180         pff
C:   00002483  A$pff\Debug\pff3a\pff$6181         pff
C:   00002485  A$pff\Debug\pff3a\pff$6182         pff
C:   00002487  A$pff\Debug\pff3a\pff$6183         pff
C:   00002489  A$pff\Debug\pff3a\pff$6184         pff
C:   0000248B  A$pff\Debug\pff3a\pff$6187         pff
C:   0000248B  C$pff.c$1006$1_0$82                pff
C:   0000248C  A$pff\Debug\pff3a\pff$6188         pff
C:   0000248E  A$pff\Debug\pff3a\pff$6189         pff
C:   00002490  A$pff\Debug\pff3a\pff$6190         pff
C:   00002492  A$pff\Debug\pff3a\pff$6191         pff
C:   00002493  A$pff\Debug\pff3a\pff$6192         pff
C:   00002495  A$pff\Debug\pff3a\pff$6193         pff
C:   00002496  A$pff\Debug\pff3a\pff$6194         pff
C:   00002498  A$pff\Debug\pff3a\pff$6195         pff
C:   00002499  A$pff\Debug\pff3a\pff$6196         pff
C:   0000249B  A$pff\Debug\pff3a\pff$6197         pff
C:   0000249C  A$pff\Debug\pff3a\pff$6198         pff
C:   0000249F  A$pff\Debug\pff3a\pff$6199         pff
C:   000024A2  A$pff\Debug\pff3a\pff$6200         pff
C:   000024A5  A$pff\Debug\pff3a\pff$6204         pff
C:   000024A5  C$pff.c$1007$2_0$83                pff
C:   000024A7  A$pff\Debug\pff3a\pff$6205         pff
C:   000024A8  A$pff\Debug\pff3a\pff$6206         pff
C:   000024AA  A$pff\Debug\pff3a\pff$6207         pff
C:   000024AB  A$pff\Debug\pff3a\pff$6208         pff
C:   000024AD  A$pff\Debug\pff3a\pff$6209         pff
C:   000024AE  A$pff\Debug\pff3a\pff$6210         pff
C:   000024B0  A$pff\Debug\pff3a\pff$6211         pff
C:   000024B2  A$pff\Debug\pff3a\pff$6212         pff
C:   000024B4  A$pff\Debug\pff3a\pff$6213         pff
C:   000024B5  A$pff\Debug\pff3a\pff$6214         pff
C:   000024B8  A$pff\Debug\pff3a\pff$6215         pff
C:   000024B9  A$pff\Debug\pff3a\pff$6216         pff
C:   000024BA  A$pff\Debug\pff3a\pff$6217         pff
C:   000024BD  A$pff\Debug\pff3a\pff$6218         pff
C:   000024BE  A$pff\Debug\pff3a\pff$6219         pff
C:   000024BF  A$pff\Debug\pff3a\pff$6220         pff
C:   000024C0  A$pff\Debug\pff3a\pff$6221         pff
ASxxxx Linker V03.00 + NoICE + sdld,  page 140.
Hexadecimal  [32-Bits]

Area                                    Addr        Size        Decimal Bytes (Attributes)
--------------------------------        ----        ----        ------- ----- ------------
CSEG                                00000062    00003CB7 =       15543. bytes (REL,CON,CODE)

      Value  Global                              Global Defined In Module
      -----  --------------------------------   ------------------------
C:   000024C3  A$pff\Debug\pff3a\pff$6222         pff
C:   000024C4  A$pff\Debug\pff3a\pff$6223         pff
C:   000024C5  A$pff\Debug\pff3a\pff$6224         pff
C:   000024C6  A$pff\Debug\pff3a\pff$6225         pff
C:   000024C9  A$pff\Debug\pff3a\pff$6226         pff
C:   000024CA  A$pff\Debug\pff3a\pff$6227         pff
C:   000024CB  A$pff\Debug\pff3a\pff$6228         pff
C:   000024CD  A$pff\Debug\pff3a\pff$6229         pff
C:   000024CF  A$pff\Debug\pff3a\pff$6230         pff
C:   000024D0  A$pff\Debug\pff3a\pff$6231         pff
C:   000024D2  A$pff\Debug\pff3a\pff$6232         pff
C:   000024D3  A$pff\Debug\pff3a\pff$6233         pff
C:   000024D5  A$pff\Debug\pff3a\pff$6234         pff
C:   000024D6  A$pff\Debug\pff3a\pff$6235         pff
C:   000024D7  A$pff\Debug\pff3a\pff$6236         pff
C:   000024D8  A$pff\Debug\pff3a\pff$6237         pff
C:   000024DA  A$pff\Debug\pff3a\pff$6238         pff
C:   000024DC  A$pff\Debug\pff3a\pff$6239         pff
C:   000024DD  A$pff\Debug\pff3a\pff$6240         pff
C:   000024DE  A$pff\Debug\pff3a\pff$6241         pff
C:   000024DF  A$pff\Debug\pff3a\pff$6242         pff
C:   000024E0  A$pff\Debug\pff3a\pff$6243         pff
C:   000024E1  A$pff\Debug\pff3a\pff$6244         pff
C:   000024E2  A$pff\Debug\pff3a\pff$6245         pff
C:   000024E3  A$pff\Debug\pff3a\pff$6246         pff
C:   000024E4  A$pff\Debug\pff3a\pff$6247         pff
C:   000024E5  A$pff\Debug\pff3a\pff$6248         pff
C:   000024E6  A$pff\Debug\pff3a\pff$6249         pff
C:   000024E7  A$pff\Debug\pff3a\pff$6250         pff
C:   000024E8  A$pff\Debug\pff3a\pff$6251         pff
C:   000024E9  A$pff\Debug\pff3a\pff$6252         pff
C:   000024EA  A$pff\Debug\pff3a\pff$6253         pff
C:   000024EB  A$pff\Debug\pff3a\pff$6254         pff
C:   000024EC  A$pff\Debug\pff3a\pff$6255         pff
C:   000024EE  A$pff\Debug\pff3a\pff$6256         pff
C:   000024EF  A$pff\Debug\pff3a\pff$6257         pff
C:   000024F1  A$pff\Debug\pff3a\pff$6258         pff
C:   000024F2  A$pff\Debug\pff3a\pff$6259         pff
C:   000024F4  A$pff\Debug\pff3a\pff$6260         pff
C:   000024F5  A$pff\Debug\pff3a\pff$6261         pff
C:   000024F7  A$pff\Debug\pff3a\pff$6262         pff
C:   000024F8  A$pff\Debug\pff3a\pff$6263         pff
C:   000024FB  A$pff\Debug\pff3a\pff$6264         pff
C:   000024FC  A$pff\Debug\pff3a\pff$6265         pff
C:   000024FD  A$pff\Debug\pff3a\pff$6266         pff
C:   00002500  A$pff\Debug\pff3a\pff$6267         pff
C:   00002501  A$pff\Debug\pff3a\pff$6268         pff
C:   00002502  A$pff\Debug\pff3a\pff$6269         pff
C:   00002505  A$pff\Debug\pff3a\pff$6270         pff
C:   00002506  A$pff\Debug\pff3a\pff$6271         pff
C:   00002507  A$pff\Debug\pff3a\pff$6272         pff
ASxxxx Linker V03.00 + NoICE + sdld,  page 141.
Hexadecimal  [32-Bits]

Area                                    Addr        Size        Decimal Bytes (Attributes)
--------------------------------        ----        ----        ------- ----- ------------
CSEG                                00000062    00003CB7 =       15543. bytes (REL,CON,CODE)

      Value  Global                              Global Defined In Module
      -----  --------------------------------   ------------------------
C:   0000250A  A$pff\Debug\pff3a\pff$6275         pff
C:   0000250A  C$pff.c$1008$2_0$83                pff
C:   0000250C  A$pff\Debug\pff3a\pff$6276         pff
C:   0000250E  A$pff\Debug\pff3a\pff$6277         pff
C:   0000250F  A$pff\Debug\pff3a\pff$6278         pff
C:   00002511  A$pff\Debug\pff3a\pff$6279         pff
C:   00002513  A$pff\Debug\pff3a\pff$6280         pff
C:   00002514  A$pff\Debug\pff3a\pff$6281         pff
C:   00002515  A$pff\Debug\pff3a\pff$6282         pff
C:   00002516  A$pff\Debug\pff3a\pff$6283         pff
C:   00002517  A$pff\Debug\pff3a\pff$6284         pff
C:   00002518  A$pff\Debug\pff3a\pff$6285         pff
C:   00002519  A$pff\Debug\pff3a\pff$6286         pff
C:   0000251A  A$pff\Debug\pff3a\pff$6287         pff
C:   0000251B  A$pff\Debug\pff3a\pff$6288         pff
C:   0000251C  A$pff\Debug\pff3a\pff$6289         pff
C:   0000251D  A$pff\Debug\pff3a\pff$6290         pff
C:   0000251F  A$pff\Debug\pff3a\pff$6291         pff
C:   00002521  A$pff\Debug\pff3a\pff$6292         pff
C:   00002522  A$pff\Debug\pff3a\pff$6293         pff
C:   00002524  A$pff\Debug\pff3a\pff$6294         pff
C:   00002525  A$pff\Debug\pff3a\pff$6295         pff
C:   00002527  A$pff\Debug\pff3a\pff$6296         pff
C:   00002528  A$pff\Debug\pff3a\pff$6297         pff
C:   0000252A  A$pff\Debug\pff3a\pff$6298         pff
C:   0000252D  A$pff\Debug\pff3a\pff$6299         pff
C:   0000252E  A$pff\Debug\pff3a\pff$6300         pff
C:   0000252F  A$pff\Debug\pff3a\pff$6301         pff
C:   00002532  A$pff\Debug\pff3a\pff$6302         pff
C:   00002533  A$pff\Debug\pff3a\pff$6303         pff
C:   00002535  A$pff\Debug\pff3a\pff$6304         pff
C:   00002537  A$pff\Debug\pff3a\pff$6305         pff
C:   00002538  A$pff\Debug\pff3a\pff$6306         pff
C:   00002539  A$pff\Debug\pff3a\pff$6307         pff
C:   0000253A  A$pff\Debug\pff3a\pff$6308         pff
C:   0000253B  A$pff\Debug\pff3a\pff$6309         pff
C:   0000253C  A$pff\Debug\pff3a\pff$6310         pff
C:   0000253D  A$pff\Debug\pff3a\pff$6311         pff
C:   0000253E  A$pff\Debug\pff3a\pff$6312         pff
C:   0000253F  A$pff\Debug\pff3a\pff$6313         pff
C:   00002541  A$pff\Debug\pff3a\pff$6314         pff
C:   00002543  A$pff\Debug\pff3a\pff$6315         pff
C:   00002544  A$pff\Debug\pff3a\pff$6316         pff
C:   00002546  A$pff\Debug\pff3a\pff$6317         pff
C:   00002547  A$pff\Debug\pff3a\pff$6318         pff
C:   00002549  A$pff\Debug\pff3a\pff$6319         pff
C:   0000254A  A$pff\Debug\pff3a\pff$6320         pff
C:   0000254C  A$pff\Debug\pff3a\pff$6321         pff
C:   0000254D  A$pff\Debug\pff3a\pff$6322         pff
C:   00002550  A$pff\Debug\pff3a\pff$6323         pff
C:   00002551  A$pff\Debug\pff3a\pff$6324         pff
ASxxxx Linker V03.00 + NoICE + sdld,  page 142.
Hexadecimal  [32-Bits]

Area                                    Addr        Size        Decimal Bytes (Attributes)
--------------------------------        ----        ----        ------- ----- ------------
CSEG                                00000062    00003CB7 =       15543. bytes (REL,CON,CODE)

      Value  Global                              Global Defined In Module
      -----  --------------------------------   ------------------------
C:   00002552  A$pff\Debug\pff3a\pff$6325         pff
C:   00002555  A$pff\Debug\pff3a\pff$6328         pff
C:   00002555  C$pff.c$1009$2_0$83                pff
C:   00002557  A$pff\Debug\pff3a\pff$6329         pff
C:   00002559  A$pff\Debug\pff3a\pff$6330         pff
C:   0000255A  A$pff\Debug\pff3a\pff$6331         pff
C:   0000255B  A$pff\Debug\pff3a\pff$6332         pff
C:   0000255C  A$pff\Debug\pff3a\pff$6333         pff
C:   0000255D  A$pff\Debug\pff3a\pff$6334         pff
C:   0000255F  A$pff\Debug\pff3a\pff$6335         pff
C:   00002562  A$pff\Debug\pff3a\pff$6337         pff
C:   00002564  A$pff\Debug\pff3a\pff$6338         pff
C:   00002566  A$pff\Debug\pff3a\pff$6339         pff
C:   00002567  A$pff\Debug\pff3a\pff$6340         pff
C:   00002569  A$pff\Debug\pff3a\pff$6341         pff
C:   0000256B  A$pff\Debug\pff3a\pff$6342         pff
C:   0000256C  A$pff\Debug\pff3a\pff$6343         pff
C:   0000256D  A$pff\Debug\pff3a\pff$6344         pff
C:   0000256E  A$pff\Debug\pff3a\pff$6345         pff
C:   0000256F  A$pff\Debug\pff3a\pff$6346         pff
C:   00002570  A$pff\Debug\pff3a\pff$6347         pff
C:   00002571  A$pff\Debug\pff3a\pff$6348         pff
C:   00002572  A$pff\Debug\pff3a\pff$6349         pff
C:   00002573  A$pff\Debug\pff3a\pff$6350         pff
C:   00002574  A$pff\Debug\pff3a\pff$6351         pff
C:   00002577  A$pff\Debug\pff3a\pff$6355         pff
C:   00002577  C$pff.c$1012$1_0$82                pff
C:   0000257A  A$pff\Debug\pff3a\pff$6359         pff
C:   0000257D  A$pff\Debug\pff3a\pff$6360         pff
C:   0000257F  A$pff\Debug\pff3a\pff$6363         pff
C:   0000257F  C$pff.c$1013$1_0$82                pff
C:   0000257F  XG$pf_read$0$0                     pff
C:   00002580  A$sio\Debug\sio$408                sio
C:   00002580  C$sio.c$5$0_0$12                   sio
C:   00002580  C$sio.c$9$1_0$12                   sio
C:   00002580  G$sioInit$0$0                      sio
C:   00002580  _sioInit                           sio
C:   00002583  A$sio\Debug\sio$411                sio
C:   00002583  C$sio.c$10$1_0$12                  sio
C:   00002585  A$sio\Debug\sio$412                sio
C:   00002588  A$sio\Debug\sio$413                sio
C:   0000258B  A$sio\Debug\sio$414                sio
C:   0000258D  A$sio\Debug\sio$417                sio
C:   0000258D  C$sio.c$11$1_0$12                  sio
C:   00002590  A$sio\Debug\sio$420                sio
C:   00002590  C$sio.c$14$1_0$12                  sio
C:   00002593  A$sio\Debug\sio$423                sio
C:   00002593  C$sio.c$15$1_0$12                  sio
C:   00002596  A$sio\Debug\sio$427                sio
C:   00002596  C$sio.c$16$1_0$12                  sio
C:   00002598  A$sio\Debug\sio$432                sio
ASxxxx Linker V03.00 + NoICE + sdld,  page 143.
Hexadecimal  [32-Bits]

Area                                    Addr        Size        Decimal Bytes (Attributes)
--------------------------------        ----        ----        ------- ----- ------------
CSEG                                00000062    00003CB7 =       15543. bytes (REL,CON,CODE)

      Value  Global                              Global Defined In Module
      -----  --------------------------------   ------------------------
C:   00002598  C$sio.c$19$1_0$12                  sio
C:   00002598  XG$sioInit$0$0                     sio
C:   00002599  A$sio\Debug\sio$447                sio
C:   00002599  C$sio.c$21$1_0$14                  sio
C:   00002599  C$sio.c$25$1_0$14                  sio
C:   00002599  G$sioClose$0$0                     sio
C:   00002599  _sioClose                          sio
C:   0000259C  A$sio\Debug\sio$450                sio
C:   0000259C  C$sio.c$26$1_0$14                  sio
C:   0000259F  A$sio\Debug\sio$453                sio
C:   0000259F  C$sio.c$27$1_0$14                  sio
C:   000025A2  A$sio\Debug\sio$457                sio
C:   000025A2  C$sio.c$28$1_0$14                  sio
C:   000025A4  A$sio\Debug\sio$462                sio
C:   000025A4  C$sio.c$29$1_0$14                  sio
C:   000025A4  XG$sioClose$0$0                    sio
C:   000025A5  A$sio\Debug\sio$478                sio
C:   000025A5  C$sio.c$31$1_0$16                  sio
C:   000025A5  C$sio.c$35$1_0$16                  sio
C:   000025A5  G$sioWaitTXDone$0$0                sio
C:   000025A5  _sioWaitTXDone                     sio
C:   000025A8  A$sio\Debug\sio$483                sio
C:   000025A8  C$sio.c$36$1_0$16                  sio
C:   000025A8  XG$sioWaitTXDone$0$0               sio
C:   000025A9  A$sio\Debug\sio$497                sio
C:   000025A9  C$sio.c$38$1_0$18                  sio
C:   000025A9  G$sioTX$0$0                        sio
C:   000025A9  _sioTX                             sio
C:   000025AB  A$sio\Debug\sio$498                sio
C:   000025AE  A$sio\Debug\sio$502                sio
C:   000025AE  C$sio.c$42$1_0$18                  sio
C:   000025B0  A$sio\Debug\sio$505                sio
C:   000025B0  C$sio.c$43$1_0$18                  sio
C:   000025B2  A$sio\Debug\sio$506                sio
C:   000025B4  A$sio\Debug\sio$507                sio
C:   000025B5  A$sio\Debug\sio$508                sio
C:   000025B7  A$sio\Debug\sio$512                sio
C:   000025B7  C$sio.c$44$1_0$18                  sio
C:   000025BA  A$sio\Debug\sio$515                sio
C:   000025BC  A$sio\Debug\sio$518                sio
C:   000025BC  C$sio.c$45$1_0$18                  sio
C:   000025BC  XG$sioTX$0$0                       sio
C:   000025BD  A$sio\Debug\sio$532                sio
C:   000025BD  C$sio.c$47$1_0$20                  sio
C:   000025BD  G$sioTXStr$0$0                     sio
C:   000025BD  _sioTXStr                          sio
C:   000025BF  A$sio\Debug\sio$533                sio
C:   000025C2  A$sio\Debug\sio$534                sio
C:   000025C4  A$sio\Debug\sio$537                sio
C:   000025C4  C$sio.c$51$1_0$20                  sio
C:   000025C6  A$sio\Debug\sio$538                sio
ASxxxx Linker V03.00 + NoICE + sdld,  page 144.
Hexadecimal  [32-Bits]

Area                                    Addr        Size        Decimal Bytes (Attributes)
--------------------------------        ----        ----        ------- ----- ------------
CSEG                                00000062    00003CB7 =       15543. bytes (REL,CON,CODE)

      Value  Global                              Global Defined In Module
      -----  --------------------------------   ------------------------
C:   000025C8  A$sio\Debug\sio$539                sio
C:   000025C9  A$sio\Debug\sio$540                sio
C:   000025CB  A$sio\Debug\sio$541                sio
C:   000025CC  A$sio\Debug\sio$542                sio
C:   000025CE  A$sio\Debug\sio$543                sio
C:   000025CF  A$sio\Debug\sio$544                sio
C:   000025D1  A$sio\Debug\sio$548                sio
C:   000025D1  C$sio.c$53$2_0$21                  sio
C:   000025D3  A$sio\Debug\sio$549                sio
C:   000025D5  A$sio\Debug\sio$550                sio
C:   000025D7  A$sio\Debug\sio$551                sio
C:   000025DA  A$sio\Debug\sio$552                sio
C:   000025DB  A$sio\Debug\sio$553                sio
C:   000025DD  A$sio\Debug\sio$554                sio
C:   000025DF  A$sio\Debug\sio$555                sio
C:   000025E1  A$sio\Debug\sio$556                sio
C:   000025E3  A$sio\Debug\sio$557                sio
C:   000025E5  A$sio\Debug\sio$558                sio
C:   000025E7  A$sio\Debug\sio$559                sio
C:   000025EA  A$sio\Debug\sio$560                sio
C:   000025EC  A$sio\Debug\sio$561                sio
C:   000025EE  A$sio\Debug\sio$562                sio
C:   000025F0  A$sio\Debug\sio$563                sio
C:   000025F2  A$sio\Debug\sio$564                sio
C:   000025F4  A$sio\Debug\sio$567                sio
C:   000025F4  C$sio.c$54$1_0$20                  sio
C:   000025F6  A$sio\Debug\sio$568                sio
C:   000025F8  A$sio\Debug\sio$569                sio
C:   000025FA  A$sio\Debug\sio$570                sio
C:   000025FD  A$sio\Debug\sio$571                sio
C:   000025FE  A$sio\Debug\sio$572                sio
C:   000025FF  A$sio\Debug\sio$573                sio
C:   00002601  A$sio\Debug\sio$574                sio
C:   00002603  A$sio\Debug\sio$575                sio
C:   00002604  A$sio\Debug\sio$576                sio
C:   00002606  A$sio\Debug\sio$579                sio
C:   00002608  A$sio\Debug\sio$582                sio
C:   00002608  C$sio.c$55$1_0$20                  sio
C:   00002608  XG$sioTXStr$0$0                    sio
C:   00002609  A$sio\Debug\sio$598                sio
C:   00002609  C$sio.c$57$1_0$23                  sio
C:   00002609  G$sioTXBuf$0$0                     sio
C:   00002609  _sioTXBuf                          sio
C:   0000260B  A$sio\Debug\sio$599                sio
C:   0000260E  A$sio\Debug\sio$600                sio
C:   00002610  A$sio\Debug\sio$603                sio
C:   00002610  C$sio.c$63$1_0$23                  sio
C:   00002611  A$sio\Debug\sio$604                sio
C:   00002612  A$sio\Debug\sio$605                sio
C:   00002613  A$sio\Debug\sio$606                sio
C:   00002615  A$sio\Debug\sio$607                sio
ASxxxx Linker V03.00 + NoICE + sdld,  page 145.
Hexadecimal  [32-Bits]

Area                                    Addr        Size        Decimal Bytes (Attributes)
--------------------------------        ----        ----        ------- ----- ------------
CSEG                                00000062    00003CB7 =       15543. bytes (REL,CON,CODE)

      Value  Global                              Global Defined In Module
      -----  --------------------------------   ------------------------
C:   00002617  A$sio\Debug\sio$608                sio
C:   00002618  A$sio\Debug\sio$609                sio
C:   0000261A  A$sio\Debug\sio$610                sio
C:   0000261B  A$sio\Debug\sio$611                sio
C:   0000261D  A$sio\Debug\sio$613                sio
C:   0000261F  A$sio\Debug\sio$614                sio
C:   00002621  A$sio\Debug\sio$615                sio
C:   00002622  A$sio\Debug\sio$616                sio
C:   00002625  A$sio\Debug\sio$617                sio
C:   00002626  A$sio\Debug\sio$619                sio
C:   00002627  A$sio\Debug\sio$620                sio
C:   00002628  A$sio\Debug\sio$621                sio
C:   0000262A  A$sio\Debug\sio$624                sio
C:   0000262A  C$sio.c$65$1_0$23                  sio
C:   0000262C  A$sio\Debug\sio$625                sio
C:   0000262E  A$sio\Debug\sio$626                sio
C:   00002630  A$sio\Debug\sio$627                sio
C:   00002632  A$sio\Debug\sio$628                sio
C:   00002633  A$sio\Debug\sio$629                sio
C:   00002636  A$sio\Debug\sio$630                sio
C:   00002637  A$sio\Debug\sio$632                sio
C:   00002639  A$sio\Debug\sio$633                sio
C:   0000263B  A$sio\Debug\sio$634                sio
C:   0000263C  A$sio\Debug\sio$635                sio
C:   0000263D  A$sio\Debug\sio$636                sio
C:   0000263E  A$sio\Debug\sio$637                sio
C:   0000263F  A$sio\Debug\sio$638                sio
C:   00002640  A$sio\Debug\sio$639                sio
C:   00002641  A$sio\Debug\sio$640                sio
C:   00002642  A$sio\Debug\sio$641                sio
C:   00002643  A$sio\Debug\sio$642                sio
C:   00002644  A$sio\Debug\sio$643                sio
C:   00002646  A$sio\Debug\sio$644                sio
C:   00002648  A$sio\Debug\sio$645                sio
C:   0000264A  A$sio\Debug\sio$646                sio
C:   0000264C  A$sio\Debug\sio$647                sio
C:   0000264F  A$sio\Debug\sio$648                sio
C:   00002650  A$sio\Debug\sio$649                sio
C:   00002652  A$sio\Debug\sio$650                sio
C:   00002654  A$sio\Debug\sio$651                sio
C:   00002656  A$sio\Debug\sio$652                sio
C:   00002658  A$sio\Debug\sio$653                sio
C:   0000265A  A$sio\Debug\sio$654                sio
C:   0000265C  A$sio\Debug\sio$655                sio
C:   0000265D  A$sio\Debug\sio$656                sio
C:   0000265F  A$sio\Debug\sio$657                sio
C:   00002662  A$sio\Debug\sio$658                sio
C:   00002664  A$sio\Debug\sio$659                sio
C:   00002666  A$sio\Debug\sio$660                sio
C:   00002668  A$sio\Debug\sio$661                sio
C:   0000266A  A$sio\Debug\sio$662                sio
ASxxxx Linker V03.00 + NoICE + sdld,  page 146.
Hexadecimal  [32-Bits]

Area                                    Addr        Size        Decimal Bytes (Attributes)
--------------------------------        ----        ----        ------- ----- ------------
CSEG                                00000062    00003CB7 =       15543. bytes (REL,CON,CODE)

      Value  Global                              Global Defined In Module
      -----  --------------------------------   ------------------------
C:   0000266C  A$sio\Debug\sio$663                sio
C:   0000266E  A$sio\Debug\sio$664                sio
C:   00002670  A$sio\Debug\sio$665                sio
C:   00002672  A$sio\Debug\sio$669                sio
C:   00002674  A$sio\Debug\sio$670                sio
C:   00002676  A$sio\Debug\sio$673                sio
C:   00002676  C$sio.c$67$1_0$23                  sio
C:   00002676  XG$sioTXBuf$0$0                    sio
C:   00002677  A$sio\Debug\sio$689                sio
C:   00002677  C$sio.c$69$1_0$26                  sio
C:   00002677  C$sio.c$73$1_0$26                  sio
C:   00002677  G$sioWaitRXDone$0$0                sio
C:   00002677  _sioWaitRXDone                     sio
C:   0000267A  A$sio\Debug\sio$694                sio
C:   0000267A  C$sio.c$74$1_0$26                  sio
C:   0000267A  XG$sioWaitRXDone$0$0               sio
C:   0000267B  A$sio\Debug\sio$711                sio
C:   0000267B  C$sio.c$76$1_0$28                  sio
C:   0000267B  C$sio.c$82$1_0$28                  sio
C:   0000267B  G$sioRX$0$0                        sio
C:   0000267B  _sioRX                             sio
C:   0000267E  A$sio\Debug\sio$714                sio
C:   0000267E  C$sio.c$83$1_0$28                  sio
C:   00002680  A$sio\Debug\sio$718                sio
C:   00002680  C$sio.c$84$1_0$28                  sio
C:   00002682  A$sio\Debug\sio$721                sio
C:   00002682  C$sio.c$86$1_0$28                  sio
C:   00002684  A$sio\Debug\sio$726                sio
C:   00002684  C$sio.c$87$1_0$28                  sio
C:   00002684  XG$sioRX$0$0                       sio
C:   00002685  A$sio\Debug\sio$742                sio
C:   00002685  C$sio.c$89$1_0$30                  sio
C:   00002685  G$sioRXStr$0$0                     sio
C:   00002685  _sioRXStr                          sio
C:   00002687  A$sio\Debug\sio$743                sio
C:   0000268A  A$sio\Debug\sio$744                sio
C:   0000268C  A$sio\Debug\sio$747                sio
C:   0000268C  C$sio.c$95$1_0$30                  sio
C:   0000268D  A$sio\Debug\sio$748                sio
C:   0000268E  A$sio\Debug\sio$749                sio
C:   0000268F  A$sio\Debug\sio$750                sio
C:   00002691  A$sio\Debug\sio$751                sio
C:   00002693  A$sio\Debug\sio$752                sio
C:   00002694  A$sio\Debug\sio$753                sio
C:   00002696  A$sio\Debug\sio$754                sio
C:   00002697  A$sio\Debug\sio$755                sio
C:   00002699  A$sio\Debug\sio$757                sio
C:   0000269B  A$sio\Debug\sio$758                sio
C:   0000269D  A$sio\Debug\sio$759                sio
C:   0000269E  A$sio\Debug\sio$760                sio
C:   000026A1  A$sio\Debug\sio$761                sio
ASxxxx Linker V03.00 + NoICE + sdld,  page 147.
Hexadecimal  [32-Bits]

Area                                    Addr        Size        Decimal Bytes (Attributes)
--------------------------------        ----        ----        ------- ----- ------------
CSEG                                00000062    00003CB7 =       15543. bytes (REL,CON,CODE)

      Value  Global                              Global Defined In Module
      -----  --------------------------------   ------------------------
C:   000026A2  A$sio\Debug\sio$763                sio
C:   000026A3  A$sio\Debug\sio$764                sio
C:   000026A4  A$sio\Debug\sio$765                sio
C:   000026A6  A$sio\Debug\sio$768                sio
C:   000026A6  C$sio.c$97$1_0$30                  sio
C:   000026A8  A$sio\Debug\sio$769                sio
C:   000026AA  A$sio\Debug\sio$770                sio
C:   000026AC  A$sio\Debug\sio$771                sio
C:   000026AE  A$sio\Debug\sio$772                sio
C:   000026AF  A$sio\Debug\sio$773                sio
C:   000026B2  A$sio\Debug\sio$774                sio
C:   000026B3  A$sio\Debug\sio$776                sio
C:   000026B5  A$sio\Debug\sio$777                sio
C:   000026B7  A$sio\Debug\sio$778                sio
C:   000026B8  A$sio\Debug\sio$779                sio
C:   000026B9  A$sio\Debug\sio$780                sio
C:   000026BA  A$sio\Debug\sio$781                sio
C:   000026BB  A$sio\Debug\sio$782                sio
C:   000026BC  A$sio\Debug\sio$783                sio
C:   000026BD  A$sio\Debug\sio$784                sio
C:   000026BE  A$sio\Debug\sio$785                sio
C:   000026BF  A$sio\Debug\sio$786                sio
C:   000026C0  A$sio\Debug\sio$787                sio
C:   000026C2  A$sio\Debug\sio$788                sio
C:   000026C4  A$sio\Debug\sio$789                sio
C:   000026C5  A$sio\Debug\sio$790                sio
C:   000026C7  A$sio\Debug\sio$791                sio
C:   000026C9  A$sio\Debug\sio$792                sio
C:   000026CB  A$sio\Debug\sio$793                sio
C:   000026CD  A$sio\Debug\sio$794                sio
C:   000026CF  A$sio\Debug\sio$795                sio
C:   000026D1  A$sio\Debug\sio$796                sio
C:   000026D4  A$sio\Debug\sio$797                sio
C:   000026D6  A$sio\Debug\sio$798                sio
C:   000026D8  A$sio\Debug\sio$799                sio
C:   000026DA  A$sio\Debug\sio$800                sio
C:   000026DC  A$sio\Debug\sio$801                sio
C:   000026DE  A$sio\Debug\sio$802                sio
C:   000026E0  A$sio\Debug\sio$803                sio
C:   000026E2  A$sio\Debug\sio$804                sio
C:   000026E4  A$sio\Debug\sio$805                sio
C:   000026E6  A$sio\Debug\sio$806                sio
C:   000026E7  A$sio\Debug\sio$807                sio
C:   000026EA  A$sio\Debug\sio$808                sio
C:   000026EC  A$sio\Debug\sio$809                sio
C:   000026EE  A$sio\Debug\sio$810                sio
C:   000026F0  A$sio\Debug\sio$816                sio
C:   000026F0  C$sio.c$98$1_0$30                  sio
C:   000026F2  A$sio\Debug\sio$817                sio
C:   000026F4  A$sio\Debug\sio$820                sio
C:   000026F4  C$sio.c$100$1_0$30                 sio
ASxxxx Linker V03.00 + NoICE + sdld,  page 148.
Hexadecimal  [32-Bits]

Area                                    Addr        Size        Decimal Bytes (Attributes)
--------------------------------        ----        ----        ------- ----- ------------
CSEG                                00000062    00003CB7 =       15543. bytes (REL,CON,CODE)

      Value  Global                              Global Defined In Module
      -----  --------------------------------   ------------------------
C:   000026F4  XG$sioRXStr$0$0                    sio
C:   000026F5  A$sio\Debug\sio$836                sio
C:   000026F5  C$sio.c$102$1_0$33                 sio
C:   000026F5  G$sioRXBuf$0$0                     sio
C:   000026F5  _sioRXBuf                          sio
C:   000026F7  A$sio\Debug\sio$837                sio
C:   000026FA  A$sio\Debug\sio$838                sio
C:   000026FC  A$sio\Debug\sio$841                sio
C:   000026FC  C$sio.c$108$1_0$33                 sio
C:   000026FD  A$sio\Debug\sio$842                sio
C:   000026FE  A$sio\Debug\sio$843                sio
C:   000026FF  A$sio\Debug\sio$844                sio
C:   00002701  A$sio\Debug\sio$845                sio
C:   00002703  A$sio\Debug\sio$846                sio
C:   00002704  A$sio\Debug\sio$847                sio
C:   00002706  A$sio\Debug\sio$848                sio
C:   00002707  A$sio\Debug\sio$849                sio
C:   00002709  A$sio\Debug\sio$851                sio
C:   0000270B  A$sio\Debug\sio$852                sio
C:   0000270D  A$sio\Debug\sio$853                sio
C:   0000270E  A$sio\Debug\sio$854                sio
C:   00002711  A$sio\Debug\sio$855                sio
C:   00002712  A$sio\Debug\sio$857                sio
C:   00002713  A$sio\Debug\sio$858                sio
C:   00002714  A$sio\Debug\sio$859                sio
C:   00002716  A$sio\Debug\sio$862                sio
C:   00002716  C$sio.c$110$1_0$33                 sio
C:   00002718  A$sio\Debug\sio$863                sio
C:   0000271A  A$sio\Debug\sio$864                sio
C:   0000271C  A$sio\Debug\sio$865                sio
C:   0000271E  A$sio\Debug\sio$866                sio
C:   0000271F  A$sio\Debug\sio$867                sio
C:   00002722  A$sio\Debug\sio$868                sio
C:   00002723  A$sio\Debug\sio$870                sio
C:   00002725  A$sio\Debug\sio$871                sio
C:   00002727  A$sio\Debug\sio$872                sio
C:   00002728  A$sio\Debug\sio$873                sio
C:   00002729  A$sio\Debug\sio$874                sio
C:   0000272A  A$sio\Debug\sio$875                sio
C:   0000272B  A$sio\Debug\sio$876                sio
C:   0000272C  A$sio\Debug\sio$877                sio
C:   0000272D  A$sio\Debug\sio$878                sio
C:   0000272E  A$sio\Debug\sio$879                sio
C:   0000272F  A$sio\Debug\sio$880                sio
C:   00002730  A$sio\Debug\sio$881                sio
C:   00002732  A$sio\Debug\sio$882                sio
C:   00002734  A$sio\Debug\sio$883                sio
C:   00002735  A$sio\Debug\sio$884                sio
C:   00002737  A$sio\Debug\sio$885                sio
C:   00002739  A$sio\Debug\sio$886                sio
C:   0000273B  A$sio\Debug\sio$887                sio
ASxxxx Linker V03.00 + NoICE + sdld,  page 149.
Hexadecimal  [32-Bits]

Area                                    Addr        Size        Decimal Bytes (Attributes)
--------------------------------        ----        ----        ------- ----- ------------
CSEG                                00000062    00003CB7 =       15543. bytes (REL,CON,CODE)

      Value  Global                              Global Defined In Module
      -----  --------------------------------   ------------------------
C:   0000273D  A$sio\Debug\sio$888                sio
C:   0000273F  A$sio\Debug\sio$889                sio
C:   00002741  A$sio\Debug\sio$890                sio
C:   00002744  A$sio\Debug\sio$891                sio
C:   00002746  A$sio\Debug\sio$892                sio
C:   00002748  A$sio\Debug\sio$893                sio
C:   0000274A  A$sio\Debug\sio$894                sio
C:   0000274C  A$sio\Debug\sio$895                sio
C:   0000274E  A$sio\Debug\sio$896                sio
C:   00002750  A$sio\Debug\sio$897                sio
C:   00002752  A$sio\Debug\sio$898                sio
C:   00002754  A$sio\Debug\sio$899                sio
C:   00002756  A$sio\Debug\sio$900                sio
C:   00002757  A$sio\Debug\sio$901                sio
C:   0000275A  A$sio\Debug\sio$902                sio
C:   0000275C  A$sio\Debug\sio$903                sio
C:   0000275E  A$sio\Debug\sio$904                sio
C:   00002760  A$sio\Debug\sio$908                sio
C:   00002762  A$sio\Debug\sio$909                sio
C:   00002764  A$sio\Debug\sio$912                sio
C:   00002764  C$sio.c$112$1_0$33                 sio
C:   00002764  XG$sioRXBuf$0$0                    sio
C:   00002765  A$siofatfsg\SIOFS\siofatfs$419     siofatfs
C:   00002765  C$siofatfs.c$58$0_0$74             siofatfs
C:   00002765  G$siof_mount$0$0                   siofatfs
C:   00002765  _siof_mount                        siofatfs
C:   00002767  A$siofatfsg\SIOFS\siofatfs$420     siofatfs
C:   0000276A  A$siofatfsg\SIOFS\siofatfs$421     siofatfs
C:   0000276C  A$siofatfsg\SIOFS\siofatfs$422     siofatfs
C:   0000276E  A$siofatfsg\SIOFS\siofatfs$423     siofatfs
C:   00002770  A$siofatfsg\SIOFS\siofatfs$424     siofatfs
C:   00002772  A$siofatfsg\SIOFS\siofatfs$425     siofatfs
C:   00002774  A$siofatfsg\SIOFS\siofatfs$426     siofatfs
C:   00002776  A$siofatfsg\SIOFS\siofatfs$429     siofatfs
C:   00002776  C$siofatfs.c$64$1_0$74             siofatfs
C:   00002778  A$siofatfsg\SIOFS\siofatfs$430     siofatfs
C:   0000277A  A$siofatfsg\SIOFS\siofatfs$431     siofatfs
C:   0000277B  A$siofatfsg\SIOFS\siofatfs$432     siofatfs
C:   0000277D  A$siofatfsg\SIOFS\siofatfs$435     siofatfs
C:   0000277D  C$siofatfs.c$65$1_0$74             siofatfs
C:   0000277F  A$siofatfsg\SIOFS\siofatfs$436     siofatfs
C:   00002781  A$siofatfsg\SIOFS\siofatfs$437     siofatfs
C:   00002782  A$siofatfsg\SIOFS\siofatfs$438     siofatfs
C:   00002783  A$siofatfsg\SIOFS\siofatfs$439     siofatfs
C:   00002784  A$siofatfsg\SIOFS\siofatfs$440     siofatfs
C:   00002786  A$siofatfsg\SIOFS\siofatfs$441     siofatfs
C:   00002788  A$siofatfsg\SIOFS\siofatfs$442     siofatfs
C:   0000278A  A$siofatfsg\SIOFS\siofatfs$443     siofatfs
C:   0000278B  A$siofatfsg\SIOFS\siofatfs$444     siofatfs
C:   0000278D  A$siofatfsg\SIOFS\siofatfs$445     siofatfs
C:   0000278E  A$siofatfsg\SIOFS\siofatfs$446     siofatfs
ASxxxx Linker V03.00 + NoICE + sdld,  page 150.
Hexadecimal  [32-Bits]

Area                                    Addr        Size        Decimal Bytes (Attributes)
--------------------------------        ----        ----        ------- ----- ------------
CSEG                                00000062    00003CB7 =       15543. bytes (REL,CON,CODE)

      Value  Global                              Global Defined In Module
      -----  --------------------------------   ------------------------
C:   00002790  A$siofatfsg\SIOFS\siofatfs$447     siofatfs
C:   00002791  A$siofatfsg\SIOFS\siofatfs$448     siofatfs
C:   00002793  A$siofatfsg\SIOFS\siofatfs$449     siofatfs
C:   00002795  A$siofatfsg\SIOFS\siofatfs$450     siofatfs
C:   00002797  A$siofatfsg\SIOFS\siofatfs$451     siofatfs
C:   00002799  A$siofatfsg\SIOFS\siofatfs$452     siofatfs
C:   0000279C  A$siofatfsg\SIOFS\siofatfs$453     siofatfs
C:   0000279E  A$siofatfsg\SIOFS\siofatfs$454     siofatfs
C:   000027A1  A$siofatfsg\SIOFS\siofatfs$455     siofatfs
C:   000027A3  A$siofatfsg\SIOFS\siofatfs$456     siofatfs
C:   000027A5  A$siofatfsg\SIOFS\siofatfs$457     siofatfs
C:   000027A7  A$siofatfsg\SIOFS\siofatfs$458     siofatfs
C:   000027A8  A$siofatfsg\SIOFS\siofatfs$459     siofatfs
C:   000027A9  A$siofatfsg\SIOFS\siofatfs$460     siofatfs
C:   000027AB  A$siofatfsg\SIOFS\siofatfs$461     siofatfs
C:   000027AC  A$siofatfsg\SIOFS\siofatfs$462     siofatfs
C:   000027AE  A$siofatfsg\SIOFS\siofatfs$463     siofatfs
C:   000027B0  A$siofatfsg\SIOFS\siofatfs$464     siofatfs
C:   000027B2  A$siofatfsg\SIOFS\siofatfs$465     siofatfs
C:   000027B3  A$siofatfsg\SIOFS\siofatfs$466     siofatfs
C:   000027B5  A$siofatfsg\SIOFS\siofatfs$467     siofatfs
C:   000027B6  A$siofatfsg\SIOFS\siofatfs$468     siofatfs
C:   000027B8  A$siofatfsg\SIOFS\siofatfs$469     siofatfs
C:   000027B9  A$siofatfsg\SIOFS\siofatfs$470     siofatfs
C:   000027BB  A$siofatfsg\SIOFS\siofatfs$471     siofatfs
C:   000027BC  A$siofatfsg\SIOFS\siofatfs$472     siofatfs
C:   000027BD  A$siofatfsg\SIOFS\siofatfs$473     siofatfs
C:   000027BE  A$siofatfsg\SIOFS\siofatfs$476     siofatfs
C:   000027BE  C$siofatfs.c$66$1_0$74             siofatfs
C:   000027C0  A$siofatfsg\SIOFS\siofatfs$477     siofatfs
C:   000027C1  A$siofatfsg\SIOFS\siofatfs$478     siofatfs
C:   000027C3  A$siofatfsg\SIOFS\siofatfs$479     siofatfs
C:   000027C4  A$siofatfsg\SIOFS\siofatfs$480     siofatfs
C:   000027C6  A$siofatfsg\SIOFS\siofatfs$481     siofatfs
C:   000027C8  A$siofatfsg\SIOFS\siofatfs$482     siofatfs
C:   000027CA  A$siofatfsg\SIOFS\siofatfs$483     siofatfs
C:   000027CB  A$siofatfsg\SIOFS\siofatfs$484     siofatfs
C:   000027CC  A$siofatfsg\SIOFS\siofatfs$485     siofatfs
C:   000027CD  A$siofatfsg\SIOFS\siofatfs$486     siofatfs
C:   000027CF  A$siofatfsg\SIOFS\siofatfs$487     siofatfs
C:   000027D1  A$siofatfsg\SIOFS\siofatfs$490     siofatfs
C:   000027D1  C$siofatfs.c$67$1_0$74             siofatfs
C:   000027D3  A$siofatfsg\SIOFS\siofatfs$491     siofatfs
C:   000027D5  A$siofatfsg\SIOFS\siofatfs$492     siofatfs
C:   000027D7  A$siofatfsg\SIOFS\siofatfs$493     siofatfs
C:   000027D9  A$siofatfsg\SIOFS\siofatfs$494     siofatfs
C:   000027DB  A$siofatfsg\SIOFS\siofatfs$495     siofatfs
C:   000027DD  A$siofatfsg\SIOFS\siofatfs$496     siofatfs
C:   000027DF  A$siofatfsg\SIOFS\siofatfs$497     siofatfs
C:   000027E0  A$siofatfsg\SIOFS\siofatfs$498     siofatfs
C:   000027E2  A$siofatfsg\SIOFS\siofatfs$499     siofatfs
ASxxxx Linker V03.00 + NoICE + sdld,  page 151.
Hexadecimal  [32-Bits]

Area                                    Addr        Size        Decimal Bytes (Attributes)
--------------------------------        ----        ----        ------- ----- ------------
CSEG                                00000062    00003CB7 =       15543. bytes (REL,CON,CODE)

      Value  Global                              Global Defined In Module
      -----  --------------------------------   ------------------------
C:   000027E4  A$siofatfsg\SIOFS\siofatfs$500     siofatfs
C:   000027E6  A$siofatfsg\SIOFS\siofatfs$501     siofatfs
C:   000027E8  A$siofatfsg\SIOFS\siofatfs$502     siofatfs
C:   000027EB  A$siofatfsg\SIOFS\siofatfs$503     siofatfs
C:   000027EE  A$siofatfsg\SIOFS\siofatfs$504     siofatfs
C:   000027F0  A$siofatfsg\SIOFS\siofatfs$505     siofatfs
C:   000027F2  A$siofatfsg\SIOFS\siofatfs$506     siofatfs
C:   000027F4  A$siofatfsg\SIOFS\siofatfs$507     siofatfs
C:   000027F6  A$siofatfsg\SIOFS\siofatfs$510     siofatfs
C:   000027F6  C$siofatfs.c$68$1_0$74             siofatfs
C:   000027F8  A$siofatfsg\SIOFS\siofatfs$511     siofatfs
C:   000027F9  A$siofatfsg\SIOFS\siofatfs$512     siofatfs
C:   000027FB  A$siofatfsg\SIOFS\siofatfs$513     siofatfs
C:   000027FD  A$siofatfsg\SIOFS\siofatfs$514     siofatfs
C:   000027FF  A$siofatfsg\SIOFS\siofatfs$515     siofatfs
C:   00002801  A$siofatfsg\SIOFS\siofatfs$516     siofatfs
C:   00002803  A$siofatfsg\SIOFS\siofatfs$517     siofatfs
C:   00002804  A$siofatfsg\SIOFS\siofatfs$518     siofatfs
C:   00002805  A$siofatfsg\SIOFS\siofatfs$519     siofatfs
C:   00002807  A$siofatfsg\SIOFS\siofatfs$520     siofatfs
C:   00002808  A$siofatfsg\SIOFS\siofatfs$521     siofatfs
C:   00002809  A$siofatfsg\SIOFS\siofatfs$522     siofatfs
C:   0000280B  A$siofatfsg\SIOFS\siofatfs$523     siofatfs
C:   0000280C  A$siofatfsg\SIOFS\siofatfs$524     siofatfs
C:   0000280D  A$siofatfsg\SIOFS\siofatfs$525     siofatfs
C:   0000280F  A$siofatfsg\SIOFS\siofatfs$526     siofatfs
C:   00002812  A$siofatfsg\SIOFS\siofatfs$527     siofatfs
C:   00002815  A$siofatfsg\SIOFS\siofatfs$528     siofatfs
C:   00002817  A$siofatfsg\SIOFS\siofatfs$529     siofatfs
C:   00002819  A$siofatfsg\SIOFS\siofatfs$530     siofatfs
C:   0000281B  A$siofatfsg\SIOFS\siofatfs$533     siofatfs
C:   0000281B  C$siofatfs.c$69$1_0$74             siofatfs
C:   0000281D  A$siofatfsg\SIOFS\siofatfs$534     siofatfs
C:   0000281F  A$siofatfsg\SIOFS\siofatfs$535     siofatfs
C:   00002820  A$siofatfsg\SIOFS\siofatfs$536     siofatfs
C:   00002821  A$siofatfsg\SIOFS\siofatfs$537     siofatfs
C:   00002823  A$siofatfsg\SIOFS\siofatfs$538     siofatfs
C:   00002825  A$siofatfsg\SIOFS\siofatfs$539     siofatfs
C:   00002827  A$siofatfsg\SIOFS\siofatfs$540     siofatfs
C:   00002829  A$siofatfsg\SIOFS\siofatfs$541     siofatfs
C:   0000282B  A$siofatfsg\SIOFS\siofatfs$542     siofatfs
C:   0000282C  A$siofatfsg\SIOFS\siofatfs$543     siofatfs
C:   0000282E  A$siofatfsg\SIOFS\siofatfs$544     siofatfs
C:   00002830  A$siofatfsg\SIOFS\siofatfs$545     siofatfs
C:   00002832  A$siofatfsg\SIOFS\siofatfs$546     siofatfs
C:   00002834  A$siofatfsg\SIOFS\siofatfs$547     siofatfs
C:   00002837  A$siofatfsg\SIOFS\siofatfs$548     siofatfs
C:   0000283A  A$siofatfsg\SIOFS\siofatfs$549     siofatfs
C:   0000283C  A$siofatfsg\SIOFS\siofatfs$550     siofatfs
C:   0000283E  A$siofatfsg\SIOFS\siofatfs$551     siofatfs
C:   00002840  A$siofatfsg\SIOFS\siofatfs$552     siofatfs
ASxxxx Linker V03.00 + NoICE + sdld,  page 152.
Hexadecimal  [32-Bits]

Area                                    Addr        Size        Decimal Bytes (Attributes)
--------------------------------        ----        ----        ------- ----- ------------
CSEG                                00000062    00003CB7 =       15543. bytes (REL,CON,CODE)

      Value  Global                              Global Defined In Module
      -----  --------------------------------   ------------------------
C:   00002842  A$siofatfsg\SIOFS\siofatfs$553     siofatfs
C:   00002844  A$siofatfsg\SIOFS\siofatfs$556     siofatfs
C:   00002844  C$siofatfs.c$71$1_0$74             siofatfs
C:   00002846  A$siofatfsg\SIOFS\siofatfs$557     siofatfs
C:   00002849  A$siofatfsg\SIOFS\siofatfs$558     siofatfs
C:   0000284B  A$siofatfsg\SIOFS\siofatfs$559     siofatfs
C:   0000284D  A$siofatfsg\SIOFS\siofatfs$560     siofatfs
C:   0000284F  A$siofatfsg\SIOFS\siofatfs$561     siofatfs
C:   00002850  A$siofatfsg\SIOFS\siofatfs$562     siofatfs
C:   00002853  A$siofatfsg\SIOFS\siofatfs$563     siofatfs
C:   00002854  A$siofatfsg\SIOFS\siofatfs$564     siofatfs
C:   00002857  A$siofatfsg\SIOFS\siofatfs$567     siofatfs
C:   00002857  C$siofatfs.c$73$2_0$75             siofatfs
C:   00002858  A$siofatfsg\SIOFS\siofatfs$568     siofatfs
C:   00002859  A$siofatfsg\SIOFS\siofatfs$569     siofatfs
C:   0000285A  A$siofatfsg\SIOFS\siofatfs$570     siofatfs
C:   0000285C  A$siofatfsg\SIOFS\siofatfs$571     siofatfs
C:   0000285E  A$siofatfsg\SIOFS\siofatfs$572     siofatfs
C:   0000285F  A$siofatfsg\SIOFS\siofatfs$573     siofatfs
C:   00002861  A$siofatfsg\SIOFS\siofatfs$574     siofatfs
C:   00002862  A$siofatfsg\SIOFS\siofatfs$575     siofatfs
C:   00002864  A$siofatfsg\SIOFS\siofatfs$576     siofatfs
C:   00002865  A$siofatfsg\SIOFS\siofatfs$577     siofatfs
C:   00002867  A$siofatfsg\SIOFS\siofatfs$578     siofatfs
C:   00002868  A$siofatfsg\SIOFS\siofatfs$579     siofatfs
C:   0000286B  A$siofatfsg\SIOFS\siofatfs$582     siofatfs
C:   0000286B  C$siofatfs.c$74$2_0$75             siofatfs
C:   0000286C  A$siofatfsg\SIOFS\siofatfs$583     siofatfs
C:   0000286D  A$siofatfsg\SIOFS\siofatfs$584     siofatfs
C:   0000286F  A$siofatfsg\SIOFS\siofatfs$585     siofatfs
C:   00002871  A$siofatfsg\SIOFS\siofatfs$586     siofatfs
C:   00002873  A$siofatfsg\SIOFS\siofatfs$590     siofatfs
C:   00002873  C$siofatfs.c$78$2_0$76             siofatfs
C:   00002876  A$siofatfsg\SIOFS\siofatfs$594     siofatfs
C:   00002879  A$siofatfsg\SIOFS\siofatfs$595     siofatfs
C:   0000287B  A$siofatfsg\SIOFS\siofatfs$598     siofatfs
C:   0000287B  C$siofatfs.c$80$1_0$74             siofatfs
C:   0000287B  XG$siof_mount$0$0                  siofatfs
C:   0000287C  A$siofatfsg\SIOFS\siofatfs$616     siofatfs
C:   0000287C  C$siofatfs.c$94$1_0$78             siofatfs
C:   0000287C  G$siof_open$0$0                    siofatfs
C:   0000287C  _siof_open                         siofatfs
C:   0000287E  A$siofatfsg\SIOFS\siofatfs$617     siofatfs
C:   00002881  A$siofatfsg\SIOFS\siofatfs$618     siofatfs
C:   00002883  A$siofatfsg\SIOFS\siofatfs$619     siofatfs
C:   00002885  A$siofatfsg\SIOFS\siofatfs$620     siofatfs
C:   00002887  A$siofatfsg\SIOFS\siofatfs$621     siofatfs
C:   00002889  A$siofatfsg\SIOFS\siofatfs$622     siofatfs
C:   0000288B  A$siofatfsg\SIOFS\siofatfs$623     siofatfs
C:   0000288D  A$siofatfsg\SIOFS\siofatfs$626     siofatfs
C:   0000288D  C$siofatfs.c$100$1_0$78            siofatfs
ASxxxx Linker V03.00 + NoICE + sdld,  page 153.
Hexadecimal  [32-Bits]

Area                                    Addr        Size        Decimal Bytes (Attributes)
--------------------------------        ----        ----        ------- ----- ------------
CSEG                                00000062    00003CB7 =       15543. bytes (REL,CON,CODE)

      Value  Global                              Global Defined In Module
      -----  --------------------------------   ------------------------
C:   0000288F  A$siofatfsg\SIOFS\siofatfs$627     siofatfs
C:   00002891  A$siofatfsg\SIOFS\siofatfs$628     siofatfs
C:   00002892  A$siofatfsg\SIOFS\siofatfs$629     siofatfs
C:   00002894  A$siofatfsg\SIOFS\siofatfs$632     siofatfs
C:   00002894  C$siofatfs.c$101$1_0$78            siofatfs
C:   00002896  A$siofatfsg\SIOFS\siofatfs$633     siofatfs
C:   00002898  A$siofatfsg\SIOFS\siofatfs$634     siofatfs
C:   00002899  A$siofatfsg\SIOFS\siofatfs$635     siofatfs
C:   0000289A  A$siofatfsg\SIOFS\siofatfs$636     siofatfs
C:   0000289B  A$siofatfsg\SIOFS\siofatfs$637     siofatfs
C:   0000289D  A$siofatfsg\SIOFS\siofatfs$638     siofatfs
C:   0000289F  A$siofatfsg\SIOFS\siofatfs$639     siofatfs
C:   000028A1  A$siofatfsg\SIOFS\siofatfs$640     siofatfs
C:   000028A2  A$siofatfsg\SIOFS\siofatfs$641     siofatfs
C:   000028A4  A$siofatfsg\SIOFS\siofatfs$642     siofatfs
C:   000028A5  A$siofatfsg\SIOFS\siofatfs$643     siofatfs
C:   000028A7  A$siofatfsg\SIOFS\siofatfs$644     siofatfs
C:   000028A8  A$siofatfsg\SIOFS\siofatfs$645     siofatfs
C:   000028AA  A$siofatfsg\SIOFS\siofatfs$646     siofatfs
C:   000028AC  A$siofatfsg\SIOFS\siofatfs$647     siofatfs
C:   000028AE  A$siofatfsg\SIOFS\siofatfs$648     siofatfs
C:   000028B0  A$siofatfsg\SIOFS\siofatfs$649     siofatfs
C:   000028B3  A$siofatfsg\SIOFS\siofatfs$650     siofatfs
C:   000028B5  A$siofatfsg\SIOFS\siofatfs$651     siofatfs
C:   000028B8  A$siofatfsg\SIOFS\siofatfs$652     siofatfs
C:   000028BA  A$siofatfsg\SIOFS\siofatfs$653     siofatfs
C:   000028BC  A$siofatfsg\SIOFS\siofatfs$654     siofatfs
C:   000028BE  A$siofatfsg\SIOFS\siofatfs$655     siofatfs
C:   000028BF  A$siofatfsg\SIOFS\siofatfs$656     siofatfs
C:   000028C0  A$siofatfsg\SIOFS\siofatfs$657     siofatfs
C:   000028C2  A$siofatfsg\SIOFS\siofatfs$658     siofatfs
C:   000028C3  A$siofatfsg\SIOFS\siofatfs$659     siofatfs
C:   000028C5  A$siofatfsg\SIOFS\siofatfs$660     siofatfs
C:   000028C7  A$siofatfsg\SIOFS\siofatfs$661     siofatfs
C:   000028C9  A$siofatfsg\SIOFS\siofatfs$662     siofatfs
C:   000028CA  A$siofatfsg\SIOFS\siofatfs$663     siofatfs
C:   000028CC  A$siofatfsg\SIOFS\siofatfs$664     siofatfs
C:   000028CD  A$siofatfsg\SIOFS\siofatfs$665     siofatfs
C:   000028CF  A$siofatfsg\SIOFS\siofatfs$666     siofatfs
C:   000028D0  A$siofatfsg\SIOFS\siofatfs$667     siofatfs
C:   000028D2  A$siofatfsg\SIOFS\siofatfs$668     siofatfs
C:   000028D3  A$siofatfsg\SIOFS\siofatfs$669     siofatfs
C:   000028D4  A$siofatfsg\SIOFS\siofatfs$670     siofatfs
C:   000028D5  A$siofatfsg\SIOFS\siofatfs$673     siofatfs
C:   000028D5  C$siofatfs.c$102$1_0$78            siofatfs
C:   000028D7  A$siofatfsg\SIOFS\siofatfs$674     siofatfs
C:   000028D8  A$siofatfsg\SIOFS\siofatfs$675     siofatfs
C:   000028DA  A$siofatfsg\SIOFS\siofatfs$676     siofatfs
C:   000028DB  A$siofatfsg\SIOFS\siofatfs$677     siofatfs
C:   000028DD  A$siofatfsg\SIOFS\siofatfs$678     siofatfs
C:   000028DF  A$siofatfsg\SIOFS\siofatfs$679     siofatfs
ASxxxx Linker V03.00 + NoICE + sdld,  page 154.
Hexadecimal  [32-Bits]

Area                                    Addr        Size        Decimal Bytes (Attributes)
--------------------------------        ----        ----        ------- ----- ------------
CSEG                                00000062    00003CB7 =       15543. bytes (REL,CON,CODE)

      Value  Global                              Global Defined In Module
      -----  --------------------------------   ------------------------
C:   000028E1  A$siofatfsg\SIOFS\siofatfs$680     siofatfs
C:   000028E2  A$siofatfsg\SIOFS\siofatfs$681     siofatfs
C:   000028E3  A$siofatfsg\SIOFS\siofatfs$682     siofatfs
C:   000028E4  A$siofatfsg\SIOFS\siofatfs$683     siofatfs
C:   000028E6  A$siofatfsg\SIOFS\siofatfs$684     siofatfs
C:   000028E8  A$siofatfsg\SIOFS\siofatfs$687     siofatfs
C:   000028E8  C$siofatfs.c$103$1_0$78            siofatfs
C:   000028EA  A$siofatfsg\SIOFS\siofatfs$688     siofatfs
C:   000028EC  A$siofatfsg\SIOFS\siofatfs$689     siofatfs
C:   000028EE  A$siofatfsg\SIOFS\siofatfs$690     siofatfs
C:   000028F0  A$siofatfsg\SIOFS\siofatfs$691     siofatfs
C:   000028F2  A$siofatfsg\SIOFS\siofatfs$692     siofatfs
C:   000028F4  A$siofatfsg\SIOFS\siofatfs$693     siofatfs
C:   000028F6  A$siofatfsg\SIOFS\siofatfs$694     siofatfs
C:   000028F7  A$siofatfsg\SIOFS\siofatfs$695     siofatfs
C:   000028F9  A$siofatfsg\SIOFS\siofatfs$696     siofatfs
C:   000028FB  A$siofatfsg\SIOFS\siofatfs$697     siofatfs
C:   000028FD  A$siofatfsg\SIOFS\siofatfs$698     siofatfs
C:   000028FF  A$siofatfsg\SIOFS\siofatfs$699     siofatfs
C:   00002902  A$siofatfsg\SIOFS\siofatfs$700     siofatfs
C:   00002905  A$siofatfsg\SIOFS\siofatfs$701     siofatfs
C:   00002907  A$siofatfsg\SIOFS\siofatfs$702     siofatfs
C:   00002909  A$siofatfsg\SIOFS\siofatfs$703     siofatfs
C:   0000290B  A$siofatfsg\SIOFS\siofatfs$704     siofatfs
C:   0000290D  A$siofatfsg\SIOFS\siofatfs$707     siofatfs
C:   0000290D  C$siofatfs.c$104$1_0$78            siofatfs
C:   0000290F  A$siofatfsg\SIOFS\siofatfs$708     siofatfs
C:   00002910  A$siofatfsg\SIOFS\siofatfs$709     siofatfs
C:   00002912  A$siofatfsg\SIOFS\siofatfs$710     siofatfs
C:   00002914  A$siofatfsg\SIOFS\siofatfs$711     siofatfs
C:   00002916  A$siofatfsg\SIOFS\siofatfs$712     siofatfs
C:   00002918  A$siofatfsg\SIOFS\siofatfs$713     siofatfs
C:   0000291A  A$siofatfsg\SIOFS\siofatfs$714     siofatfs
C:   0000291B  A$siofatfsg\SIOFS\siofatfs$715     siofatfs
C:   0000291C  A$siofatfsg\SIOFS\siofatfs$716     siofatfs
C:   0000291E  A$siofatfsg\SIOFS\siofatfs$717     siofatfs
C:   0000291F  A$siofatfsg\SIOFS\siofatfs$718     siofatfs
C:   00002920  A$siofatfsg\SIOFS\siofatfs$719     siofatfs
C:   00002922  A$siofatfsg\SIOFS\siofatfs$720     siofatfs
C:   00002923  A$siofatfsg\SIOFS\siofatfs$721     siofatfs
C:   00002924  A$siofatfsg\SIOFS\siofatfs$722     siofatfs
C:   00002926  A$siofatfsg\SIOFS\siofatfs$723     siofatfs
C:   00002929  A$siofatfsg\SIOFS\siofatfs$724     siofatfs
C:   0000292C  A$siofatfsg\SIOFS\siofatfs$725     siofatfs
C:   0000292E  A$siofatfsg\SIOFS\siofatfs$726     siofatfs
C:   00002930  A$siofatfsg\SIOFS\siofatfs$727     siofatfs
C:   00002932  A$siofatfsg\SIOFS\siofatfs$730     siofatfs
C:   00002932  C$siofatfs.c$105$1_0$78            siofatfs
C:   00002934  A$siofatfsg\SIOFS\siofatfs$731     siofatfs
C:   00002936  A$siofatfsg\SIOFS\siofatfs$732     siofatfs
C:   00002937  A$siofatfsg\SIOFS\siofatfs$733     siofatfs
ASxxxx Linker V03.00 + NoICE + sdld,  page 155.
Hexadecimal  [32-Bits]

Area                                    Addr        Size        Decimal Bytes (Attributes)
--------------------------------        ----        ----        ------- ----- ------------
CSEG                                00000062    00003CB7 =       15543. bytes (REL,CON,CODE)

      Value  Global                              Global Defined In Module
      -----  --------------------------------   ------------------------
C:   00002938  A$siofatfsg\SIOFS\siofatfs$734     siofatfs
C:   0000293A  A$siofatfsg\SIOFS\siofatfs$735     siofatfs
C:   0000293C  A$siofatfsg\SIOFS\siofatfs$736     siofatfs
C:   0000293E  A$siofatfsg\SIOFS\siofatfs$737     siofatfs
C:   00002940  A$siofatfsg\SIOFS\siofatfs$738     siofatfs
C:   00002942  A$siofatfsg\SIOFS\siofatfs$739     siofatfs
C:   00002943  A$siofatfsg\SIOFS\siofatfs$740     siofatfs
C:   00002945  A$siofatfsg\SIOFS\siofatfs$741     siofatfs
C:   00002947  A$siofatfsg\SIOFS\siofatfs$742     siofatfs
C:   00002949  A$siofatfsg\SIOFS\siofatfs$743     siofatfs
C:   0000294B  A$siofatfsg\SIOFS\siofatfs$744     siofatfs
C:   0000294E  A$siofatfsg\SIOFS\siofatfs$745     siofatfs
C:   00002951  A$siofatfsg\SIOFS\siofatfs$746     siofatfs
C:   00002953  A$siofatfsg\SIOFS\siofatfs$747     siofatfs
C:   00002955  A$siofatfsg\SIOFS\siofatfs$748     siofatfs
C:   00002957  A$siofatfsg\SIOFS\siofatfs$749     siofatfs
C:   00002959  A$siofatfsg\SIOFS\siofatfs$750     siofatfs
C:   0000295B  A$siofatfsg\SIOFS\siofatfs$753     siofatfs
C:   0000295B  C$siofatfs.c$106$1_0$78            siofatfs
C:   0000295D  A$siofatfsg\SIOFS\siofatfs$754     siofatfs
C:   00002960  A$siofatfsg\SIOFS\siofatfs$755     siofatfs
C:   00002962  A$siofatfsg\SIOFS\siofatfs$756     siofatfs
C:   00002964  A$siofatfsg\SIOFS\siofatfs$757     siofatfs
C:   00002966  A$siofatfsg\SIOFS\siofatfs$758     siofatfs
C:   00002967  A$siofatfsg\SIOFS\siofatfs$759     siofatfs
C:   0000296A  A$siofatfsg\SIOFS\siofatfs$760     siofatfs
C:   0000296B  A$siofatfsg\SIOFS\siofatfs$761     siofatfs
C:   0000296E  A$siofatfsg\SIOFS\siofatfs$764     siofatfs
C:   0000296E  C$siofatfs.c$108$2_0$79            siofatfs
C:   0000296F  A$siofatfsg\SIOFS\siofatfs$765     siofatfs
C:   00002970  A$siofatfsg\SIOFS\siofatfs$766     siofatfs
C:   00002971  A$siofatfsg\SIOFS\siofatfs$767     siofatfs
C:   00002973  A$siofatfsg\SIOFS\siofatfs$768     siofatfs
C:   00002975  A$siofatfsg\SIOFS\siofatfs$769     siofatfs
C:   00002976  A$siofatfsg\SIOFS\siofatfs$770     siofatfs
C:   00002978  A$siofatfsg\SIOFS\siofatfs$771     siofatfs
C:   00002979  A$siofatfsg\SIOFS\siofatfs$772     siofatfs
C:   0000297B  A$siofatfsg\SIOFS\siofatfs$773     siofatfs
C:   0000297C  A$siofatfsg\SIOFS\siofatfs$774     siofatfs
C:   0000297E  A$siofatfsg\SIOFS\siofatfs$775     siofatfs
C:   0000297F  A$siofatfsg\SIOFS\siofatfs$776     siofatfs
C:   00002982  A$siofatfsg\SIOFS\siofatfs$779     siofatfs
C:   00002982  C$siofatfs.c$109$2_0$79            siofatfs
C:   00002983  A$siofatfsg\SIOFS\siofatfs$780     siofatfs
C:   00002984  A$siofatfsg\SIOFS\siofatfs$781     siofatfs
C:   00002986  A$siofatfsg\SIOFS\siofatfs$782     siofatfs
C:   00002988  A$siofatfsg\SIOFS\siofatfs$783     siofatfs
C:   0000298A  A$siofatfsg\SIOFS\siofatfs$787     siofatfs
C:   0000298A  C$siofatfs.c$113$2_0$80            siofatfs
C:   0000298D  A$siofatfsg\SIOFS\siofatfs$791     siofatfs
C:   00002990  A$siofatfsg\SIOFS\siofatfs$792     siofatfs
ASxxxx Linker V03.00 + NoICE + sdld,  page 156.
Hexadecimal  [32-Bits]

Area                                    Addr        Size        Decimal Bytes (Attributes)
--------------------------------        ----        ----        ------- ----- ------------
CSEG                                00000062    00003CB7 =       15543. bytes (REL,CON,CODE)

      Value  Global                              Global Defined In Module
      -----  --------------------------------   ------------------------
C:   00002992  A$siofatfsg\SIOFS\siofatfs$795     siofatfs
C:   00002992  C$siofatfs.c$115$1_0$78            siofatfs
C:   00002992  XG$siof_open$0$0                   siofatfs
C:   00002993  A$siofatfsg\SIOFS\siofatfs$811     siofatfs
C:   00002993  C$siofatfs.c$127$1_0$82            siofatfs
C:   00002993  G$siof_close$0$0                   siofatfs
C:   00002993  _siof_close                        siofatfs
C:   00002995  A$siofatfsg\SIOFS\siofatfs$812     siofatfs
C:   00002997  A$siofatfsg\SIOFS\siofatfs$813     siofatfs
C:   00002999  A$siofatfsg\SIOFS\siofatfs$814     siofatfs
C:   0000299B  A$siofatfsg\SIOFS\siofatfs$815     siofatfs
C:   0000299D  A$siofatfsg\SIOFS\siofatfs$816     siofatfs
C:   0000299F  A$siofatfsg\SIOFS\siofatfs$817     siofatfs
C:   000029A1  A$siofatfsg\SIOFS\siofatfs$818     siofatfs
C:   000029A3  A$siofatfsg\SIOFS\siofatfs$821     siofatfs
C:   000029A3  C$siofatfs.c$130$2_0$82            siofatfs
C:   000029A5  A$siofatfsg\SIOFS\siofatfs$822     siofatfs
C:   000029A7  A$siofatfsg\SIOFS\siofatfs$823     siofatfs
C:   000029A8  A$siofatfsg\SIOFS\siofatfs$824     siofatfs
C:   000029AA  A$siofatfsg\SIOFS\siofatfs$825     siofatfs
C:   000029AC  A$siofatfsg\SIOFS\siofatfs$826     siofatfs
C:   000029AE  A$siofatfsg\SIOFS\siofatfs$827     siofatfs
C:   000029AF  A$siofatfsg\SIOFS\siofatfs$828     siofatfs
C:   000029B0  A$siofatfsg\SIOFS\siofatfs$829     siofatfs
C:   000029B1  A$siofatfsg\SIOFS\siofatfs$830     siofatfs
C:   000029B3  A$siofatfsg\SIOFS\siofatfs$831     siofatfs
C:   000029B5  A$siofatfsg\SIOFS\siofatfs$832     siofatfs
C:   000029B7  A$siofatfsg\SIOFS\siofatfs$833     siofatfs
C:   000029BA  A$siofatfsg\SIOFS\siofatfs$834     siofatfs
C:   000029BB  A$siofatfsg\SIOFS\siofatfs$835     siofatfs
C:   000029BD  A$siofatfsg\SIOFS\siofatfs$836     siofatfs
C:   000029BF  A$siofatfsg\SIOFS\siofatfs$837     siofatfs
C:   000029C1  A$siofatfsg\SIOFS\siofatfs$838     siofatfs
C:   000029C3  A$siofatfsg\SIOFS\siofatfs$839     siofatfs
C:   000029C4  A$siofatfsg\SIOFS\siofatfs$840     siofatfs
C:   000029C6  A$siofatfsg\SIOFS\siofatfs$841     siofatfs
C:   000029C7  A$siofatfsg\SIOFS\siofatfs$842     siofatfs
C:   000029C9  A$siofatfsg\SIOFS\siofatfs$843     siofatfs
C:   000029CA  A$siofatfsg\SIOFS\siofatfs$844     siofatfs
C:   000029CC  A$siofatfsg\SIOFS\siofatfs$847     siofatfs
C:   000029CC  C$siofatfs.c$133$1_0$82            siofatfs
C:   000029CE  A$siofatfsg\SIOFS\siofatfs$848     siofatfs
C:   000029D0  A$siofatfsg\SIOFS\siofatfs$849     siofatfs
C:   000029D2  A$siofatfsg\SIOFS\siofatfs$850     siofatfs
C:   000029D4  A$siofatfsg\SIOFS\siofatfs$851     siofatfs
C:   000029D6  A$siofatfsg\SIOFS\siofatfs$852     siofatfs
C:   000029D8  A$siofatfsg\SIOFS\siofatfs$853     siofatfs
C:   000029D9  A$siofatfsg\SIOFS\siofatfs$854     siofatfs
C:   000029DB  A$siofatfsg\SIOFS\siofatfs$855     siofatfs
C:   000029DD  A$siofatfsg\SIOFS\siofatfs$856     siofatfs
C:   000029DF  A$siofatfsg\SIOFS\siofatfs$857     siofatfs
ASxxxx Linker V03.00 + NoICE + sdld,  page 157.
Hexadecimal  [32-Bits]

Area                                    Addr        Size        Decimal Bytes (Attributes)
--------------------------------        ----        ----        ------- ----- ------------
CSEG                                00000062    00003CB7 =       15543. bytes (REL,CON,CODE)

      Value  Global                              Global Defined In Module
      -----  --------------------------------   ------------------------
C:   000029E1  A$siofatfsg\SIOFS\siofatfs$858     siofatfs
C:   000029E4  A$siofatfsg\SIOFS\siofatfs$859     siofatfs
C:   000029E7  A$siofatfsg\SIOFS\siofatfs$860     siofatfs
C:   000029E9  A$siofatfsg\SIOFS\siofatfs$861     siofatfs
C:   000029EB  A$siofatfsg\SIOFS\siofatfs$862     siofatfs
C:   000029ED  A$siofatfsg\SIOFS\siofatfs$865     siofatfs
C:   000029ED  C$siofatfs.c$134$1_0$82            siofatfs
C:   000029EF  A$siofatfsg\SIOFS\siofatfs$866     siofatfs
C:   000029F0  A$siofatfsg\SIOFS\siofatfs$867     siofatfs
C:   000029F2  A$siofatfsg\SIOFS\siofatfs$868     siofatfs
C:   000029F4  A$siofatfsg\SIOFS\siofatfs$869     siofatfs
C:   000029F6  A$siofatfsg\SIOFS\siofatfs$870     siofatfs
C:   000029F8  A$siofatfsg\SIOFS\siofatfs$871     siofatfs
C:   000029FA  A$siofatfsg\SIOFS\siofatfs$872     siofatfs
C:   000029FC  A$siofatfsg\SIOFS\siofatfs$873     siofatfs
C:   000029FD  A$siofatfsg\SIOFS\siofatfs$874     siofatfs
C:   000029FF  A$siofatfsg\SIOFS\siofatfs$875     siofatfs
C:   00002A01  A$siofatfsg\SIOFS\siofatfs$876     siofatfs
C:   00002A03  A$siofatfsg\SIOFS\siofatfs$877     siofatfs
C:   00002A05  A$siofatfsg\SIOFS\siofatfs$878     siofatfs
C:   00002A08  A$siofatfsg\SIOFS\siofatfs$879     siofatfs
C:   00002A0B  A$siofatfsg\SIOFS\siofatfs$880     siofatfs
C:   00002A0D  A$siofatfsg\SIOFS\siofatfs$881     siofatfs
C:   00002A0F  A$siofatfsg\SIOFS\siofatfs$882     siofatfs
C:   00002A11  A$siofatfsg\SIOFS\siofatfs$883     siofatfs
C:   00002A13  A$siofatfsg\SIOFS\siofatfs$884     siofatfs
C:   00002A15  A$siofatfsg\SIOFS\siofatfs$887     siofatfs
C:   00002A15  C$siofatfs.c$135$1_0$82            siofatfs
C:   00002A17  A$siofatfsg\SIOFS\siofatfs$888     siofatfs
C:   00002A1A  A$siofatfsg\SIOFS\siofatfs$889     siofatfs
C:   00002A1C  A$siofatfsg\SIOFS\siofatfs$890     siofatfs
C:   00002A1E  A$siofatfsg\SIOFS\siofatfs$891     siofatfs
C:   00002A20  A$siofatfsg\SIOFS\siofatfs$892     siofatfs
C:   00002A21  A$siofatfsg\SIOFS\siofatfs$893     siofatfs
C:   00002A24  A$siofatfsg\SIOFS\siofatfs$894     siofatfs
C:   00002A25  A$siofatfsg\SIOFS\siofatfs$895     siofatfs
C:   00002A28  A$siofatfsg\SIOFS\siofatfs$898     siofatfs
C:   00002A28  C$siofatfs.c$137$2_0$83            siofatfs
C:   00002A29  A$siofatfsg\SIOFS\siofatfs$899     siofatfs
C:   00002A2B  A$siofatfsg\SIOFS\siofatfs$900     siofatfs
C:   00002A2D  A$siofatfsg\SIOFS\siofatfs$901     siofatfs
C:   00002A2F  A$siofatfsg\SIOFS\siofatfs$905     siofatfs
C:   00002A2F  C$siofatfs.c$141$2_0$84            siofatfs
C:   00002A32  A$siofatfsg\SIOFS\siofatfs$909     siofatfs
C:   00002A35  A$siofatfsg\SIOFS\siofatfs$910     siofatfs
C:   00002A37  A$siofatfsg\SIOFS\siofatfs$913     siofatfs
C:   00002A37  C$siofatfs.c$143$1_0$82            siofatfs
C:   00002A37  XG$siof_close$0$0                  siofatfs
C:   00002A38  A$siofatfsg\SIOFS\siofatfs$932     siofatfs
C:   00002A38  C$siofatfs.c$157$1_0$86            siofatfs
C:   00002A38  G$siof_read$0$0                    siofatfs
ASxxxx Linker V03.00 + NoICE + sdld,  page 158.
Hexadecimal  [32-Bits]

Area                                    Addr        Size        Decimal Bytes (Attributes)
--------------------------------        ----        ----        ------- ----- ------------
CSEG                                00000062    00003CB7 =       15543. bytes (REL,CON,CODE)

      Value  Global                              Global Defined In Module
      -----  --------------------------------   ------------------------
C:   00002A38  _siof_read                         siofatfs
C:   00002A3A  A$siofatfsg\SIOFS\siofatfs$933     siofatfs
C:   00002A3C  A$siofatfsg\SIOFS\siofatfs$934     siofatfs
C:   00002A3E  A$siofatfsg\SIOFS\siofatfs$935     siofatfs
C:   00002A40  A$siofatfsg\SIOFS\siofatfs$936     siofatfs
C:   00002A42  A$siofatfsg\SIOFS\siofatfs$937     siofatfs
C:   00002A44  A$siofatfsg\SIOFS\siofatfs$938     siofatfs
C:   00002A46  A$siofatfsg\SIOFS\siofatfs$939     siofatfs
C:   00002A48  A$siofatfsg\SIOFS\siofatfs$942     siofatfs
C:   00002A48  C$siofatfs.c$160$2_0$86            siofatfs
C:   00002A4A  A$siofatfsg\SIOFS\siofatfs$943     siofatfs
C:   00002A4B  A$siofatfsg\SIOFS\siofatfs$944     siofatfs
C:   00002A4C  A$siofatfsg\SIOFS\siofatfs$945     siofatfs
C:   00002A4E  A$siofatfsg\SIOFS\siofatfs$946     siofatfs
C:   00002A50  A$siofatfsg\SIOFS\siofatfs$947     siofatfs
C:   00002A51  A$siofatfsg\SIOFS\siofatfs$948     siofatfs
C:   00002A52  A$siofatfsg\SIOFS\siofatfs$949     siofatfs
C:   00002A53  A$siofatfsg\SIOFS\siofatfs$950     siofatfs
C:   00002A54  A$siofatfsg\SIOFS\siofatfs$951     siofatfs
C:   00002A56  A$siofatfsg\SIOFS\siofatfs$952     siofatfs
C:   00002A58  A$siofatfsg\SIOFS\siofatfs$953     siofatfs
C:   00002A5A  A$siofatfsg\SIOFS\siofatfs$954     siofatfs
C:   00002A5D  A$siofatfsg\SIOFS\siofatfs$955     siofatfs
C:   00002A5E  A$siofatfsg\SIOFS\siofatfs$956     siofatfs
C:   00002A60  A$siofatfsg\SIOFS\siofatfs$957     siofatfs
C:   00002A62  A$siofatfsg\SIOFS\siofatfs$958     siofatfs
C:   00002A64  A$siofatfsg\SIOFS\siofatfs$959     siofatfs
C:   00002A66  A$siofatfsg\SIOFS\siofatfs$960     siofatfs
C:   00002A67  A$siofatfsg\SIOFS\siofatfs$961     siofatfs
C:   00002A69  A$siofatfsg\SIOFS\siofatfs$962     siofatfs
C:   00002A6A  A$siofatfsg\SIOFS\siofatfs$963     siofatfs
C:   00002A6C  A$siofatfsg\SIOFS\siofatfs$964     siofatfs
C:   00002A6D  A$siofatfsg\SIOFS\siofatfs$965     siofatfs
C:   00002A6F  A$siofatfsg\SIOFS\siofatfs$966     siofatfs
C:   00002A71  A$siofatfsg\SIOFS\siofatfs$967     siofatfs
C:   00002A72  A$siofatfsg\SIOFS\siofatfs$968     siofatfs
C:   00002A73  A$siofatfsg\SIOFS\siofatfs$969     siofatfs
C:   00002A75  A$siofatfsg\SIOFS\siofatfs$970     siofatfs
C:   00002A77  A$siofatfsg\SIOFS\siofatfs$971     siofatfs
C:   00002A79  A$siofatfsg\SIOFS\siofatfs$972     siofatfs
C:   00002A7A  A$siofatfsg\SIOFS\siofatfs$973     siofatfs
C:   00002A7C  A$siofatfsg\SIOFS\siofatfs$974     siofatfs
C:   00002A7D  A$siofatfsg\SIOFS\siofatfs$975     siofatfs
C:   00002A7F  A$siofatfsg\SIOFS\siofatfs$976     siofatfs
C:   00002A81  A$siofatfsg\SIOFS\siofatfs$977     siofatfs
C:   00002A83  A$siofatfsg\SIOFS\siofatfs$978     siofatfs
C:   00002A85  A$siofatfsg\SIOFS\siofatfs$979     siofatfs
C:   00002A87  A$siofatfsg\SIOFS\siofatfs$980     siofatfs
C:   00002A88  A$siofatfsg\SIOFS\siofatfs$981     siofatfs
C:   00002A8A  A$siofatfsg\SIOFS\siofatfs$982     siofatfs
C:   00002A8B  A$siofatfsg\SIOFS\siofatfs$983     siofatfs
ASxxxx Linker V03.00 + NoICE + sdld,  page 159.
Hexadecimal  [32-Bits]

Area                                    Addr        Size        Decimal Bytes (Attributes)
--------------------------------        ----        ----        ------- ----- ------------
CSEG                                00000062    00003CB7 =       15543. bytes (REL,CON,CODE)

      Value  Global                              Global Defined In Module
      -----  --------------------------------   ------------------------
C:   00002A8D  A$siofatfsg\SIOFS\siofatfs$984     siofatfs
C:   00002A8E  A$siofatfsg\SIOFS\siofatfs$985     siofatfs
C:   00002A90  A$siofatfsg\SIOFS\siofatfs$988     siofatfs
C:   00002A90  C$siofatfs.c$163$1_0$86            siofatfs
C:   00002A92  A$siofatfsg\SIOFS\siofatfs$989     siofatfs
C:   00002A94  A$siofatfsg\SIOFS\siofatfs$990     siofatfs
C:   00002A96  A$siofatfsg\SIOFS\siofatfs$991     siofatfs
C:   00002A98  A$siofatfsg\SIOFS\siofatfs$992     siofatfs
C:   00002A9A  A$siofatfsg\SIOFS\siofatfs$993     siofatfs
C:   00002A9C  A$siofatfsg\SIOFS\siofatfs$994     siofatfs
C:   00002A9D  A$siofatfsg\SIOFS\siofatfs$995     siofatfs
C:   00002A9F  A$siofatfsg\SIOFS\siofatfs$996     siofatfs
C:   00002AA1  A$siofatfsg\SIOFS\siofatfs$997     siofatfs
C:   00002AA3  A$siofatfsg\SIOFS\siofatfs$998     siofatfs
C:   00002AA5  A$siofatfsg\SIOFS\siofatfs$999     siofatfs
C:   00002AA8  A$siofatfsg\SIOFS\siofatfs$1000    siofatfs
C:   00002AAB  A$siofatfsg\SIOFS\siofatfs$1001    siofatfs
C:   00002AAD  A$siofatfsg\SIOFS\siofatfs$1002    siofatfs
C:   00002AAF  A$siofatfsg\SIOFS\siofatfs$1003    siofatfs
C:   00002AB1  A$siofatfsg\SIOFS\siofatfs$1006    siofatfs
C:   00002AB1  C$siofatfs.c$164$1_0$86            siofatfs
C:   00002AB3  A$siofatfsg\SIOFS\siofatfs$1007    siofatfs
C:   00002AB5  A$siofatfsg\SIOFS\siofatfs$1008    siofatfs
C:   00002AB6  A$siofatfsg\SIOFS\siofatfs$1009    siofatfs
C:   00002AB7  A$siofatfsg\SIOFS\siofatfs$1010    siofatfs
C:   00002AB9  A$siofatfsg\SIOFS\siofatfs$1011    siofatfs
C:   00002ABB  A$siofatfsg\SIOFS\siofatfs$1012    siofatfs
C:   00002ABD  A$siofatfsg\SIOFS\siofatfs$1013    siofatfs
C:   00002ABF  A$siofatfsg\SIOFS\siofatfs$1014    siofatfs
C:   00002AC1  A$siofatfsg\SIOFS\siofatfs$1015    siofatfs
C:   00002AC2  A$siofatfsg\SIOFS\siofatfs$1016    siofatfs
C:   00002AC4  A$siofatfsg\SIOFS\siofatfs$1017    siofatfs
C:   00002AC6  A$siofatfsg\SIOFS\siofatfs$1018    siofatfs
C:   00002AC8  A$siofatfsg\SIOFS\siofatfs$1019    siofatfs
C:   00002ACA  A$siofatfsg\SIOFS\siofatfs$1020    siofatfs
C:   00002ACD  A$siofatfsg\SIOFS\siofatfs$1021    siofatfs
C:   00002AD0  A$siofatfsg\SIOFS\siofatfs$1022    siofatfs
C:   00002AD2  A$siofatfsg\SIOFS\siofatfs$1023    siofatfs
C:   00002AD4  A$siofatfsg\SIOFS\siofatfs$1024    siofatfs
C:   00002AD6  A$siofatfsg\SIOFS\siofatfs$1025    siofatfs
C:   00002AD8  A$siofatfsg\SIOFS\siofatfs$1026    siofatfs
C:   00002ADA  A$siofatfsg\SIOFS\siofatfs$1029    siofatfs
C:   00002ADA  C$siofatfs.c$165$1_0$86            siofatfs
C:   00002ADC  A$siofatfsg\SIOFS\siofatfs$1030    siofatfs
C:   00002ADF  A$siofatfsg\SIOFS\siofatfs$1031    siofatfs
C:   00002AE1  A$siofatfsg\SIOFS\siofatfs$1032    siofatfs
C:   00002AE3  A$siofatfsg\SIOFS\siofatfs$1033    siofatfs
C:   00002AE5  A$siofatfsg\SIOFS\siofatfs$1034    siofatfs
C:   00002AE6  A$siofatfsg\SIOFS\siofatfs$1035    siofatfs
C:   00002AE9  A$siofatfsg\SIOFS\siofatfs$1036    siofatfs
C:   00002AEA  A$siofatfsg\SIOFS\siofatfs$1037    siofatfs
ASxxxx Linker V03.00 + NoICE + sdld,  page 160.
Hexadecimal  [32-Bits]

Area                                    Addr        Size        Decimal Bytes (Attributes)
--------------------------------        ----        ----        ------- ----- ------------
CSEG                                00000062    00003CB7 =       15543. bytes (REL,CON,CODE)

      Value  Global                              Global Defined In Module
      -----  --------------------------------   ------------------------
C:   00002AED  A$siofatfsg\SIOFS\siofatfs$1040    siofatfs
C:   00002AED  C$siofatfs.c$167$2_0$87            siofatfs
C:   00002AEE  A$siofatfsg\SIOFS\siofatfs$1041    siofatfs
C:   00002AEF  A$siofatfsg\SIOFS\siofatfs$1042    siofatfs
C:   00002AF0  A$siofatfsg\SIOFS\siofatfs$1043    siofatfs
C:   00002AF2  A$siofatfsg\SIOFS\siofatfs$1044    siofatfs
C:   00002AF4  A$siofatfsg\SIOFS\siofatfs$1045    siofatfs
C:   00002AF6  A$siofatfsg\SIOFS\siofatfs$1046    siofatfs
C:   00002AF8  A$siofatfsg\SIOFS\siofatfs$1047    siofatfs
C:   00002AFA  A$siofatfsg\SIOFS\siofatfs$1048    siofatfs
C:   00002AFB  A$siofatfsg\SIOFS\siofatfs$1049    siofatfs
C:   00002AFD  A$siofatfsg\SIOFS\siofatfs$1050    siofatfs
C:   00002AFE  A$siofatfsg\SIOFS\siofatfs$1051    siofatfs
C:   00002B00  A$siofatfsg\SIOFS\siofatfs$1052    siofatfs
C:   00002B01  A$siofatfsg\SIOFS\siofatfs$1053    siofatfs
C:   00002B03  A$siofatfsg\SIOFS\siofatfs$1054    siofatfs
C:   00002B05  A$siofatfsg\SIOFS\siofatfs$1055    siofatfs
C:   00002B07  A$siofatfsg\SIOFS\siofatfs$1056    siofatfs
C:   00002B09  A$siofatfsg\SIOFS\siofatfs$1057    siofatfs
C:   00002B0B  A$siofatfsg\SIOFS\siofatfs$1058    siofatfs
C:   00002B0D  A$siofatfsg\SIOFS\siofatfs$1059    siofatfs
C:   00002B0F  A$siofatfsg\SIOFS\siofatfs$1060    siofatfs
C:   00002B11  A$siofatfsg\SIOFS\siofatfs$1061    siofatfs
C:   00002B13  A$siofatfsg\SIOFS\siofatfs$1062    siofatfs
C:   00002B16  A$siofatfsg\SIOFS\siofatfs$1063    siofatfs
C:   00002B19  A$siofatfsg\SIOFS\siofatfs$1064    siofatfs
C:   00002B1B  A$siofatfsg\SIOFS\siofatfs$1065    siofatfs
C:   00002B1D  A$siofatfsg\SIOFS\siofatfs$1066    siofatfs
C:   00002B1F  A$siofatfsg\SIOFS\siofatfs$1067    siofatfs
C:   00002B21  A$siofatfsg\SIOFS\siofatfs$1068    siofatfs
C:   00002B23  A$siofatfsg\SIOFS\siofatfs$1071    siofatfs
C:   00002B23  C$siofatfs.c$168$2_0$87            siofatfs
C:   00002B25  A$siofatfsg\SIOFS\siofatfs$1072    siofatfs
C:   00002B27  A$siofatfsg\SIOFS\siofatfs$1073    siofatfs
C:   00002B29  A$siofatfsg\SIOFS\siofatfs$1074    siofatfs
C:   00002B2A  A$siofatfsg\SIOFS\siofatfs$1075    siofatfs
C:   00002B2C  A$siofatfsg\SIOFS\siofatfs$1076    siofatfs
C:   00002B2D  A$siofatfsg\SIOFS\siofatfs$1077    siofatfs
C:   00002B2F  A$siofatfsg\SIOFS\siofatfs$1078    siofatfs
C:   00002B30  A$siofatfsg\SIOFS\siofatfs$1079    siofatfs
C:   00002B32  A$siofatfsg\SIOFS\siofatfs$1080    siofatfs
C:   00002B34  A$siofatfsg\SIOFS\siofatfs$1081    siofatfs
C:   00002B36  A$siofatfsg\SIOFS\siofatfs$1082    siofatfs
C:   00002B38  A$siofatfsg\SIOFS\siofatfs$1083    siofatfs
C:   00002B3A  A$siofatfsg\SIOFS\siofatfs$1084    siofatfs
C:   00002B3C  A$siofatfsg\SIOFS\siofatfs$1085    siofatfs
C:   00002B3E  A$siofatfsg\SIOFS\siofatfs$1086    siofatfs
C:   00002B3F  A$siofatfsg\SIOFS\siofatfs$1087    siofatfs
C:   00002B42  A$siofatfsg\SIOFS\siofatfs$1088    siofatfs
C:   00002B43  A$siofatfsg\SIOFS\siofatfs$1089    siofatfs
C:   00002B44  A$siofatfsg\SIOFS\siofatfs$1090    siofatfs
ASxxxx Linker V03.00 + NoICE + sdld,  page 161.
Hexadecimal  [32-Bits]

Area                                    Addr        Size        Decimal Bytes (Attributes)
--------------------------------        ----        ----        ------- ----- ------------
CSEG                                00000062    00003CB7 =       15543. bytes (REL,CON,CODE)

      Value  Global                              Global Defined In Module
      -----  --------------------------------   ------------------------
C:   00002B47  A$siofatfsg\SIOFS\siofatfs$1093    siofatfs
C:   00002B47  C$siofatfs.c$169$2_0$87            siofatfs
C:   00002B48  A$siofatfsg\SIOFS\siofatfs$1094    siofatfs
C:   00002B49  A$siofatfsg\SIOFS\siofatfs$1095    siofatfs
C:   00002B4B  A$siofatfsg\SIOFS\siofatfs$1096    siofatfs
C:   00002B4D  A$siofatfsg\SIOFS\siofatfs$1097    siofatfs
C:   00002B4F  A$siofatfsg\SIOFS\siofatfs$1101    siofatfs
C:   00002B4F  C$siofatfs.c$173$2_0$88            siofatfs
C:   00002B52  A$siofatfsg\SIOFS\siofatfs$1105    siofatfs
C:   00002B55  A$siofatfsg\SIOFS\siofatfs$1106    siofatfs
C:   00002B57  A$siofatfsg\SIOFS\siofatfs$1109    siofatfs
C:   00002B57  C$siofatfs.c$175$1_0$86            siofatfs
C:   00002B57  XG$siof_read$0$0                   siofatfs
C:   00002B58  A$siofatfsg\SIOFS\siofatfs$1128    siofatfs
C:   00002B58  C$siofatfs.c$189$1_0$90            siofatfs
C:   00002B58  G$siof_write$0$0                   siofatfs
C:   00002B58  _siof_write                        siofatfs
C:   00002B5A  A$siofatfsg\SIOFS\siofatfs$1129    siofatfs
C:   00002B5C  A$siofatfsg\SIOFS\siofatfs$1130    siofatfs
C:   00002B5E  A$siofatfsg\SIOFS\siofatfs$1131    siofatfs
C:   00002B60  A$siofatfsg\SIOFS\siofatfs$1132    siofatfs
C:   00002B62  A$siofatfsg\SIOFS\siofatfs$1133    siofatfs
C:   00002B64  A$siofatfsg\SIOFS\siofatfs$1134    siofatfs
C:   00002B66  A$siofatfsg\SIOFS\siofatfs$1135    siofatfs
C:   00002B68  A$siofatfsg\SIOFS\siofatfs$1138    siofatfs
C:   00002B68  C$siofatfs.c$192$2_0$90            siofatfs
C:   00002B6A  A$siofatfsg\SIOFS\siofatfs$1139    siofatfs
C:   00002B6B  A$siofatfsg\SIOFS\siofatfs$1140    siofatfs
C:   00002B6C  A$siofatfsg\SIOFS\siofatfs$1141    siofatfs
C:   00002B6E  A$siofatfsg\SIOFS\siofatfs$1142    siofatfs
C:   00002B70  A$siofatfsg\SIOFS\siofatfs$1143    siofatfs
C:   00002B71  A$siofatfsg\SIOFS\siofatfs$1144    siofatfs
C:   00002B72  A$siofatfsg\SIOFS\siofatfs$1145    siofatfs
C:   00002B73  A$siofatfsg\SIOFS\siofatfs$1146    siofatfs
C:   00002B74  A$siofatfsg\SIOFS\siofatfs$1147    siofatfs
C:   00002B76  A$siofatfsg\SIOFS\siofatfs$1148    siofatfs
C:   00002B78  A$siofatfsg\SIOFS\siofatfs$1149    siofatfs
C:   00002B7A  A$siofatfsg\SIOFS\siofatfs$1150    siofatfs
C:   00002B7D  A$siofatfsg\SIOFS\siofatfs$1151    siofatfs
C:   00002B7E  A$siofatfsg\SIOFS\siofatfs$1152    siofatfs
C:   00002B80  A$siofatfsg\SIOFS\siofatfs$1153    siofatfs
C:   00002B82  A$siofatfsg\SIOFS\siofatfs$1154    siofatfs
C:   00002B84  A$siofatfsg\SIOFS\siofatfs$1155    siofatfs
C:   00002B86  A$siofatfsg\SIOFS\siofatfs$1156    siofatfs
C:   00002B87  A$siofatfsg\SIOFS\siofatfs$1157    siofatfs
C:   00002B89  A$siofatfsg\SIOFS\siofatfs$1158    siofatfs
C:   00002B8A  A$siofatfsg\SIOFS\siofatfs$1159    siofatfs
C:   00002B8C  A$siofatfsg\SIOFS\siofatfs$1160    siofatfs
C:   00002B8D  A$siofatfsg\SIOFS\siofatfs$1161    siofatfs
C:   00002B8F  A$siofatfsg\SIOFS\siofatfs$1162    siofatfs
C:   00002B91  A$siofatfsg\SIOFS\siofatfs$1163    siofatfs
ASxxxx Linker V03.00 + NoICE + sdld,  page 162.
Hexadecimal  [32-Bits]

Area                                    Addr        Size        Decimal Bytes (Attributes)
--------------------------------        ----        ----        ------- ----- ------------
CSEG                                00000062    00003CB7 =       15543. bytes (REL,CON,CODE)

      Value  Global                              Global Defined In Module
      -----  --------------------------------   ------------------------
C:   00002B92  A$siofatfsg\SIOFS\siofatfs$1164    siofatfs
C:   00002B93  A$siofatfsg\SIOFS\siofatfs$1165    siofatfs
C:   00002B95  A$siofatfsg\SIOFS\siofatfs$1166    siofatfs
C:   00002B97  A$siofatfsg\SIOFS\siofatfs$1167    siofatfs
C:   00002B99  A$siofatfsg\SIOFS\siofatfs$1168    siofatfs
C:   00002B9A  A$siofatfsg\SIOFS\siofatfs$1169    siofatfs
C:   00002B9C  A$siofatfsg\SIOFS\siofatfs$1170    siofatfs
C:   00002B9D  A$siofatfsg\SIOFS\siofatfs$1171    siofatfs
C:   00002B9F  A$siofatfsg\SIOFS\siofatfs$1172    siofatfs
C:   00002BA1  A$siofatfsg\SIOFS\siofatfs$1173    siofatfs
C:   00002BA3  A$siofatfsg\SIOFS\siofatfs$1174    siofatfs
C:   00002BA5  A$siofatfsg\SIOFS\siofatfs$1175    siofatfs
C:   00002BA7  A$siofatfsg\SIOFS\siofatfs$1176    siofatfs
C:   00002BA8  A$siofatfsg\SIOFS\siofatfs$1177    siofatfs
C:   00002BAA  A$siofatfsg\SIOFS\siofatfs$1178    siofatfs
C:   00002BAB  A$siofatfsg\SIOFS\siofatfs$1179    siofatfs
C:   00002BAD  A$siofatfsg\SIOFS\siofatfs$1180    siofatfs
C:   00002BAE  A$siofatfsg\SIOFS\siofatfs$1181    siofatfs
C:   00002BB0  A$siofatfsg\SIOFS\siofatfs$1184    siofatfs
C:   00002BB0  C$siofatfs.c$195$1_0$90            siofatfs
C:   00002BB2  A$siofatfsg\SIOFS\siofatfs$1185    siofatfs
C:   00002BB4  A$siofatfsg\SIOFS\siofatfs$1186    siofatfs
C:   00002BB6  A$siofatfsg\SIOFS\siofatfs$1187    siofatfs
C:   00002BB8  A$siofatfsg\SIOFS\siofatfs$1188    siofatfs
C:   00002BBA  A$siofatfsg\SIOFS\siofatfs$1189    siofatfs
C:   00002BBC  A$siofatfsg\SIOFS\siofatfs$1190    siofatfs
C:   00002BBD  A$siofatfsg\SIOFS\siofatfs$1191    siofatfs
C:   00002BBF  A$siofatfsg\SIOFS\siofatfs$1192    siofatfs
C:   00002BC1  A$siofatfsg\SIOFS\siofatfs$1193    siofatfs
C:   00002BC3  A$siofatfsg\SIOFS\siofatfs$1194    siofatfs
C:   00002BC5  A$siofatfsg\SIOFS\siofatfs$1195    siofatfs
C:   00002BC8  A$siofatfsg\SIOFS\siofatfs$1196    siofatfs
C:   00002BCB  A$siofatfsg\SIOFS\siofatfs$1197    siofatfs
C:   00002BCD  A$siofatfsg\SIOFS\siofatfs$1198    siofatfs
C:   00002BCF  A$siofatfsg\SIOFS\siofatfs$1199    siofatfs
C:   00002BD1  A$siofatfsg\SIOFS\siofatfs$1202    siofatfs
C:   00002BD1  C$siofatfs.c$196$1_0$90            siofatfs
C:   00002BD3  A$siofatfsg\SIOFS\siofatfs$1203    siofatfs
C:   00002BD5  A$siofatfsg\SIOFS\siofatfs$1204    siofatfs
C:   00002BD6  A$siofatfsg\SIOFS\siofatfs$1205    siofatfs
C:   00002BD8  A$siofatfsg\SIOFS\siofatfs$1206    siofatfs
C:   00002BD9  A$siofatfsg\SIOFS\siofatfs$1207    siofatfs
C:   00002BDB  A$siofatfsg\SIOFS\siofatfs$1208    siofatfs
C:   00002BDC  A$siofatfsg\SIOFS\siofatfs$1209    siofatfs
C:   00002BDE  A$siofatfsg\SIOFS\siofatfs$1210    siofatfs
C:   00002BE0  A$siofatfsg\SIOFS\siofatfs$1211    siofatfs
C:   00002BE2  A$siofatfsg\SIOFS\siofatfs$1212    siofatfs
C:   00002BE3  A$siofatfsg\SIOFS\siofatfs$1213    siofatfs
C:   00002BE4  A$siofatfsg\SIOFS\siofatfs$1214    siofatfs
C:   00002BE6  A$siofatfsg\SIOFS\siofatfs$1215    siofatfs
C:   00002BE7  A$siofatfsg\SIOFS\siofatfs$1216    siofatfs
ASxxxx Linker V03.00 + NoICE + sdld,  page 163.
Hexadecimal  [32-Bits]

Area                                    Addr        Size        Decimal Bytes (Attributes)
--------------------------------        ----        ----        ------- ----- ------------
CSEG                                00000062    00003CB7 =       15543. bytes (REL,CON,CODE)

      Value  Global                              Global Defined In Module
      -----  --------------------------------   ------------------------
C:   00002BE8  A$siofatfsg\SIOFS\siofatfs$1217    siofatfs
C:   00002BEA  A$siofatfsg\SIOFS\siofatfs$1218    siofatfs
C:   00002BEC  A$siofatfsg\SIOFS\siofatfs$1219    siofatfs
C:   00002BEE  A$siofatfsg\SIOFS\siofatfs$1220    siofatfs
C:   00002BF0  A$siofatfsg\SIOFS\siofatfs$1221    siofatfs
C:   00002BF3  A$siofatfsg\SIOFS\siofatfs$1222    siofatfs
C:   00002BF6  A$siofatfsg\SIOFS\siofatfs$1223    siofatfs
C:   00002BF8  A$siofatfsg\SIOFS\siofatfs$1224    siofatfs
C:   00002BFA  A$siofatfsg\SIOFS\siofatfs$1225    siofatfs
C:   00002BFC  A$siofatfsg\SIOFS\siofatfs$1228    siofatfs
C:   00002BFC  C$siofatfs.c$197$1_0$90            siofatfs
C:   00002BFE  A$siofatfsg\SIOFS\siofatfs$1229    siofatfs
C:   00002C00  A$siofatfsg\SIOFS\siofatfs$1230    siofatfs
C:   00002C01  A$siofatfsg\SIOFS\siofatfs$1231    siofatfs
C:   00002C02  A$siofatfsg\SIOFS\siofatfs$1232    siofatfs
C:   00002C04  A$siofatfsg\SIOFS\siofatfs$1233    siofatfs
C:   00002C06  A$siofatfsg\SIOFS\siofatfs$1234    siofatfs
C:   00002C08  A$siofatfsg\SIOFS\siofatfs$1235    siofatfs
C:   00002C0A  A$siofatfsg\SIOFS\siofatfs$1236    siofatfs
C:   00002C0C  A$siofatfsg\SIOFS\siofatfs$1237    siofatfs
C:   00002C0D  A$siofatfsg\SIOFS\siofatfs$1238    siofatfs
C:   00002C0F  A$siofatfsg\SIOFS\siofatfs$1239    siofatfs
C:   00002C11  A$siofatfsg\SIOFS\siofatfs$1240    siofatfs
C:   00002C13  A$siofatfsg\SIOFS\siofatfs$1241    siofatfs
C:   00002C15  A$siofatfsg\SIOFS\siofatfs$1242    siofatfs
C:   00002C18  A$siofatfsg\SIOFS\siofatfs$1243    siofatfs
C:   00002C1B  A$siofatfsg\SIOFS\siofatfs$1244    siofatfs
C:   00002C1D  A$siofatfsg\SIOFS\siofatfs$1245    siofatfs
C:   00002C1F  A$siofatfsg\SIOFS\siofatfs$1246    siofatfs
C:   00002C21  A$siofatfsg\SIOFS\siofatfs$1247    siofatfs
C:   00002C23  A$siofatfsg\SIOFS\siofatfs$1248    siofatfs
C:   00002C25  A$siofatfsg\SIOFS\siofatfs$1251    siofatfs
C:   00002C25  C$siofatfs.c$198$1_0$90            siofatfs
C:   00002C27  A$siofatfsg\SIOFS\siofatfs$1252    siofatfs
C:   00002C2A  A$siofatfsg\SIOFS\siofatfs$1253    siofatfs
C:   00002C2C  A$siofatfsg\SIOFS\siofatfs$1254    siofatfs
C:   00002C2E  A$siofatfsg\SIOFS\siofatfs$1255    siofatfs
C:   00002C30  A$siofatfsg\SIOFS\siofatfs$1256    siofatfs
C:   00002C31  A$siofatfsg\SIOFS\siofatfs$1257    siofatfs
C:   00002C34  A$siofatfsg\SIOFS\siofatfs$1258    siofatfs
C:   00002C35  A$siofatfsg\SIOFS\siofatfs$1259    siofatfs
C:   00002C38  A$siofatfsg\SIOFS\siofatfs$1262    siofatfs
C:   00002C38  C$siofatfs.c$200$2_0$91            siofatfs
C:   00002C3A  A$siofatfsg\SIOFS\siofatfs$1263    siofatfs
C:   00002C3C  A$siofatfsg\SIOFS\siofatfs$1264    siofatfs
C:   00002C3D  A$siofatfsg\SIOFS\siofatfs$1265    siofatfs
C:   00002C3F  A$siofatfsg\SIOFS\siofatfs$1266    siofatfs
C:   00002C40  A$siofatfsg\SIOFS\siofatfs$1267    siofatfs
C:   00002C42  A$siofatfsg\SIOFS\siofatfs$1268    siofatfs
C:   00002C43  A$siofatfsg\SIOFS\siofatfs$1269    siofatfs
C:   00002C45  A$siofatfsg\SIOFS\siofatfs$1270    siofatfs
ASxxxx Linker V03.00 + NoICE + sdld,  page 164.
Hexadecimal  [32-Bits]

Area                                    Addr        Size        Decimal Bytes (Attributes)
--------------------------------        ----        ----        ------- ----- ------------
CSEG                                00000062    00003CB7 =       15543. bytes (REL,CON,CODE)

      Value  Global                              Global Defined In Module
      -----  --------------------------------   ------------------------
C:   00002C46  A$siofatfsg\SIOFS\siofatfs$1271    siofatfs
C:   00002C47  A$siofatfsg\SIOFS\siofatfs$1272    siofatfs
C:   00002C48  A$siofatfsg\SIOFS\siofatfs$1273    siofatfs
C:   00002C4A  A$siofatfsg\SIOFS\siofatfs$1274    siofatfs
C:   00002C4C  A$siofatfsg\SIOFS\siofatfs$1275    siofatfs
C:   00002C4E  A$siofatfsg\SIOFS\siofatfs$1276    siofatfs
C:   00002C50  A$siofatfsg\SIOFS\siofatfs$1277    siofatfs
C:   00002C52  A$siofatfsg\SIOFS\siofatfs$1278    siofatfs
C:   00002C53  A$siofatfsg\SIOFS\siofatfs$1279    siofatfs
C:   00002C56  A$siofatfsg\SIOFS\siofatfs$1280    siofatfs
C:   00002C57  A$siofatfsg\SIOFS\siofatfs$1281    siofatfs
C:   00002C58  A$siofatfsg\SIOFS\siofatfs$1282    siofatfs
C:   00002C5B  A$siofatfsg\SIOFS\siofatfs$1285    siofatfs
C:   00002C5B  C$siofatfs.c$201$2_0$91            siofatfs
C:   00002C5C  A$siofatfsg\SIOFS\siofatfs$1286    siofatfs
C:   00002C5D  A$siofatfsg\SIOFS\siofatfs$1287    siofatfs
C:   00002C5F  A$siofatfsg\SIOFS\siofatfs$1288    siofatfs
C:   00002C61  A$siofatfsg\SIOFS\siofatfs$1289    siofatfs
C:   00002C63  A$siofatfsg\SIOFS\siofatfs$1293    siofatfs
C:   00002C63  C$siofatfs.c$205$2_0$92            siofatfs
C:   00002C66  A$siofatfsg\SIOFS\siofatfs$1297    siofatfs
C:   00002C69  A$siofatfsg\SIOFS\siofatfs$1298    siofatfs
C:   00002C6B  A$siofatfsg\SIOFS\siofatfs$1301    siofatfs
C:   00002C6B  C$siofatfs.c$207$1_0$90            siofatfs
C:   00002C6B  XG$siof_write$0$0                  siofatfs
C:   00002C6C  A$siofatfsg\SIOFS\siofatfs$1318    siofatfs
C:   00002C6C  C$siofatfs.c$220$1_0$94            siofatfs
C:   00002C6C  G$siof_lseek$0$0                   siofatfs
C:   00002C6C  _siof_lseek                        siofatfs
C:   00002C6E  A$siofatfsg\SIOFS\siofatfs$1319    siofatfs
C:   00002C70  A$siofatfsg\SIOFS\siofatfs$1320    siofatfs
C:   00002C72  A$siofatfsg\SIOFS\siofatfs$1321    siofatfs
C:   00002C74  A$siofatfsg\SIOFS\siofatfs$1322    siofatfs
C:   00002C76  A$siofatfsg\SIOFS\siofatfs$1323    siofatfs
C:   00002C78  A$siofatfsg\SIOFS\siofatfs$1324    siofatfs
C:   00002C7A  A$siofatfsg\SIOFS\siofatfs$1325    siofatfs
C:   00002C7C  A$siofatfsg\SIOFS\siofatfs$1328    siofatfs
C:   00002C7C  C$siofatfs.c$223$2_0$94            siofatfs
C:   00002C7E  A$siofatfsg\SIOFS\siofatfs$1329    siofatfs
C:   00002C80  A$siofatfsg\SIOFS\siofatfs$1330    siofatfs
C:   00002C81  A$siofatfsg\SIOFS\siofatfs$1331    siofatfs
C:   00002C83  A$siofatfsg\SIOFS\siofatfs$1332    siofatfs
C:   00002C85  A$siofatfsg\SIOFS\siofatfs$1333    siofatfs
C:   00002C87  A$siofatfsg\SIOFS\siofatfs$1334    siofatfs
C:   00002C88  A$siofatfsg\SIOFS\siofatfs$1335    siofatfs
C:   00002C89  A$siofatfsg\SIOFS\siofatfs$1336    siofatfs
C:   00002C8A  A$siofatfsg\SIOFS\siofatfs$1337    siofatfs
C:   00002C8C  A$siofatfsg\SIOFS\siofatfs$1338    siofatfs
C:   00002C8E  A$siofatfsg\SIOFS\siofatfs$1339    siofatfs
C:   00002C90  A$siofatfsg\SIOFS\siofatfs$1340    siofatfs
C:   00002C93  A$siofatfsg\SIOFS\siofatfs$1341    siofatfs
ASxxxx Linker V03.00 + NoICE + sdld,  page 165.
Hexadecimal  [32-Bits]

Area                                    Addr        Size        Decimal Bytes (Attributes)
--------------------------------        ----        ----        ------- ----- ------------
CSEG                                00000062    00003CB7 =       15543. bytes (REL,CON,CODE)

      Value  Global                              Global Defined In Module
      -----  --------------------------------   ------------------------
C:   00002C94  A$siofatfsg\SIOFS\siofatfs$1342    siofatfs
C:   00002C96  A$siofatfsg\SIOFS\siofatfs$1343    siofatfs
C:   00002C98  A$siofatfsg\SIOFS\siofatfs$1344    siofatfs
C:   00002C9A  A$siofatfsg\SIOFS\siofatfs$1345    siofatfs
C:   00002C9C  A$siofatfsg\SIOFS\siofatfs$1346    siofatfs
C:   00002C9D  A$siofatfsg\SIOFS\siofatfs$1347    siofatfs
C:   00002C9F  A$siofatfsg\SIOFS\siofatfs$1348    siofatfs
C:   00002CA0  A$siofatfsg\SIOFS\siofatfs$1349    siofatfs
C:   00002CA2  A$siofatfsg\SIOFS\siofatfs$1350    siofatfs
C:   00002CA3  A$siofatfsg\SIOFS\siofatfs$1351    siofatfs
C:   00002CA5  A$siofatfsg\SIOFS\siofatfs$1352    siofatfs
C:   00002CA7  A$siofatfsg\SIOFS\siofatfs$1353    siofatfs
C:   00002CA8  A$siofatfsg\SIOFS\siofatfs$1354    siofatfs
C:   00002CA9  A$siofatfsg\SIOFS\siofatfs$1355    siofatfs
C:   00002CAB  A$siofatfsg\SIOFS\siofatfs$1356    siofatfs
C:   00002CAD  A$siofatfsg\SIOFS\siofatfs$1357    siofatfs
C:   00002CAF  A$siofatfsg\SIOFS\siofatfs$1358    siofatfs
C:   00002CB0  A$siofatfsg\SIOFS\siofatfs$1359    siofatfs
C:   00002CB1  A$siofatfsg\SIOFS\siofatfs$1360    siofatfs
C:   00002CB2  A$siofatfsg\SIOFS\siofatfs$1361    siofatfs
C:   00002CB3  A$siofatfsg\SIOFS\siofatfs$1362    siofatfs
C:   00002CB4  A$siofatfsg\SIOFS\siofatfs$1363    siofatfs
C:   00002CB5  A$siofatfsg\SIOFS\siofatfs$1364    siofatfs
C:   00002CB6  A$siofatfsg\SIOFS\siofatfs$1365    siofatfs
C:   00002CB7  A$siofatfsg\SIOFS\siofatfs$1366    siofatfs
C:   00002CB8  A$siofatfsg\SIOFS\siofatfs$1367    siofatfs
C:   00002CB9  A$siofatfsg\SIOFS\siofatfs$1368    siofatfs
C:   00002CBA  A$siofatfsg\SIOFS\siofatfs$1369    siofatfs
C:   00002CBB  A$siofatfsg\SIOFS\siofatfs$1370    siofatfs
C:   00002CBC  A$siofatfsg\SIOFS\siofatfs$1371    siofatfs
C:   00002CBD  A$siofatfsg\SIOFS\siofatfs$1372    siofatfs
C:   00002CBE  A$siofatfsg\SIOFS\siofatfs$1373    siofatfs
C:   00002CC0  A$siofatfsg\SIOFS\siofatfs$1376    siofatfs
C:   00002CC0  C$siofatfs.c$226$1_0$94            siofatfs
C:   00002CC2  A$siofatfsg\SIOFS\siofatfs$1377    siofatfs
C:   00002CC4  A$siofatfsg\SIOFS\siofatfs$1378    siofatfs
C:   00002CC6  A$siofatfsg\SIOFS\siofatfs$1379    siofatfs
C:   00002CC8  A$siofatfsg\SIOFS\siofatfs$1380    siofatfs
C:   00002CCA  A$siofatfsg\SIOFS\siofatfs$1381    siofatfs
C:   00002CCC  A$siofatfsg\SIOFS\siofatfs$1382    siofatfs
C:   00002CCD  A$siofatfsg\SIOFS\siofatfs$1383    siofatfs
C:   00002CCF  A$siofatfsg\SIOFS\siofatfs$1384    siofatfs
C:   00002CD1  A$siofatfsg\SIOFS\siofatfs$1385    siofatfs
C:   00002CD3  A$siofatfsg\SIOFS\siofatfs$1386    siofatfs
C:   00002CD5  A$siofatfsg\SIOFS\siofatfs$1387    siofatfs
C:   00002CD8  A$siofatfsg\SIOFS\siofatfs$1388    siofatfs
C:   00002CDB  A$siofatfsg\SIOFS\siofatfs$1389    siofatfs
C:   00002CDD  A$siofatfsg\SIOFS\siofatfs$1390    siofatfs
C:   00002CDF  A$siofatfsg\SIOFS\siofatfs$1391    siofatfs
C:   00002CE1  A$siofatfsg\SIOFS\siofatfs$1394    siofatfs
C:   00002CE1  C$siofatfs.c$227$1_0$94            siofatfs
ASxxxx Linker V03.00 + NoICE + sdld,  page 166.
Hexadecimal  [32-Bits]

Area                                    Addr        Size        Decimal Bytes (Attributes)
--------------------------------        ----        ----        ------- ----- ------------
CSEG                                00000062    00003CB7 =       15543. bytes (REL,CON,CODE)

      Value  Global                              Global Defined In Module
      -----  --------------------------------   ------------------------
C:   00002CE3  A$siofatfsg\SIOFS\siofatfs$1395    siofatfs
C:   00002CE4  A$siofatfsg\SIOFS\siofatfs$1396    siofatfs
C:   00002CE6  A$siofatfsg\SIOFS\siofatfs$1397    siofatfs
C:   00002CE8  A$siofatfsg\SIOFS\siofatfs$1398    siofatfs
C:   00002CEA  A$siofatfsg\SIOFS\siofatfs$1399    siofatfs
C:   00002CEC  A$siofatfsg\SIOFS\siofatfs$1400    siofatfs
C:   00002CEE  A$siofatfsg\SIOFS\siofatfs$1401    siofatfs
C:   00002CF0  A$siofatfsg\SIOFS\siofatfs$1402    siofatfs
C:   00002CF1  A$siofatfsg\SIOFS\siofatfs$1403    siofatfs
C:   00002CF3  A$siofatfsg\SIOFS\siofatfs$1404    siofatfs
C:   00002CF5  A$siofatfsg\SIOFS\siofatfs$1405    siofatfs
C:   00002CF7  A$siofatfsg\SIOFS\siofatfs$1406    siofatfs
C:   00002CF9  A$siofatfsg\SIOFS\siofatfs$1407    siofatfs
C:   00002CFC  A$siofatfsg\SIOFS\siofatfs$1408    siofatfs
C:   00002CFF  A$siofatfsg\SIOFS\siofatfs$1409    siofatfs
C:   00002D01  A$siofatfsg\SIOFS\siofatfs$1410    siofatfs
C:   00002D03  A$siofatfsg\SIOFS\siofatfs$1411    siofatfs
C:   00002D05  A$siofatfsg\SIOFS\siofatfs$1412    siofatfs
C:   00002D07  A$siofatfsg\SIOFS\siofatfs$1413    siofatfs
C:   00002D09  A$siofatfsg\SIOFS\siofatfs$1416    siofatfs
C:   00002D09  C$siofatfs.c$228$1_0$94            siofatfs
C:   00002D0B  A$siofatfsg\SIOFS\siofatfs$1417    siofatfs
C:   00002D0E  A$siofatfsg\SIOFS\siofatfs$1418    siofatfs
C:   00002D10  A$siofatfsg\SIOFS\siofatfs$1419    siofatfs
C:   00002D12  A$siofatfsg\SIOFS\siofatfs$1420    siofatfs
C:   00002D14  A$siofatfsg\SIOFS\siofatfs$1421    siofatfs
C:   00002D15  A$siofatfsg\SIOFS\siofatfs$1422    siofatfs
C:   00002D18  A$siofatfsg\SIOFS\siofatfs$1423    siofatfs
C:   00002D19  A$siofatfsg\SIOFS\siofatfs$1424    siofatfs
C:   00002D1C  A$siofatfsg\SIOFS\siofatfs$1427    siofatfs
C:   00002D1C  C$siofatfs.c$230$2_0$95            siofatfs
C:   00002D1D  A$siofatfsg\SIOFS\siofatfs$1428    siofatfs
C:   00002D1F  A$siofatfsg\SIOFS\siofatfs$1429    siofatfs
C:   00002D21  A$siofatfsg\SIOFS\siofatfs$1430    siofatfs
C:   00002D23  A$siofatfsg\SIOFS\siofatfs$1434    siofatfs
C:   00002D23  C$siofatfs.c$234$2_0$96            siofatfs
C:   00002D26  A$siofatfsg\SIOFS\siofatfs$1438    siofatfs
C:   00002D29  A$siofatfsg\SIOFS\siofatfs$1439    siofatfs
C:   00002D2B  A$siofatfsg\SIOFS\siofatfs$1442    siofatfs
C:   00002D2B  C$siofatfs.c$236$1_0$94            siofatfs
C:   00002D2B  XG$siof_lseek$0$0                  siofatfs
C:   00002D2C  A$siofatfsg\SIOFS\siofatfs$1458    siofatfs
C:   00002D2C  C$siofatfs.c$248$1_0$98            siofatfs
C:   00002D2C  G$siof_mkdir$0$0                   siofatfs
C:   00002D2C  _siof_mkdir                        siofatfs
C:   00002D2E  A$siofatfsg\SIOFS\siofatfs$1459    siofatfs
C:   00002D31  A$siofatfsg\SIOFS\siofatfs$1460    siofatfs
C:   00002D33  A$siofatfsg\SIOFS\siofatfs$1461    siofatfs
C:   00002D35  A$siofatfsg\SIOFS\siofatfs$1462    siofatfs
C:   00002D37  A$siofatfsg\SIOFS\siofatfs$1463    siofatfs
C:   00002D39  A$siofatfsg\SIOFS\siofatfs$1464    siofatfs
ASxxxx Linker V03.00 + NoICE + sdld,  page 167.
Hexadecimal  [32-Bits]

Area                                    Addr        Size        Decimal Bytes (Attributes)
--------------------------------        ----        ----        ------- ----- ------------
CSEG                                00000062    00003CB7 =       15543. bytes (REL,CON,CODE)

      Value  Global                              Global Defined In Module
      -----  --------------------------------   ------------------------
C:   00002D3B  A$siofatfsg\SIOFS\siofatfs$1465    siofatfs
C:   00002D3D  A$siofatfsg\SIOFS\siofatfs$1468    siofatfs
C:   00002D3D  C$siofatfs.c$251$2_0$98            siofatfs
C:   00002D3F  A$siofatfsg\SIOFS\siofatfs$1469    siofatfs
C:   00002D41  A$siofatfsg\SIOFS\siofatfs$1470    siofatfs
C:   00002D42  A$siofatfsg\SIOFS\siofatfs$1471    siofatfs
C:   00002D44  A$siofatfsg\SIOFS\siofatfs$1472    siofatfs
C:   00002D46  A$siofatfsg\SIOFS\siofatfs$1473    siofatfs
C:   00002D48  A$siofatfsg\SIOFS\siofatfs$1474    siofatfs
C:   00002D49  A$siofatfsg\SIOFS\siofatfs$1475    siofatfs
C:   00002D4A  A$siofatfsg\SIOFS\siofatfs$1476    siofatfs
C:   00002D4B  A$siofatfsg\SIOFS\siofatfs$1477    siofatfs
C:   00002D4D  A$siofatfsg\SIOFS\siofatfs$1478    siofatfs
C:   00002D4F  A$siofatfsg\SIOFS\siofatfs$1479    siofatfs
C:   00002D50  A$siofatfsg\SIOFS\siofatfs$1480    siofatfs
C:   00002D52  A$siofatfsg\SIOFS\siofatfs$1481    siofatfs
C:   00002D53  A$siofatfsg\SIOFS\siofatfs$1482    siofatfs
C:   00002D55  A$siofatfsg\SIOFS\siofatfs$1483    siofatfs
C:   00002D56  A$siofatfsg\SIOFS\siofatfs$1484    siofatfs
C:   00002D58  A$siofatfsg\SIOFS\siofatfs$1485    siofatfs
C:   00002D5A  A$siofatfsg\SIOFS\siofatfs$1486    siofatfs
C:   00002D5C  A$siofatfsg\SIOFS\siofatfs$1487    siofatfs
C:   00002D5E  A$siofatfsg\SIOFS\siofatfs$1488    siofatfs
C:   00002D61  A$siofatfsg\SIOFS\siofatfs$1489    siofatfs
C:   00002D63  A$siofatfsg\SIOFS\siofatfs$1490    siofatfs
C:   00002D66  A$siofatfsg\SIOFS\siofatfs$1491    siofatfs
C:   00002D68  A$siofatfsg\SIOFS\siofatfs$1492    siofatfs
C:   00002D6A  A$siofatfsg\SIOFS\siofatfs$1493    siofatfs
C:   00002D6C  A$siofatfsg\SIOFS\siofatfs$1494    siofatfs
C:   00002D6D  A$siofatfsg\SIOFS\siofatfs$1495    siofatfs
C:   00002D6E  A$siofatfsg\SIOFS\siofatfs$1496    siofatfs
C:   00002D70  A$siofatfsg\SIOFS\siofatfs$1497    siofatfs
C:   00002D71  A$siofatfsg\SIOFS\siofatfs$1498    siofatfs
C:   00002D73  A$siofatfsg\SIOFS\siofatfs$1499    siofatfs
C:   00002D75  A$siofatfsg\SIOFS\siofatfs$1500    siofatfs
C:   00002D77  A$siofatfsg\SIOFS\siofatfs$1501    siofatfs
C:   00002D78  A$siofatfsg\SIOFS\siofatfs$1502    siofatfs
C:   00002D7A  A$siofatfsg\SIOFS\siofatfs$1503    siofatfs
C:   00002D7B  A$siofatfsg\SIOFS\siofatfs$1504    siofatfs
C:   00002D7D  A$siofatfsg\SIOFS\siofatfs$1505    siofatfs
C:   00002D7E  A$siofatfsg\SIOFS\siofatfs$1506    siofatfs
C:   00002D80  A$siofatfsg\SIOFS\siofatfs$1507    siofatfs
C:   00002D81  A$siofatfsg\SIOFS\siofatfs$1508    siofatfs
C:   00002D82  A$siofatfsg\SIOFS\siofatfs$1509    siofatfs
C:   00002D83  A$siofatfsg\SIOFS\siofatfs$1512    siofatfs
C:   00002D83  C$siofatfs.c$254$1_0$98            siofatfs
C:   00002D85  A$siofatfsg\SIOFS\siofatfs$1513    siofatfs
C:   00002D87  A$siofatfsg\SIOFS\siofatfs$1514    siofatfs
C:   00002D89  A$siofatfsg\SIOFS\siofatfs$1515    siofatfs
C:   00002D8B  A$siofatfsg\SIOFS\siofatfs$1516    siofatfs
C:   00002D8D  A$siofatfsg\SIOFS\siofatfs$1517    siofatfs
ASxxxx Linker V03.00 + NoICE + sdld,  page 168.
Hexadecimal  [32-Bits]

Area                                    Addr        Size        Decimal Bytes (Attributes)
--------------------------------        ----        ----        ------- ----- ------------
CSEG                                00000062    00003CB7 =       15543. bytes (REL,CON,CODE)

      Value  Global                              Global Defined In Module
      -----  --------------------------------   ------------------------
C:   00002D8F  A$siofatfsg\SIOFS\siofatfs$1518    siofatfs
C:   00002D91  A$siofatfsg\SIOFS\siofatfs$1519    siofatfs
C:   00002D92  A$siofatfsg\SIOFS\siofatfs$1520    siofatfs
C:   00002D94  A$siofatfsg\SIOFS\siofatfs$1521    siofatfs
C:   00002D96  A$siofatfsg\SIOFS\siofatfs$1522    siofatfs
C:   00002D98  A$siofatfsg\SIOFS\siofatfs$1523    siofatfs
C:   00002D9A  A$siofatfsg\SIOFS\siofatfs$1524    siofatfs
C:   00002D9D  A$siofatfsg\SIOFS\siofatfs$1525    siofatfs
C:   00002DA0  A$siofatfsg\SIOFS\siofatfs$1526    siofatfs
C:   00002DA2  A$siofatfsg\SIOFS\siofatfs$1527    siofatfs
C:   00002DA4  A$siofatfsg\SIOFS\siofatfs$1528    siofatfs
C:   00002DA6  A$siofatfsg\SIOFS\siofatfs$1529    siofatfs
C:   00002DA8  A$siofatfsg\SIOFS\siofatfs$1532    siofatfs
C:   00002DA8  C$siofatfs.c$255$1_0$98            siofatfs
C:   00002DAA  A$siofatfsg\SIOFS\siofatfs$1533    siofatfs
C:   00002DAB  A$siofatfsg\SIOFS\siofatfs$1534    siofatfs
C:   00002DAD  A$siofatfsg\SIOFS\siofatfs$1535    siofatfs
C:   00002DAF  A$siofatfsg\SIOFS\siofatfs$1536    siofatfs
C:   00002DB0  A$siofatfsg\SIOFS\siofatfs$1537    siofatfs
C:   00002DB2  A$siofatfsg\SIOFS\siofatfs$1538    siofatfs
C:   00002DB3  A$siofatfsg\SIOFS\siofatfs$1539    siofatfs
C:   00002DB5  A$siofatfsg\SIOFS\siofatfs$1540    siofatfs
C:   00002DB6  A$siofatfsg\SIOFS\siofatfs$1541    siofatfs
C:   00002DB8  A$siofatfsg\SIOFS\siofatfs$1542    siofatfs
C:   00002DBA  A$siofatfsg\SIOFS\siofatfs$1543    siofatfs
C:   00002DBC  A$siofatfsg\SIOFS\siofatfs$1544    siofatfs
C:   00002DBE  A$siofatfsg\SIOFS\siofatfs$1545    siofatfs
C:   00002DC0  A$siofatfsg\SIOFS\siofatfs$1546    siofatfs
C:   00002DC2  A$siofatfsg\SIOFS\siofatfs$1547    siofatfs
C:   00002DC5  A$siofatfsg\SIOFS\siofatfs$1548    siofatfs
C:   00002DC8  A$siofatfsg\SIOFS\siofatfs$1549    siofatfs
C:   00002DCA  A$siofatfsg\SIOFS\siofatfs$1550    siofatfs
C:   00002DCC  A$siofatfsg\SIOFS\siofatfs$1551    siofatfs
C:   00002DCE  A$siofatfsg\SIOFS\siofatfs$1554    siofatfs
C:   00002DCE  C$siofatfs.c$256$1_0$98            siofatfs
C:   00002DD0  A$siofatfsg\SIOFS\siofatfs$1555    siofatfs
C:   00002DD2  A$siofatfsg\SIOFS\siofatfs$1556    siofatfs
C:   00002DD3  A$siofatfsg\SIOFS\siofatfs$1557    siofatfs
C:   00002DD4  A$siofatfsg\SIOFS\siofatfs$1558    siofatfs
C:   00002DD6  A$siofatfsg\SIOFS\siofatfs$1559    siofatfs
C:   00002DD8  A$siofatfsg\SIOFS\siofatfs$1560    siofatfs
C:   00002DDA  A$siofatfsg\SIOFS\siofatfs$1561    siofatfs
C:   00002DDC  A$siofatfsg\SIOFS\siofatfs$1562    siofatfs
C:   00002DDE  A$siofatfsg\SIOFS\siofatfs$1563    siofatfs
C:   00002DDF  A$siofatfsg\SIOFS\siofatfs$1564    siofatfs
C:   00002DE1  A$siofatfsg\SIOFS\siofatfs$1565    siofatfs
C:   00002DE3  A$siofatfsg\SIOFS\siofatfs$1566    siofatfs
C:   00002DE5  A$siofatfsg\SIOFS\siofatfs$1567    siofatfs
C:   00002DE7  A$siofatfsg\SIOFS\siofatfs$1568    siofatfs
C:   00002DEA  A$siofatfsg\SIOFS\siofatfs$1569    siofatfs
C:   00002DED  A$siofatfsg\SIOFS\siofatfs$1570    siofatfs
ASxxxx Linker V03.00 + NoICE + sdld,  page 169.
Hexadecimal  [32-Bits]

Area                                    Addr        Size        Decimal Bytes (Attributes)
--------------------------------        ----        ----        ------- ----- ------------
CSEG                                00000062    00003CB7 =       15543. bytes (REL,CON,CODE)

      Value  Global                              Global Defined In Module
      -----  --------------------------------   ------------------------
C:   00002DEF  A$siofatfsg\SIOFS\siofatfs$1571    siofatfs
C:   00002DF1  A$siofatfsg\SIOFS\siofatfs$1572    siofatfs
C:   00002DF3  A$siofatfsg\SIOFS\siofatfs$1573    siofatfs
C:   00002DF5  A$siofatfsg\SIOFS\siofatfs$1574    siofatfs
C:   00002DF7  A$siofatfsg\SIOFS\siofatfs$1577    siofatfs
C:   00002DF7  C$siofatfs.c$257$1_0$98            siofatfs
C:   00002DF9  A$siofatfsg\SIOFS\siofatfs$1578    siofatfs
C:   00002DFC  A$siofatfsg\SIOFS\siofatfs$1579    siofatfs
C:   00002DFE  A$siofatfsg\SIOFS\siofatfs$1580    siofatfs
C:   00002E00  A$siofatfsg\SIOFS\siofatfs$1581    siofatfs
C:   00002E02  A$siofatfsg\SIOFS\siofatfs$1582    siofatfs
C:   00002E03  A$siofatfsg\SIOFS\siofatfs$1583    siofatfs
C:   00002E06  A$siofatfsg\SIOFS\siofatfs$1584    siofatfs
C:   00002E07  A$siofatfsg\SIOFS\siofatfs$1585    siofatfs
C:   00002E0A  A$siofatfsg\SIOFS\siofatfs$1588    siofatfs
C:   00002E0A  C$siofatfs.c$259$2_0$99            siofatfs
C:   00002E0B  A$siofatfsg\SIOFS\siofatfs$1589    siofatfs
C:   00002E0D  A$siofatfsg\SIOFS\siofatfs$1590    siofatfs
C:   00002E0F  A$siofatfsg\SIOFS\siofatfs$1591    siofatfs
C:   00002E11  A$siofatfsg\SIOFS\siofatfs$1595    siofatfs
C:   00002E11  C$siofatfs.c$263$2_0$100           siofatfs
C:   00002E14  A$siofatfsg\SIOFS\siofatfs$1599    siofatfs
C:   00002E17  A$siofatfsg\SIOFS\siofatfs$1600    siofatfs
C:   00002E19  A$siofatfsg\SIOFS\siofatfs$1603    siofatfs
C:   00002E19  C$siofatfs.c$265$1_0$98            siofatfs
C:   00002E19  XG$siof_mkdir$0$0                  siofatfs
C:   00002E1A  A$siofatfsg\SIOFS\siofatfs$1620    siofatfs
C:   00002E1A  C$siofatfs.c$278$1_0$102           siofatfs
C:   00002E1A  G$siof_rename$0$0                  siofatfs
C:   00002E1A  _siof_rename                       siofatfs
C:   00002E1C  A$siofatfsg\SIOFS\siofatfs$1621    siofatfs
C:   00002E1F  A$siofatfsg\SIOFS\siofatfs$1622    siofatfs
C:   00002E21  A$siofatfsg\SIOFS\siofatfs$1623    siofatfs
C:   00002E23  A$siofatfsg\SIOFS\siofatfs$1624    siofatfs
C:   00002E25  A$siofatfsg\SIOFS\siofatfs$1625    siofatfs
C:   00002E27  A$siofatfsg\SIOFS\siofatfs$1626    siofatfs
C:   00002E29  A$siofatfsg\SIOFS\siofatfs$1627    siofatfs
C:   00002E2B  A$siofatfsg\SIOFS\siofatfs$1630    siofatfs
C:   00002E2B  C$siofatfs.c$281$2_0$102           siofatfs
C:   00002E2D  A$siofatfsg\SIOFS\siofatfs$1631    siofatfs
C:   00002E2F  A$siofatfsg\SIOFS\siofatfs$1632    siofatfs
C:   00002E30  A$siofatfsg\SIOFS\siofatfs$1633    siofatfs
C:   00002E32  A$siofatfsg\SIOFS\siofatfs$1634    siofatfs
C:   00002E34  A$siofatfsg\SIOFS\siofatfs$1635    siofatfs
C:   00002E36  A$siofatfsg\SIOFS\siofatfs$1636    siofatfs
C:   00002E37  A$siofatfsg\SIOFS\siofatfs$1637    siofatfs
C:   00002E38  A$siofatfsg\SIOFS\siofatfs$1638    siofatfs
C:   00002E39  A$siofatfsg\SIOFS\siofatfs$1639    siofatfs
C:   00002E3B  A$siofatfsg\SIOFS\siofatfs$1640    siofatfs
C:   00002E3D  A$siofatfsg\SIOFS\siofatfs$1641    siofatfs
C:   00002E3E  A$siofatfsg\SIOFS\siofatfs$1642    siofatfs
ASxxxx Linker V03.00 + NoICE + sdld,  page 170.
Hexadecimal  [32-Bits]

Area                                    Addr        Size        Decimal Bytes (Attributes)
--------------------------------        ----        ----        ------- ----- ------------
CSEG                                00000062    00003CB7 =       15543. bytes (REL,CON,CODE)

      Value  Global                              Global Defined In Module
      -----  --------------------------------   ------------------------
C:   00002E40  A$siofatfsg\SIOFS\siofatfs$1643    siofatfs
C:   00002E41  A$siofatfsg\SIOFS\siofatfs$1644    siofatfs
C:   00002E43  A$siofatfsg\SIOFS\siofatfs$1645    siofatfs
C:   00002E44  A$siofatfsg\SIOFS\siofatfs$1646    siofatfs
C:   00002E46  A$siofatfsg\SIOFS\siofatfs$1647    siofatfs
C:   00002E48  A$siofatfsg\SIOFS\siofatfs$1648    siofatfs
C:   00002E4A  A$siofatfsg\SIOFS\siofatfs$1649    siofatfs
C:   00002E4C  A$siofatfsg\SIOFS\siofatfs$1650    siofatfs
C:   00002E4F  A$siofatfsg\SIOFS\siofatfs$1651    siofatfs
C:   00002E51  A$siofatfsg\SIOFS\siofatfs$1652    siofatfs
C:   00002E54  A$siofatfsg\SIOFS\siofatfs$1653    siofatfs
C:   00002E56  A$siofatfsg\SIOFS\siofatfs$1654    siofatfs
C:   00002E58  A$siofatfsg\SIOFS\siofatfs$1655    siofatfs
C:   00002E5A  A$siofatfsg\SIOFS\siofatfs$1656    siofatfs
C:   00002E5B  A$siofatfsg\SIOFS\siofatfs$1657    siofatfs
C:   00002E5C  A$siofatfsg\SIOFS\siofatfs$1658    siofatfs
C:   00002E5E  A$siofatfsg\SIOFS\siofatfs$1659    siofatfs
C:   00002E5F  A$siofatfsg\SIOFS\siofatfs$1660    siofatfs
C:   00002E61  A$siofatfsg\SIOFS\siofatfs$1661    siofatfs
C:   00002E63  A$siofatfsg\SIOFS\siofatfs$1662    siofatfs
C:   00002E65  A$siofatfsg\SIOFS\siofatfs$1663    siofatfs
C:   00002E66  A$siofatfsg\SIOFS\siofatfs$1664    siofatfs
C:   00002E68  A$siofatfsg\SIOFS\siofatfs$1665    siofatfs
C:   00002E69  A$siofatfsg\SIOFS\siofatfs$1666    siofatfs
C:   00002E6B  A$siofatfsg\SIOFS\siofatfs$1667    siofatfs
C:   00002E6C  A$siofatfsg\SIOFS\siofatfs$1668    siofatfs
C:   00002E6E  A$siofatfsg\SIOFS\siofatfs$1669    siofatfs
C:   00002E6F  A$siofatfsg\SIOFS\siofatfs$1670    siofatfs
C:   00002E70  A$siofatfsg\SIOFS\siofatfs$1671    siofatfs
C:   00002E71  A$siofatfsg\SIOFS\siofatfs$1672    siofatfs
C:   00002E73  A$siofatfsg\SIOFS\siofatfs$1673    siofatfs
C:   00002E74  A$siofatfsg\SIOFS\siofatfs$1674    siofatfs
C:   00002E75  A$siofatfsg\SIOFS\siofatfs$1675    siofatfs
C:   00002E77  A$siofatfsg\SIOFS\siofatfs$1676    siofatfs
C:   00002E79  A$siofatfsg\SIOFS\siofatfs$1677    siofatfs
C:   00002E7B  A$siofatfsg\SIOFS\siofatfs$1678    siofatfs
C:   00002E7C  A$siofatfsg\SIOFS\siofatfs$1679    siofatfs
C:   00002E7E  A$siofatfsg\SIOFS\siofatfs$1680    siofatfs
C:   00002E7F  A$siofatfsg\SIOFS\siofatfs$1681    siofatfs
C:   00002E81  A$siofatfsg\SIOFS\siofatfs$1682    siofatfs
C:   00002E82  A$siofatfsg\SIOFS\siofatfs$1683    siofatfs
C:   00002E84  A$siofatfsg\SIOFS\siofatfs$1684    siofatfs
C:   00002E86  A$siofatfsg\SIOFS\siofatfs$1685    siofatfs
C:   00002E88  A$siofatfsg\SIOFS\siofatfs$1686    siofatfs
C:   00002E8A  A$siofatfsg\SIOFS\siofatfs$1687    siofatfs
C:   00002E8C  A$siofatfsg\SIOFS\siofatfs$1688    siofatfs
C:   00002E8F  A$siofatfsg\SIOFS\siofatfs$1689    siofatfs
C:   00002E91  A$siofatfsg\SIOFS\siofatfs$1690    siofatfs
C:   00002E94  A$siofatfsg\SIOFS\siofatfs$1691    siofatfs
C:   00002E96  A$siofatfsg\SIOFS\siofatfs$1692    siofatfs
C:   00002E98  A$siofatfsg\SIOFS\siofatfs$1693    siofatfs
ASxxxx Linker V03.00 + NoICE + sdld,  page 171.
Hexadecimal  [32-Bits]

Area                                    Addr        Size        Decimal Bytes (Attributes)
--------------------------------        ----        ----        ------- ----- ------------
CSEG                                00000062    00003CB7 =       15543. bytes (REL,CON,CODE)

      Value  Global                              Global Defined In Module
      -----  --------------------------------   ------------------------
C:   00002E9A  A$siofatfsg\SIOFS\siofatfs$1694    siofatfs
C:   00002E9C  A$siofatfsg\SIOFS\siofatfs$1695    siofatfs
C:   00002E9D  A$siofatfsg\SIOFS\siofatfs$1696    siofatfs
C:   00002E9E  A$siofatfsg\SIOFS\siofatfs$1697    siofatfs
C:   00002EA0  A$siofatfsg\SIOFS\siofatfs$1698    siofatfs
C:   00002EA1  A$siofatfsg\SIOFS\siofatfs$1699    siofatfs
C:   00002EA3  A$siofatfsg\SIOFS\siofatfs$1700    siofatfs
C:   00002EA5  A$siofatfsg\SIOFS\siofatfs$1701    siofatfs
C:   00002EA7  A$siofatfsg\SIOFS\siofatfs$1702    siofatfs
C:   00002EA9  A$siofatfsg\SIOFS\siofatfs$1703    siofatfs
C:   00002EAB  A$siofatfsg\SIOFS\siofatfs$1704    siofatfs
C:   00002EAC  A$siofatfsg\SIOFS\siofatfs$1705    siofatfs
C:   00002EAE  A$siofatfsg\SIOFS\siofatfs$1706    siofatfs
C:   00002EAF  A$siofatfsg\SIOFS\siofatfs$1707    siofatfs
C:   00002EB1  A$siofatfsg\SIOFS\siofatfs$1708    siofatfs
C:   00002EB2  A$siofatfsg\SIOFS\siofatfs$1709    siofatfs
C:   00002EB4  A$siofatfsg\SIOFS\siofatfs$1710    siofatfs
C:   00002EB6  A$siofatfsg\SIOFS\siofatfs$1713    siofatfs
C:   00002EB6  C$siofatfs.c$284$1_0$102           siofatfs
C:   00002EB8  A$siofatfsg\SIOFS\siofatfs$1714    siofatfs
C:   00002EBA  A$siofatfsg\SIOFS\siofatfs$1715    siofatfs
C:   00002EBC  A$siofatfsg\SIOFS\siofatfs$1716    siofatfs
C:   00002EBE  A$siofatfsg\SIOFS\siofatfs$1717    siofatfs
C:   00002EC0  A$siofatfsg\SIOFS\siofatfs$1718    siofatfs
C:   00002EC2  A$siofatfsg\SIOFS\siofatfs$1719    siofatfs
C:   00002EC4  A$siofatfsg\SIOFS\siofatfs$1720    siofatfs
C:   00002EC6  A$siofatfsg\SIOFS\siofatfs$1721    siofatfs
C:   00002EC7  A$siofatfsg\SIOFS\siofatfs$1722    siofatfs
C:   00002EC9  A$siofatfsg\SIOFS\siofatfs$1723    siofatfs
C:   00002ECB  A$siofatfsg\SIOFS\siofatfs$1724    siofatfs
C:   00002ECD  A$siofatfsg\SIOFS\siofatfs$1725    siofatfs
C:   00002ECF  A$siofatfsg\SIOFS\siofatfs$1726    siofatfs
C:   00002ED2  A$siofatfsg\SIOFS\siofatfs$1727    siofatfs
C:   00002ED5  A$siofatfsg\SIOFS\siofatfs$1728    siofatfs
C:   00002ED7  A$siofatfsg\SIOFS\siofatfs$1729    siofatfs
C:   00002ED9  A$siofatfsg\SIOFS\siofatfs$1730    siofatfs
C:   00002EDB  A$siofatfsg\SIOFS\siofatfs$1731    siofatfs
C:   00002EDD  A$siofatfsg\SIOFS\siofatfs$1734    siofatfs
C:   00002EDD  C$siofatfs.c$285$1_0$102           siofatfs
C:   00002EDF  A$siofatfsg\SIOFS\siofatfs$1735    siofatfs
C:   00002EE0  A$siofatfsg\SIOFS\siofatfs$1736    siofatfs
C:   00002EE2  A$siofatfsg\SIOFS\siofatfs$1737    siofatfs
C:   00002EE4  A$siofatfsg\SIOFS\siofatfs$1738    siofatfs
C:   00002EE5  A$siofatfsg\SIOFS\siofatfs$1739    siofatfs
C:   00002EE7  A$siofatfsg\SIOFS\siofatfs$1740    siofatfs
C:   00002EE8  A$siofatfsg\SIOFS\siofatfs$1741    siofatfs
C:   00002EEA  A$siofatfsg\SIOFS\siofatfs$1742    siofatfs
C:   00002EEB  A$siofatfsg\SIOFS\siofatfs$1743    siofatfs
C:   00002EED  A$siofatfsg\SIOFS\siofatfs$1744    siofatfs
C:   00002EEF  A$siofatfsg\SIOFS\siofatfs$1745    siofatfs
C:   00002EF1  A$siofatfsg\SIOFS\siofatfs$1746    siofatfs
ASxxxx Linker V03.00 + NoICE + sdld,  page 172.
Hexadecimal  [32-Bits]

Area                                    Addr        Size        Decimal Bytes (Attributes)
--------------------------------        ----        ----        ------- ----- ------------
CSEG                                00000062    00003CB7 =       15543. bytes (REL,CON,CODE)

      Value  Global                              Global Defined In Module
      -----  --------------------------------   ------------------------
C:   00002EF3  A$siofatfsg\SIOFS\siofatfs$1747    siofatfs
C:   00002EF5  A$siofatfsg\SIOFS\siofatfs$1748    siofatfs
C:   00002EF7  A$siofatfsg\SIOFS\siofatfs$1749    siofatfs
C:   00002EFA  A$siofatfsg\SIOFS\siofatfs$1750    siofatfs
C:   00002EFD  A$siofatfsg\SIOFS\siofatfs$1751    siofatfs
C:   00002EFF  A$siofatfsg\SIOFS\siofatfs$1752    siofatfs
C:   00002F01  A$siofatfsg\SIOFS\siofatfs$1753    siofatfs
C:   00002F03  A$siofatfsg\SIOFS\siofatfs$1754    siofatfs
C:   00002F05  A$siofatfsg\SIOFS\siofatfs$1755    siofatfs
C:   00002F07  A$siofatfsg\SIOFS\siofatfs$1758    siofatfs
C:   00002F07  C$siofatfs.c$286$1_0$102           siofatfs
C:   00002F09  A$siofatfsg\SIOFS\siofatfs$1759    siofatfs
C:   00002F0B  A$siofatfsg\SIOFS\siofatfs$1760    siofatfs
C:   00002F0C  A$siofatfsg\SIOFS\siofatfs$1761    siofatfs
C:   00002F0E  A$siofatfsg\SIOFS\siofatfs$1762    siofatfs
C:   00002F10  A$siofatfsg\SIOFS\siofatfs$1763    siofatfs
C:   00002F12  A$siofatfsg\SIOFS\siofatfs$1764    siofatfs
C:   00002F13  A$siofatfsg\SIOFS\siofatfs$1765    siofatfs
C:   00002F15  A$siofatfsg\SIOFS\siofatfs$1766    siofatfs
C:   00002F16  A$siofatfsg\SIOFS\siofatfs$1767    siofatfs
C:   00002F18  A$siofatfsg\SIOFS\siofatfs$1768    siofatfs
C:   00002F19  A$siofatfsg\SIOFS\siofatfs$1769    siofatfs
C:   00002F1B  A$siofatfsg\SIOFS\siofatfs$1770    siofatfs
C:   00002F1D  A$siofatfsg\SIOFS\siofatfs$1771    siofatfs
C:   00002F1F  A$siofatfsg\SIOFS\siofatfs$1772    siofatfs
C:   00002F21  A$siofatfsg\SIOFS\siofatfs$1773    siofatfs
C:   00002F23  A$siofatfsg\SIOFS\siofatfs$1774    siofatfs
C:   00002F25  A$siofatfsg\SIOFS\siofatfs$1775    siofatfs
C:   00002F27  A$siofatfsg\SIOFS\siofatfs$1776    siofatfs
C:   00002F2A  A$siofatfsg\SIOFS\siofatfs$1777    siofatfs
C:   00002F2D  A$siofatfsg\SIOFS\siofatfs$1778    siofatfs
C:   00002F2F  A$siofatfsg\SIOFS\siofatfs$1779    siofatfs
C:   00002F31  A$siofatfsg\SIOFS\siofatfs$1780    siofatfs
C:   00002F33  A$siofatfsg\SIOFS\siofatfs$1783    siofatfs
C:   00002F33  C$siofatfs.c$287$1_0$102           siofatfs
C:   00002F35  A$siofatfsg\SIOFS\siofatfs$1784    siofatfs
C:   00002F37  A$siofatfsg\SIOFS\siofatfs$1785    siofatfs
C:   00002F38  A$siofatfsg\SIOFS\siofatfs$1786    siofatfs
C:   00002F39  A$siofatfsg\SIOFS\siofatfs$1787    siofatfs
C:   00002F3B  A$siofatfsg\SIOFS\siofatfs$1788    siofatfs
C:   00002F3D  A$siofatfsg\SIOFS\siofatfs$1789    siofatfs
C:   00002F3F  A$siofatfsg\SIOFS\siofatfs$1790    siofatfs
C:   00002F41  A$siofatfsg\SIOFS\siofatfs$1791    siofatfs
C:   00002F43  A$siofatfsg\SIOFS\siofatfs$1792    siofatfs
C:   00002F44  A$siofatfsg\SIOFS\siofatfs$1793    siofatfs
C:   00002F46  A$siofatfsg\SIOFS\siofatfs$1794    siofatfs
C:   00002F48  A$siofatfsg\SIOFS\siofatfs$1795    siofatfs
C:   00002F4A  A$siofatfsg\SIOFS\siofatfs$1796    siofatfs
C:   00002F4C  A$siofatfsg\SIOFS\siofatfs$1797    siofatfs
C:   00002F4F  A$siofatfsg\SIOFS\siofatfs$1798    siofatfs
C:   00002F52  A$siofatfsg\SIOFS\siofatfs$1799    siofatfs
ASxxxx Linker V03.00 + NoICE + sdld,  page 173.
Hexadecimal  [32-Bits]

Area                                    Addr        Size        Decimal Bytes (Attributes)
--------------------------------        ----        ----        ------- ----- ------------
CSEG                                00000062    00003CB7 =       15543. bytes (REL,CON,CODE)

      Value  Global                              Global Defined In Module
      -----  --------------------------------   ------------------------
C:   00002F54  A$siofatfsg\SIOFS\siofatfs$1800    siofatfs
C:   00002F56  A$siofatfsg\SIOFS\siofatfs$1801    siofatfs
C:   00002F58  A$siofatfsg\SIOFS\siofatfs$1802    siofatfs
C:   00002F5A  A$siofatfsg\SIOFS\siofatfs$1803    siofatfs
C:   00002F5C  A$siofatfsg\SIOFS\siofatfs$1806    siofatfs
C:   00002F5C  C$siofatfs.c$288$1_0$102           siofatfs
C:   00002F5E  A$siofatfsg\SIOFS\siofatfs$1807    siofatfs
C:   00002F61  A$siofatfsg\SIOFS\siofatfs$1808    siofatfs
C:   00002F63  A$siofatfsg\SIOFS\siofatfs$1809    siofatfs
C:   00002F65  A$siofatfsg\SIOFS\siofatfs$1810    siofatfs
C:   00002F67  A$siofatfsg\SIOFS\siofatfs$1811    siofatfs
C:   00002F68  A$siofatfsg\SIOFS\siofatfs$1812    siofatfs
C:   00002F6B  A$siofatfsg\SIOFS\siofatfs$1813    siofatfs
C:   00002F6C  A$siofatfsg\SIOFS\siofatfs$1814    siofatfs
C:   00002F6F  A$siofatfsg\SIOFS\siofatfs$1817    siofatfs
C:   00002F6F  C$siofatfs.c$290$2_0$103           siofatfs
C:   00002F70  A$siofatfsg\SIOFS\siofatfs$1818    siofatfs
C:   00002F72  A$siofatfsg\SIOFS\siofatfs$1819    siofatfs
C:   00002F74  A$siofatfsg\SIOFS\siofatfs$1820    siofatfs
C:   00002F76  A$siofatfsg\SIOFS\siofatfs$1824    siofatfs
C:   00002F76  C$siofatfs.c$294$2_0$104           siofatfs
C:   00002F79  A$siofatfsg\SIOFS\siofatfs$1828    siofatfs
C:   00002F7C  A$siofatfsg\SIOFS\siofatfs$1829    siofatfs
C:   00002F7E  A$siofatfsg\SIOFS\siofatfs$1832    siofatfs
C:   00002F7E  C$siofatfs.c$296$1_0$102           siofatfs
C:   00002F7E  XG$siof_rename$0$0                 siofatfs
C:   00002F7F  A$siofatfsg\SIOFS\siofatfs$1849    siofatfs
C:   00002F7F  C$siofatfs.c$309$1_0$106           siofatfs
C:   00002F7F  G$siof_putc$0$0                    siofatfs
C:   00002F7F  _siof_putc                         siofatfs
C:   00002F81  A$siofatfsg\SIOFS\siofatfs$1850    siofatfs
C:   00002F83  A$siofatfsg\SIOFS\siofatfs$1851    siofatfs
C:   00002F85  A$siofatfsg\SIOFS\siofatfs$1852    siofatfs
C:   00002F87  A$siofatfsg\SIOFS\siofatfs$1853    siofatfs
C:   00002F89  A$siofatfsg\SIOFS\siofatfs$1854    siofatfs
C:   00002F8B  A$siofatfsg\SIOFS\siofatfs$1857    siofatfs
C:   00002F8B  C$siofatfs.c$312$2_0$106           siofatfs
C:   00002F8D  A$siofatfsg\SIOFS\siofatfs$1858    siofatfs
C:   00002F8E  A$siofatfsg\SIOFS\siofatfs$1859    siofatfs
C:   00002F8F  A$siofatfsg\SIOFS\siofatfs$1860    siofatfs
C:   00002F91  A$siofatfsg\SIOFS\siofatfs$1861    siofatfs
C:   00002F93  A$siofatfsg\SIOFS\siofatfs$1862    siofatfs
C:   00002F94  A$siofatfsg\SIOFS\siofatfs$1863    siofatfs
C:   00002F95  A$siofatfsg\SIOFS\siofatfs$1864    siofatfs
C:   00002F96  A$siofatfsg\SIOFS\siofatfs$1865    siofatfs
C:   00002F97  A$siofatfsg\SIOFS\siofatfs$1866    siofatfs
C:   00002F99  A$siofatfsg\SIOFS\siofatfs$1867    siofatfs
C:   00002F9B  A$siofatfsg\SIOFS\siofatfs$1868    siofatfs
C:   00002F9C  A$siofatfsg\SIOFS\siofatfs$1869    siofatfs
C:   00002F9D  A$siofatfsg\SIOFS\siofatfs$1870    siofatfs
C:   00002F9F  A$siofatfsg\SIOFS\siofatfs$1871    siofatfs
ASxxxx Linker V03.00 + NoICE + sdld,  page 174.
Hexadecimal  [32-Bits]

Area                                    Addr        Size        Decimal Bytes (Attributes)
--------------------------------        ----        ----        ------- ----- ------------
CSEG                                00000062    00003CB7 =       15543. bytes (REL,CON,CODE)

      Value  Global                              Global Defined In Module
      -----  --------------------------------   ------------------------
C:   00002FA1  A$siofatfsg\SIOFS\siofatfs$1872    siofatfs
C:   00002FA3  A$siofatfsg\SIOFS\siofatfs$1873    siofatfs
C:   00002FA4  A$siofatfsg\SIOFS\siofatfs$1874    siofatfs
C:   00002FA6  A$siofatfsg\SIOFS\siofatfs$1875    siofatfs
C:   00002FA7  A$siofatfsg\SIOFS\siofatfs$1876    siofatfs
C:   00002FA9  A$siofatfsg\SIOFS\siofatfs$1877    siofatfs
C:   00002FAA  A$siofatfsg\SIOFS\siofatfs$1878    siofatfs
C:   00002FAC  A$siofatfsg\SIOFS\siofatfs$1879    siofatfs
C:   00002FAE  A$siofatfsg\SIOFS\siofatfs$1880    siofatfs
C:   00002FB0  A$siofatfsg\SIOFS\siofatfs$1881    siofatfs
C:   00002FB2  A$siofatfsg\SIOFS\siofatfs$1882    siofatfs
C:   00002FB4  A$siofatfsg\SIOFS\siofatfs$1883    siofatfs
C:   00002FB7  A$siofatfsg\SIOFS\siofatfs$1884    siofatfs
C:   00002FB8  A$siofatfsg\SIOFS\siofatfs$1885    siofatfs
C:   00002FBA  A$siofatfsg\SIOFS\siofatfs$1886    siofatfs
C:   00002FBC  A$siofatfsg\SIOFS\siofatfs$1887    siofatfs
C:   00002FBE  A$siofatfsg\SIOFS\siofatfs$1888    siofatfs
C:   00002FC0  A$siofatfsg\SIOFS\siofatfs$1889    siofatfs
C:   00002FC1  A$siofatfsg\SIOFS\siofatfs$1890    siofatfs
C:   00002FC3  A$siofatfsg\SIOFS\siofatfs$1891    siofatfs
C:   00002FC4  A$siofatfsg\SIOFS\siofatfs$1892    siofatfs
C:   00002FC6  A$siofatfsg\SIOFS\siofatfs$1893    siofatfs
C:   00002FC7  A$siofatfsg\SIOFS\siofatfs$1894    siofatfs
C:   00002FC9  A$siofatfsg\SIOFS\siofatfs$1897    siofatfs
C:   00002FC9  C$siofatfs.c$315$1_0$106           siofatfs
C:   00002FCB  A$siofatfsg\SIOFS\siofatfs$1898    siofatfs
C:   00002FCD  A$siofatfsg\SIOFS\siofatfs$1899    siofatfs
C:   00002FCF  A$siofatfsg\SIOFS\siofatfs$1900    siofatfs
C:   00002FD1  A$siofatfsg\SIOFS\siofatfs$1901    siofatfs
C:   00002FD3  A$siofatfsg\SIOFS\siofatfs$1902    siofatfs
C:   00002FD5  A$siofatfsg\SIOFS\siofatfs$1903    siofatfs
C:   00002FD6  A$siofatfsg\SIOFS\siofatfs$1904    siofatfs
C:   00002FD8  A$siofatfsg\SIOFS\siofatfs$1905    siofatfs
C:   00002FDA  A$siofatfsg\SIOFS\siofatfs$1906    siofatfs
C:   00002FDC  A$siofatfsg\SIOFS\siofatfs$1907    siofatfs
C:   00002FDE  A$siofatfsg\SIOFS\siofatfs$1908    siofatfs
C:   00002FE1  A$siofatfsg\SIOFS\siofatfs$1909    siofatfs
C:   00002FE4  A$siofatfsg\SIOFS\siofatfs$1910    siofatfs
C:   00002FE6  A$siofatfsg\SIOFS\siofatfs$1911    siofatfs
C:   00002FE8  A$siofatfsg\SIOFS\siofatfs$1912    siofatfs
C:   00002FEA  A$siofatfsg\SIOFS\siofatfs$1915    siofatfs
C:   00002FEA  C$siofatfs.c$316$1_0$106           siofatfs
C:   00002FEC  A$siofatfsg\SIOFS\siofatfs$1916    siofatfs
C:   00002FEE  A$siofatfsg\SIOFS\siofatfs$1917    siofatfs
C:   00002FEF  A$siofatfsg\SIOFS\siofatfs$1918    siofatfs
C:   00002FF0  A$siofatfsg\SIOFS\siofatfs$1919    siofatfs
C:   00002FF2  A$siofatfsg\SIOFS\siofatfs$1920    siofatfs
C:   00002FF4  A$siofatfsg\SIOFS\siofatfs$1921    siofatfs
C:   00002FF6  A$siofatfsg\SIOFS\siofatfs$1922    siofatfs
C:   00002FF8  A$siofatfsg\SIOFS\siofatfs$1923    siofatfs
C:   00002FFA  A$siofatfsg\SIOFS\siofatfs$1924    siofatfs
ASxxxx Linker V03.00 + NoICE + sdld,  page 175.
Hexadecimal  [32-Bits]

Area                                    Addr        Size        Decimal Bytes (Attributes)
--------------------------------        ----        ----        ------- ----- ------------
CSEG                                00000062    00003CB7 =       15543. bytes (REL,CON,CODE)

      Value  Global                              Global Defined In Module
      -----  --------------------------------   ------------------------
C:   00002FFB  A$siofatfsg\SIOFS\siofatfs$1925    siofatfs
C:   00002FFD  A$siofatfsg\SIOFS\siofatfs$1926    siofatfs
C:   00002FFF  A$siofatfsg\SIOFS\siofatfs$1927    siofatfs
C:   00003001  A$siofatfsg\SIOFS\siofatfs$1928    siofatfs
C:   00003003  A$siofatfsg\SIOFS\siofatfs$1929    siofatfs
C:   00003006  A$siofatfsg\SIOFS\siofatfs$1930    siofatfs
C:   00003009  A$siofatfsg\SIOFS\siofatfs$1931    siofatfs
C:   0000300B  A$siofatfsg\SIOFS\siofatfs$1932    siofatfs
C:   0000300D  A$siofatfsg\SIOFS\siofatfs$1933    siofatfs
C:   0000300F  A$siofatfsg\SIOFS\siofatfs$1934    siofatfs
C:   00003011  A$siofatfsg\SIOFS\siofatfs$1935    siofatfs
C:   00003013  A$siofatfsg\SIOFS\siofatfs$1938    siofatfs
C:   00003013  C$siofatfs.c$317$1_0$106           siofatfs
C:   00003015  A$siofatfsg\SIOFS\siofatfs$1939    siofatfs
C:   00003018  A$siofatfsg\SIOFS\siofatfs$1940    siofatfs
C:   0000301A  A$siofatfsg\SIOFS\siofatfs$1941    siofatfs
C:   0000301C  A$siofatfsg\SIOFS\siofatfs$1942    siofatfs
C:   0000301E  A$siofatfsg\SIOFS\siofatfs$1943    siofatfs
C:   0000301F  A$siofatfsg\SIOFS\siofatfs$1944    siofatfs
C:   00003022  A$siofatfsg\SIOFS\siofatfs$1945    siofatfs
C:   00003023  A$siofatfsg\SIOFS\siofatfs$1946    siofatfs
C:   00003026  A$siofatfsg\SIOFS\siofatfs$1949    siofatfs
C:   00003026  C$siofatfs.c$319$2_0$107           siofatfs
C:   00003027  A$siofatfsg\SIOFS\siofatfs$1950    siofatfs
C:   00003029  A$siofatfsg\SIOFS\siofatfs$1951    siofatfs
C:   0000302B  A$siofatfsg\SIOFS\siofatfs$1952    siofatfs
C:   0000302D  A$siofatfsg\SIOFS\siofatfs$1953    siofatfs
C:   0000302F  A$siofatfsg\SIOFS\siofatfs$1954    siofatfs
C:   00003031  A$siofatfsg\SIOFS\siofatfs$1958    siofatfs
C:   00003031  C$siofatfs.c$323$2_0$108           siofatfs
C:   00003034  A$siofatfsg\SIOFS\siofatfs$1962    siofatfs
C:   00003037  A$siofatfsg\SIOFS\siofatfs$1963    siofatfs
C:   00003039  A$siofatfsg\SIOFS\siofatfs$1966    siofatfs
C:   00003039  C$siofatfs.c$325$1_0$106           siofatfs
C:   00003039  XG$siof_putc$0$0                   siofatfs
C:   0000303A  A$siofatfsg\SIOFS\siofatfs$1983    siofatfs
C:   0000303A  C$siofatfs.c$338$1_0$110           siofatfs
C:   0000303A  G$siof_puts$0$0                    siofatfs
C:   0000303A  _siof_puts                         siofatfs
C:   0000303C  A$siofatfsg\SIOFS\siofatfs$1984    siofatfs
C:   0000303F  A$siofatfsg\SIOFS\siofatfs$1985    siofatfs
C:   00003041  A$siofatfsg\SIOFS\siofatfs$1986    siofatfs
C:   00003043  A$siofatfsg\SIOFS\siofatfs$1987    siofatfs
C:   00003045  A$siofatfsg\SIOFS\siofatfs$1988    siofatfs
C:   00003047  A$siofatfsg\SIOFS\siofatfs$1989    siofatfs
C:   00003049  A$siofatfsg\SIOFS\siofatfs$1990    siofatfs
C:   0000304B  A$siofatfsg\SIOFS\siofatfs$1993    siofatfs
C:   0000304B  C$siofatfs.c$341$2_0$110           siofatfs
C:   0000304D  A$siofatfsg\SIOFS\siofatfs$1994    siofatfs
C:   0000304F  A$siofatfsg\SIOFS\siofatfs$1995    siofatfs
C:   00003050  A$siofatfsg\SIOFS\siofatfs$1996    siofatfs
ASxxxx Linker V03.00 + NoICE + sdld,  page 176.
Hexadecimal  [32-Bits]

Area                                    Addr        Size        Decimal Bytes (Attributes)
--------------------------------        ----        ----        ------- ----- ------------
CSEG                                00000062    00003CB7 =       15543. bytes (REL,CON,CODE)

      Value  Global                              Global Defined In Module
      -----  --------------------------------   ------------------------
C:   00003052  A$siofatfsg\SIOFS\siofatfs$1997    siofatfs
C:   00003054  A$siofatfsg\SIOFS\siofatfs$1998    siofatfs
C:   00003056  A$siofatfsg\SIOFS\siofatfs$1999    siofatfs
C:   00003057  A$siofatfsg\SIOFS\siofatfs$2000    siofatfs
C:   00003058  A$siofatfsg\SIOFS\siofatfs$2001    siofatfs
C:   00003059  A$siofatfsg\SIOFS\siofatfs$2002    siofatfs
C:   0000305B  A$siofatfsg\SIOFS\siofatfs$2003    siofatfs
C:   0000305D  A$siofatfsg\SIOFS\siofatfs$2004    siofatfs
C:   0000305E  A$siofatfsg\SIOFS\siofatfs$2005    siofatfs
C:   00003060  A$siofatfsg\SIOFS\siofatfs$2006    siofatfs
C:   00003061  A$siofatfsg\SIOFS\siofatfs$2007    siofatfs
C:   00003063  A$siofatfsg\SIOFS\siofatfs$2008    siofatfs
C:   00003064  A$siofatfsg\SIOFS\siofatfs$2009    siofatfs
C:   00003066  A$siofatfsg\SIOFS\siofatfs$2010    siofatfs
C:   00003068  A$siofatfsg\SIOFS\siofatfs$2011    siofatfs
C:   0000306A  A$siofatfsg\SIOFS\siofatfs$2012    siofatfs
C:   0000306C  A$siofatfsg\SIOFS\siofatfs$2013    siofatfs
C:   0000306F  A$siofatfsg\SIOFS\siofatfs$2014    siofatfs
C:   00003071  A$siofatfsg\SIOFS\siofatfs$2015    siofatfs
C:   00003074  A$siofatfsg\SIOFS\siofatfs$2016    siofatfs
C:   00003076  A$siofatfsg\SIOFS\siofatfs$2017    siofatfs
C:   00003078  A$siofatfsg\SIOFS\siofatfs$2018    siofatfs
C:   0000307A  A$siofatfsg\SIOFS\siofatfs$2019    siofatfs
C:   0000307B  A$siofatfsg\SIOFS\siofatfs$2020    siofatfs
C:   0000307C  A$siofatfsg\SIOFS\siofatfs$2021    siofatfs
C:   0000307E  A$siofatfsg\SIOFS\siofatfs$2022    siofatfs
C:   0000307F  A$siofatfsg\SIOFS\siofatfs$2023    siofatfs
C:   00003081  A$siofatfsg\SIOFS\siofatfs$2024    siofatfs
C:   00003083  A$siofatfsg\SIOFS\siofatfs$2025    siofatfs
C:   00003085  A$siofatfsg\SIOFS\siofatfs$2026    siofatfs
C:   00003086  A$siofatfsg\SIOFS\siofatfs$2027    siofatfs
C:   00003088  A$siofatfsg\SIOFS\siofatfs$2028    siofatfs
C:   00003089  A$siofatfsg\SIOFS\siofatfs$2029    siofatfs
C:   0000308B  A$siofatfsg\SIOFS\siofatfs$2030    siofatfs
C:   0000308C  A$siofatfsg\SIOFS\siofatfs$2031    siofatfs
C:   0000308E  A$siofatfsg\SIOFS\siofatfs$2032    siofatfs
C:   0000308F  A$siofatfsg\SIOFS\siofatfs$2033    siofatfs
C:   00003090  A$siofatfsg\SIOFS\siofatfs$2034    siofatfs
C:   00003091  A$siofatfsg\SIOFS\siofatfs$2035    siofatfs
C:   00003093  A$siofatfsg\SIOFS\siofatfs$2036    siofatfs
C:   00003094  A$siofatfsg\SIOFS\siofatfs$2037    siofatfs
C:   00003095  A$siofatfsg\SIOFS\siofatfs$2038    siofatfs
C:   00003097  A$siofatfsg\SIOFS\siofatfs$2039    siofatfs
C:   00003099  A$siofatfsg\SIOFS\siofatfs$2040    siofatfs
C:   0000309B  A$siofatfsg\SIOFS\siofatfs$2041    siofatfs
C:   0000309C  A$siofatfsg\SIOFS\siofatfs$2042    siofatfs
C:   0000309E  A$siofatfsg\SIOFS\siofatfs$2043    siofatfs
C:   0000309F  A$siofatfsg\SIOFS\siofatfs$2044    siofatfs
C:   000030A1  A$siofatfsg\SIOFS\siofatfs$2045    siofatfs
C:   000030A2  A$siofatfsg\SIOFS\siofatfs$2046    siofatfs
C:   000030A4  A$siofatfsg\SIOFS\siofatfs$2047    siofatfs
ASxxxx Linker V03.00 + NoICE + sdld,  page 177.
Hexadecimal  [32-Bits]

Area                                    Addr        Size        Decimal Bytes (Attributes)
--------------------------------        ----        ----        ------- ----- ------------
CSEG                                00000062    00003CB7 =       15543. bytes (REL,CON,CODE)

      Value  Global                              Global Defined In Module
      -----  --------------------------------   ------------------------
C:   000030A6  A$siofatfsg\SIOFS\siofatfs$2048    siofatfs
C:   000030A8  A$siofatfsg\SIOFS\siofatfs$2049    siofatfs
C:   000030AA  A$siofatfsg\SIOFS\siofatfs$2050    siofatfs
C:   000030AD  A$siofatfsg\SIOFS\siofatfs$2051    siofatfs
C:   000030AE  A$siofatfsg\SIOFS\siofatfs$2052    siofatfs
C:   000030B0  A$siofatfsg\SIOFS\siofatfs$2053    siofatfs
C:   000030B2  A$siofatfsg\SIOFS\siofatfs$2054    siofatfs
C:   000030B4  A$siofatfsg\SIOFS\siofatfs$2055    siofatfs
C:   000030B6  A$siofatfsg\SIOFS\siofatfs$2056    siofatfs
C:   000030B8  A$siofatfsg\SIOFS\siofatfs$2057    siofatfs
C:   000030B9  A$siofatfsg\SIOFS\siofatfs$2058    siofatfs
C:   000030BB  A$siofatfsg\SIOFS\siofatfs$2059    siofatfs
C:   000030BC  A$siofatfsg\SIOFS\siofatfs$2060    siofatfs
C:   000030BE  A$siofatfsg\SIOFS\siofatfs$2061    siofatfs
C:   000030BF  A$siofatfsg\SIOFS\siofatfs$2062    siofatfs
C:   000030C1  A$siofatfsg\SIOFS\siofatfs$2063    siofatfs
C:   000030C3  A$siofatfsg\SIOFS\siofatfs$2066    siofatfs
C:   000030C3  C$siofatfs.c$344$1_0$110           siofatfs
C:   000030C5  A$siofatfsg\SIOFS\siofatfs$2067    siofatfs
C:   000030C7  A$siofatfsg\SIOFS\siofatfs$2068    siofatfs
C:   000030C9  A$siofatfsg\SIOFS\siofatfs$2069    siofatfs
C:   000030CB  A$siofatfsg\SIOFS\siofatfs$2070    siofatfs
C:   000030CD  A$siofatfsg\SIOFS\siofatfs$2071    siofatfs
C:   000030CF  A$siofatfsg\SIOFS\siofatfs$2072    siofatfs
C:   000030D1  A$siofatfsg\SIOFS\siofatfs$2073    siofatfs
C:   000030D2  A$siofatfsg\SIOFS\siofatfs$2074    siofatfs
C:   000030D4  A$siofatfsg\SIOFS\siofatfs$2075    siofatfs
C:   000030D6  A$siofatfsg\SIOFS\siofatfs$2076    siofatfs
C:   000030D8  A$siofatfsg\SIOFS\siofatfs$2077    siofatfs
C:   000030DA  A$siofatfsg\SIOFS\siofatfs$2078    siofatfs
C:   000030DD  A$siofatfsg\SIOFS\siofatfs$2079    siofatfs
C:   000030E0  A$siofatfsg\SIOFS\siofatfs$2080    siofatfs
C:   000030E2  A$siofatfsg\SIOFS\siofatfs$2081    siofatfs
C:   000030E4  A$siofatfsg\SIOFS\siofatfs$2082    siofatfs
C:   000030E6  A$siofatfsg\SIOFS\siofatfs$2083    siofatfs
C:   000030E8  A$siofatfsg\SIOFS\siofatfs$2086    siofatfs
C:   000030E8  C$siofatfs.c$345$1_0$110           siofatfs
C:   000030EA  A$siofatfsg\SIOFS\siofatfs$2087    siofatfs
C:   000030EB  A$siofatfsg\SIOFS\siofatfs$2088    siofatfs
C:   000030ED  A$siofatfsg\SIOFS\siofatfs$2089    siofatfs
C:   000030EF  A$siofatfsg\SIOFS\siofatfs$2090    siofatfs
C:   000030F0  A$siofatfsg\SIOFS\siofatfs$2091    siofatfs
C:   000030F2  A$siofatfsg\SIOFS\siofatfs$2092    siofatfs
C:   000030F3  A$siofatfsg\SIOFS\siofatfs$2093    siofatfs
C:   000030F5  A$siofatfsg\SIOFS\siofatfs$2094    siofatfs
C:   000030F6  A$siofatfsg\SIOFS\siofatfs$2095    siofatfs
C:   000030F8  A$siofatfsg\SIOFS\siofatfs$2096    siofatfs
C:   000030FA  A$siofatfsg\SIOFS\siofatfs$2097    siofatfs
C:   000030FC  A$siofatfsg\SIOFS\siofatfs$2098    siofatfs
C:   000030FE  A$siofatfsg\SIOFS\siofatfs$2099    siofatfs
C:   00003100  A$siofatfsg\SIOFS\siofatfs$2100    siofatfs
ASxxxx Linker V03.00 + NoICE + sdld,  page 178.
Hexadecimal  [32-Bits]

Area                                    Addr        Size        Decimal Bytes (Attributes)
--------------------------------        ----        ----        ------- ----- ------------
CSEG                                00000062    00003CB7 =       15543. bytes (REL,CON,CODE)

      Value  Global                              Global Defined In Module
      -----  --------------------------------   ------------------------
C:   00003102  A$siofatfsg\SIOFS\siofatfs$2101    siofatfs
C:   00003105  A$siofatfsg\SIOFS\siofatfs$2102    siofatfs
C:   00003108  A$siofatfsg\SIOFS\siofatfs$2103    siofatfs
C:   0000310A  A$siofatfsg\SIOFS\siofatfs$2104    siofatfs
C:   0000310C  A$siofatfsg\SIOFS\siofatfs$2105    siofatfs
C:   0000310E  A$siofatfsg\SIOFS\siofatfs$2108    siofatfs
C:   0000310E  C$siofatfs.c$346$1_0$110           siofatfs
C:   00003110  A$siofatfsg\SIOFS\siofatfs$2109    siofatfs
C:   00003112  A$siofatfsg\SIOFS\siofatfs$2110    siofatfs
C:   00003113  A$siofatfsg\SIOFS\siofatfs$2111    siofatfs
C:   00003114  A$siofatfsg\SIOFS\siofatfs$2112    siofatfs
C:   00003116  A$siofatfsg\SIOFS\siofatfs$2113    siofatfs
C:   00003118  A$siofatfsg\SIOFS\siofatfs$2114    siofatfs
C:   0000311A  A$siofatfsg\SIOFS\siofatfs$2115    siofatfs
C:   0000311C  A$siofatfsg\SIOFS\siofatfs$2116    siofatfs
C:   0000311E  A$siofatfsg\SIOFS\siofatfs$2117    siofatfs
C:   0000311F  A$siofatfsg\SIOFS\siofatfs$2118    siofatfs
C:   00003121  A$siofatfsg\SIOFS\siofatfs$2119    siofatfs
C:   00003123  A$siofatfsg\SIOFS\siofatfs$2120    siofatfs
C:   00003125  A$siofatfsg\SIOFS\siofatfs$2121    siofatfs
C:   00003127  A$siofatfsg\SIOFS\siofatfs$2122    siofatfs
C:   0000312A  A$siofatfsg\SIOFS\siofatfs$2123    siofatfs
C:   0000312D  A$siofatfsg\SIOFS\siofatfs$2124    siofatfs
C:   0000312F  A$siofatfsg\SIOFS\siofatfs$2125    siofatfs
C:   00003131  A$siofatfsg\SIOFS\siofatfs$2126    siofatfs
C:   00003133  A$siofatfsg\SIOFS\siofatfs$2127    siofatfs
C:   00003135  A$siofatfsg\SIOFS\siofatfs$2128    siofatfs
C:   00003137  A$siofatfsg\SIOFS\siofatfs$2131    siofatfs
C:   00003137  C$siofatfs.c$347$1_0$110           siofatfs
C:   00003139  A$siofatfsg\SIOFS\siofatfs$2132    siofatfs
C:   0000313C  A$siofatfsg\SIOFS\siofatfs$2133    siofatfs
C:   0000313E  A$siofatfsg\SIOFS\siofatfs$2134    siofatfs
C:   00003140  A$siofatfsg\SIOFS\siofatfs$2135    siofatfs
C:   00003142  A$siofatfsg\SIOFS\siofatfs$2136    siofatfs
C:   00003143  A$siofatfsg\SIOFS\siofatfs$2137    siofatfs
C:   00003146  A$siofatfsg\SIOFS\siofatfs$2138    siofatfs
C:   00003147  A$siofatfsg\SIOFS\siofatfs$2139    siofatfs
C:   0000314A  A$siofatfsg\SIOFS\siofatfs$2142    siofatfs
C:   0000314A  C$siofatfs.c$349$2_0$111           siofatfs
C:   0000314B  A$siofatfsg\SIOFS\siofatfs$2143    siofatfs
C:   0000314D  A$siofatfsg\SIOFS\siofatfs$2144    siofatfs
C:   0000314F  A$siofatfsg\SIOFS\siofatfs$2145    siofatfs
C:   00003151  A$siofatfsg\SIOFS\siofatfs$2146    siofatfs
C:   00003153  A$siofatfsg\SIOFS\siofatfs$2147    siofatfs
C:   00003155  A$siofatfsg\SIOFS\siofatfs$2151    siofatfs
C:   00003155  C$siofatfs.c$353$2_0$112           siofatfs
C:   00003158  A$siofatfsg\SIOFS\siofatfs$2155    siofatfs
C:   0000315B  A$siofatfsg\SIOFS\siofatfs$2156    siofatfs
C:   0000315D  A$siofatfsg\SIOFS\siofatfs$2159    siofatfs
C:   0000315D  C$siofatfs.c$355$1_0$110           siofatfs
C:   0000315D  XG$siof_puts$0$0                   siofatfs
ASxxxx Linker V03.00 + NoICE + sdld,  page 179.
Hexadecimal  [32-Bits]

Area                                    Addr        Size        Decimal Bytes (Attributes)
--------------------------------        ----        ----        ------- ----- ------------
CSEG                                00000062    00003CB7 =       15543. bytes (REL,CON,CODE)

      Value  Global                              Global Defined In Module
      -----  --------------------------------   ------------------------
C:   0000315E  A$siofatfsg\SIOFS\siofatfs$2177    siofatfs
C:   0000315E  C$siofatfs.c$377$1_0$114           siofatfs
C:   0000315E  G$siof_gets$0$0                    siofatfs
C:   0000315E  _siof_gets                         siofatfs
C:   00003160  A$siofatfsg\SIOFS\siofatfs$2178    siofatfs
C:   00003163  A$siofatfsg\SIOFS\siofatfs$2179    siofatfs
C:   00003165  A$siofatfsg\SIOFS\siofatfs$2180    siofatfs
C:   00003167  A$siofatfsg\SIOFS\siofatfs$2181    siofatfs
C:   00003169  A$siofatfsg\SIOFS\siofatfs$2182    siofatfs
C:   0000316B  A$siofatfsg\SIOFS\siofatfs$2183    siofatfs
C:   0000316D  A$siofatfsg\SIOFS\siofatfs$2184    siofatfs
C:   0000316F  A$siofatfsg\SIOFS\siofatfs$2187    siofatfs
C:   0000316F  C$siofatfs.c$380$2_0$114           siofatfs
C:   00003171  A$siofatfsg\SIOFS\siofatfs$2188    siofatfs
C:   00003173  A$siofatfsg\SIOFS\siofatfs$2189    siofatfs
C:   00003174  A$siofatfsg\SIOFS\siofatfs$2190    siofatfs
C:   00003176  A$siofatfsg\SIOFS\siofatfs$2191    siofatfs
C:   00003178  A$siofatfsg\SIOFS\siofatfs$2192    siofatfs
C:   0000317A  A$siofatfsg\SIOFS\siofatfs$2193    siofatfs
C:   0000317B  A$siofatfsg\SIOFS\siofatfs$2194    siofatfs
C:   0000317C  A$siofatfsg\SIOFS\siofatfs$2195    siofatfs
C:   0000317D  A$siofatfsg\SIOFS\siofatfs$2196    siofatfs
C:   0000317F  A$siofatfsg\SIOFS\siofatfs$2197    siofatfs
C:   00003181  A$siofatfsg\SIOFS\siofatfs$2198    siofatfs
C:   00003183  A$siofatfsg\SIOFS\siofatfs$2199    siofatfs
C:   00003184  A$siofatfsg\SIOFS\siofatfs$2200    siofatfs
C:   00003186  A$siofatfsg\SIOFS\siofatfs$2201    siofatfs
C:   00003187  A$siofatfsg\SIOFS\siofatfs$2202    siofatfs
C:   00003189  A$siofatfsg\SIOFS\siofatfs$2203    siofatfs
C:   0000318A  A$siofatfsg\SIOFS\siofatfs$2204    siofatfs
C:   0000318B  A$siofatfsg\SIOFS\siofatfs$2205    siofatfs
C:   0000318D  A$siofatfsg\SIOFS\siofatfs$2206    siofatfs
C:   0000318E  A$siofatfsg\SIOFS\siofatfs$2207    siofatfs
C:   0000318F  A$siofatfsg\SIOFS\siofatfs$2208    siofatfs
C:   00003191  A$siofatfsg\SIOFS\siofatfs$2209    siofatfs
C:   00003193  A$siofatfsg\SIOFS\siofatfs$2210    siofatfs
C:   00003194  A$siofatfsg\SIOFS\siofatfs$2211    siofatfs
C:   00003196  A$siofatfsg\SIOFS\siofatfs$2212    siofatfs
C:   00003197  A$siofatfsg\SIOFS\siofatfs$2213    siofatfs
C:   00003199  A$siofatfsg\SIOFS\siofatfs$2214    siofatfs
C:   0000319A  A$siofatfsg\SIOFS\siofatfs$2215    siofatfs
C:   0000319C  A$siofatfsg\SIOFS\siofatfs$2216    siofatfs
C:   0000319E  A$siofatfsg\SIOFS\siofatfs$2217    siofatfs
C:   0000319F  A$siofatfsg\SIOFS\siofatfs$2218    siofatfs
C:   000031A0  A$siofatfsg\SIOFS\siofatfs$2219    siofatfs
C:   000031A2  A$siofatfsg\SIOFS\siofatfs$2220    siofatfs
C:   000031A4  A$siofatfsg\SIOFS\siofatfs$2221    siofatfs
C:   000031A6  A$siofatfsg\SIOFS\siofatfs$2222    siofatfs
C:   000031A7  A$siofatfsg\SIOFS\siofatfs$2223    siofatfs
C:   000031A9  A$siofatfsg\SIOFS\siofatfs$2224    siofatfs
C:   000031AA  A$siofatfsg\SIOFS\siofatfs$2225    siofatfs
ASxxxx Linker V03.00 + NoICE + sdld,  page 180.
Hexadecimal  [32-Bits]

Area                                    Addr        Size        Decimal Bytes (Attributes)
--------------------------------        ----        ----        ------- ----- ------------
CSEG                                00000062    00003CB7 =       15543. bytes (REL,CON,CODE)

      Value  Global                              Global Defined In Module
      -----  --------------------------------   ------------------------
C:   000031AC  A$siofatfsg\SIOFS\siofatfs$2226    siofatfs
C:   000031AD  A$siofatfsg\SIOFS\siofatfs$2227    siofatfs
C:   000031AF  A$siofatfsg\SIOFS\siofatfs$2228    siofatfs
C:   000031B1  A$siofatfsg\SIOFS\siofatfs$2229    siofatfs
C:   000031B3  A$siofatfsg\SIOFS\siofatfs$2230    siofatfs
C:   000031B5  A$siofatfsg\SIOFS\siofatfs$2231    siofatfs
C:   000031B7  A$siofatfsg\SIOFS\siofatfs$2232    siofatfs
C:   000031BA  A$siofatfsg\SIOFS\siofatfs$2233    siofatfs
C:   000031BB  A$siofatfsg\SIOFS\siofatfs$2234    siofatfs
C:   000031BD  A$siofatfsg\SIOFS\siofatfs$2235    siofatfs
C:   000031BF  A$siofatfsg\SIOFS\siofatfs$2236    siofatfs
C:   000031C1  A$siofatfsg\SIOFS\siofatfs$2237    siofatfs
C:   000031C3  A$siofatfsg\SIOFS\siofatfs$2238    siofatfs
C:   000031C4  A$siofatfsg\SIOFS\siofatfs$2239    siofatfs
C:   000031C6  A$siofatfsg\SIOFS\siofatfs$2240    siofatfs
C:   000031C7  A$siofatfsg\SIOFS\siofatfs$2241    siofatfs
C:   000031C9  A$siofatfsg\SIOFS\siofatfs$2242    siofatfs
C:   000031CA  A$siofatfsg\SIOFS\siofatfs$2243    siofatfs
C:   000031CC  A$siofatfsg\SIOFS\siofatfs$2246    siofatfs
C:   000031CC  C$siofatfs.c$383$1_0$114           siofatfs
C:   000031CE  A$siofatfsg\SIOFS\siofatfs$2247    siofatfs
C:   000031D0  A$siofatfsg\SIOFS\siofatfs$2248    siofatfs
C:   000031D2  A$siofatfsg\SIOFS\siofatfs$2249    siofatfs
C:   000031D4  A$siofatfsg\SIOFS\siofatfs$2250    siofatfs
C:   000031D6  A$siofatfsg\SIOFS\siofatfs$2251    siofatfs
C:   000031D8  A$siofatfsg\SIOFS\siofatfs$2252    siofatfs
C:   000031D9  A$siofatfsg\SIOFS\siofatfs$2253    siofatfs
C:   000031DB  A$siofatfsg\SIOFS\siofatfs$2254    siofatfs
C:   000031DD  A$siofatfsg\SIOFS\siofatfs$2255    siofatfs
C:   000031DF  A$siofatfsg\SIOFS\siofatfs$2256    siofatfs
C:   000031E1  A$siofatfsg\SIOFS\siofatfs$2257    siofatfs
C:   000031E4  A$siofatfsg\SIOFS\siofatfs$2258    siofatfs
C:   000031E7  A$siofatfsg\SIOFS\siofatfs$2259    siofatfs
C:   000031E9  A$siofatfsg\SIOFS\siofatfs$2260    siofatfs
C:   000031EB  A$siofatfsg\SIOFS\siofatfs$2261    siofatfs
C:   000031ED  A$siofatfsg\SIOFS\siofatfs$2264    siofatfs
C:   000031ED  C$siofatfs.c$384$1_0$114           siofatfs
C:   000031EF  A$siofatfsg\SIOFS\siofatfs$2265    siofatfs
C:   000031F1  A$siofatfsg\SIOFS\siofatfs$2266    siofatfs
C:   000031F2  A$siofatfsg\SIOFS\siofatfs$2267    siofatfs
C:   000031F3  A$siofatfsg\SIOFS\siofatfs$2268    siofatfs
C:   000031F5  A$siofatfsg\SIOFS\siofatfs$2269    siofatfs
C:   000031F7  A$siofatfsg\SIOFS\siofatfs$2270    siofatfs
C:   000031F9  A$siofatfsg\SIOFS\siofatfs$2271    siofatfs
C:   000031FB  A$siofatfsg\SIOFS\siofatfs$2272    siofatfs
C:   000031FD  A$siofatfsg\SIOFS\siofatfs$2273    siofatfs
C:   000031FE  A$siofatfsg\SIOFS\siofatfs$2274    siofatfs
C:   00003200  A$siofatfsg\SIOFS\siofatfs$2275    siofatfs
C:   00003202  A$siofatfsg\SIOFS\siofatfs$2276    siofatfs
C:   00003204  A$siofatfsg\SIOFS\siofatfs$2277    siofatfs
C:   00003206  A$siofatfsg\SIOFS\siofatfs$2278    siofatfs
ASxxxx Linker V03.00 + NoICE + sdld,  page 181.
Hexadecimal  [32-Bits]

Area                                    Addr        Size        Decimal Bytes (Attributes)
--------------------------------        ----        ----        ------- ----- ------------
CSEG                                00000062    00003CB7 =       15543. bytes (REL,CON,CODE)

      Value  Global                              Global Defined In Module
      -----  --------------------------------   ------------------------
C:   00003209  A$siofatfsg\SIOFS\siofatfs$2279    siofatfs
C:   0000320C  A$siofatfsg\SIOFS\siofatfs$2280    siofatfs
C:   0000320E  A$siofatfsg\SIOFS\siofatfs$2281    siofatfs
C:   00003210  A$siofatfsg\SIOFS\siofatfs$2282    siofatfs
C:   00003212  A$siofatfsg\SIOFS\siofatfs$2283    siofatfs
C:   00003214  A$siofatfsg\SIOFS\siofatfs$2284    siofatfs
C:   00003216  A$siofatfsg\SIOFS\siofatfs$2287    siofatfs
C:   00003216  C$siofatfs.c$385$1_0$114           siofatfs
C:   00003218  A$siofatfsg\SIOFS\siofatfs$2288    siofatfs
C:   0000321B  A$siofatfsg\SIOFS\siofatfs$2289    siofatfs
C:   0000321D  A$siofatfsg\SIOFS\siofatfs$2290    siofatfs
C:   0000321F  A$siofatfsg\SIOFS\siofatfs$2291    siofatfs
C:   00003221  A$siofatfsg\SIOFS\siofatfs$2292    siofatfs
C:   00003222  A$siofatfsg\SIOFS\siofatfs$2293    siofatfs
C:   00003225  A$siofatfsg\SIOFS\siofatfs$2294    siofatfs
C:   00003226  A$siofatfsg\SIOFS\siofatfs$2295    siofatfs
C:   00003229  A$siofatfsg\SIOFS\siofatfs$2298    siofatfs
C:   00003229  C$siofatfs.c$387$2_0$115           siofatfs
C:   0000322B  A$siofatfsg\SIOFS\siofatfs$2299    siofatfs
C:   0000322D  A$siofatfsg\SIOFS\siofatfs$2300    siofatfs
C:   0000322E  A$siofatfsg\SIOFS\siofatfs$2301    siofatfs
C:   0000322F  A$siofatfsg\SIOFS\siofatfs$2302    siofatfs
C:   00003231  A$siofatfsg\SIOFS\siofatfs$2303    siofatfs
C:   00003232  A$siofatfsg\SIOFS\siofatfs$2304    siofatfs
C:   00003233  A$siofatfsg\SIOFS\siofatfs$2305    siofatfs
C:   00003235  A$siofatfsg\SIOFS\siofatfs$2306    siofatfs
C:   00003237  A$siofatfsg\SIOFS\siofatfs$2307    siofatfs
C:   00003238  A$siofatfsg\SIOFS\siofatfs$2308    siofatfs
C:   00003239  A$siofatfsg\SIOFS\siofatfs$2309    siofatfs
C:   0000323B  A$siofatfsg\SIOFS\siofatfs$2310    siofatfs
C:   0000323C  A$siofatfsg\SIOFS\siofatfs$2311    siofatfs
C:   0000323D  A$siofatfsg\SIOFS\siofatfs$2312    siofatfs
C:   0000323F  A$siofatfsg\SIOFS\siofatfs$2313    siofatfs
C:   00003240  A$siofatfsg\SIOFS\siofatfs$2314    siofatfs
C:   00003241  A$siofatfsg\SIOFS\siofatfs$2315    siofatfs
C:   00003243  A$siofatfsg\SIOFS\siofatfs$2316    siofatfs
C:   00003246  A$siofatfsg\SIOFS\siofatfs$2317    siofatfs
C:   00003249  A$siofatfsg\SIOFS\siofatfs$2318    siofatfs
C:   0000324B  A$siofatfsg\SIOFS\siofatfs$2319    siofatfs
C:   0000324D  A$siofatfsg\SIOFS\siofatfs$2320    siofatfs
C:   0000324F  A$siofatfsg\SIOFS\siofatfs$2323    siofatfs
C:   0000324F  C$siofatfs.c$388$2_0$115           siofatfs
C:   00003251  A$siofatfsg\SIOFS\siofatfs$2324    siofatfs
C:   00003252  A$siofatfsg\SIOFS\siofatfs$2325    siofatfs
C:   00003254  A$siofatfsg\SIOFS\siofatfs$2326    siofatfs
C:   00003255  A$siofatfsg\SIOFS\siofatfs$2327    siofatfs
C:   00003257  A$siofatfsg\SIOFS\siofatfs$2328    siofatfs
C:   00003258  A$siofatfsg\SIOFS\siofatfs$2329    siofatfs
C:   0000325A  A$siofatfsg\SIOFS\siofatfs$2330    siofatfs
C:   0000325C  A$siofatfsg\SIOFS\siofatfs$2334    siofatfs
C:   0000325C  C$siofatfs.c$392$2_0$116           siofatfs
ASxxxx Linker V03.00 + NoICE + sdld,  page 182.
Hexadecimal  [32-Bits]

Area                                    Addr        Size        Decimal Bytes (Attributes)
--------------------------------        ----        ----        ------- ----- ------------
CSEG                                00000062    00003CB7 =       15543. bytes (REL,CON,CODE)

      Value  Global                              Global Defined In Module
      -----  --------------------------------   ------------------------
C:   0000325F  A$siofatfsg\SIOFS\siofatfs$2335    siofatfs
C:   00003262  A$siofatfsg\SIOFS\siofatfs$2339    siofatfs
C:   00003265  A$siofatfsg\SIOFS\siofatfs$2340    siofatfs
C:   00003267  A$siofatfsg\SIOFS\siofatfs$2343    siofatfs
C:   00003267  C$siofatfs.c$394$1_0$114           siofatfs
C:   00003267  XG$siof_gets$0$0                   siofatfs
C:   00003268  A$siofatfsg\SIOFS\siofatfs$2359    siofatfs
C:   00003268  C$siofatfs.c$406$1_0$118           siofatfs
C:   00003268  G$siof_eof$0$0                     siofatfs
C:   00003268  _siof_eof                          siofatfs
C:   0000326A  A$siofatfsg\SIOFS\siofatfs$2360    siofatfs
C:   0000326C  A$siofatfsg\SIOFS\siofatfs$2361    siofatfs
C:   0000326E  A$siofatfsg\SIOFS\siofatfs$2362    siofatfs
C:   00003270  A$siofatfsg\SIOFS\siofatfs$2363    siofatfs
C:   00003272  A$siofatfsg\SIOFS\siofatfs$2364    siofatfs
C:   00003274  A$siofatfsg\SIOFS\siofatfs$2365    siofatfs
C:   00003276  A$siofatfsg\SIOFS\siofatfs$2366    siofatfs
C:   00003278  A$siofatfsg\SIOFS\siofatfs$2369    siofatfs
C:   00003278  C$siofatfs.c$409$2_0$118           siofatfs
C:   0000327A  A$siofatfsg\SIOFS\siofatfs$2370    siofatfs
C:   0000327C  A$siofatfsg\SIOFS\siofatfs$2371    siofatfs
C:   0000327D  A$siofatfsg\SIOFS\siofatfs$2372    siofatfs
C:   0000327F  A$siofatfsg\SIOFS\siofatfs$2373    siofatfs
C:   00003281  A$siofatfsg\SIOFS\siofatfs$2374    siofatfs
C:   00003283  A$siofatfsg\SIOFS\siofatfs$2375    siofatfs
C:   00003284  A$siofatfsg\SIOFS\siofatfs$2376    siofatfs
C:   00003285  A$siofatfsg\SIOFS\siofatfs$2377    siofatfs
C:   00003286  A$siofatfsg\SIOFS\siofatfs$2378    siofatfs
C:   00003288  A$siofatfsg\SIOFS\siofatfs$2379    siofatfs
C:   0000328A  A$siofatfsg\SIOFS\siofatfs$2380    siofatfs
C:   0000328C  A$siofatfsg\SIOFS\siofatfs$2381    siofatfs
C:   0000328F  A$siofatfsg\SIOFS\siofatfs$2382    siofatfs
C:   00003290  A$siofatfsg\SIOFS\siofatfs$2383    siofatfs
C:   00003292  A$siofatfsg\SIOFS\siofatfs$2384    siofatfs
C:   00003294  A$siofatfsg\SIOFS\siofatfs$2385    siofatfs
C:   00003296  A$siofatfsg\SIOFS\siofatfs$2386    siofatfs
C:   00003298  A$siofatfsg\SIOFS\siofatfs$2387    siofatfs
C:   00003299  A$siofatfsg\SIOFS\siofatfs$2388    siofatfs
C:   0000329B  A$siofatfsg\SIOFS\siofatfs$2389    siofatfs
C:   0000329C  A$siofatfsg\SIOFS\siofatfs$2390    siofatfs
C:   0000329E  A$siofatfsg\SIOFS\siofatfs$2391    siofatfs
C:   0000329F  A$siofatfsg\SIOFS\siofatfs$2392    siofatfs
C:   000032A1  A$siofatfsg\SIOFS\siofatfs$2395    siofatfs
C:   000032A1  C$siofatfs.c$412$1_0$118           siofatfs
C:   000032A3  A$siofatfsg\SIOFS\siofatfs$2396    siofatfs
C:   000032A5  A$siofatfsg\SIOFS\siofatfs$2397    siofatfs
C:   000032A7  A$siofatfsg\SIOFS\siofatfs$2398    siofatfs
C:   000032A9  A$siofatfsg\SIOFS\siofatfs$2399    siofatfs
C:   000032AB  A$siofatfsg\SIOFS\siofatfs$2400    siofatfs
C:   000032AD  A$siofatfsg\SIOFS\siofatfs$2401    siofatfs
C:   000032AE  A$siofatfsg\SIOFS\siofatfs$2402    siofatfs
ASxxxx Linker V03.00 + NoICE + sdld,  page 183.
Hexadecimal  [32-Bits]

Area                                    Addr        Size        Decimal Bytes (Attributes)
--------------------------------        ----        ----        ------- ----- ------------
CSEG                                00000062    00003CB7 =       15543. bytes (REL,CON,CODE)

      Value  Global                              Global Defined In Module
      -----  --------------------------------   ------------------------
C:   000032B0  A$siofatfsg\SIOFS\siofatfs$2403    siofatfs
C:   000032B2  A$siofatfsg\SIOFS\siofatfs$2404    siofatfs
C:   000032B4  A$siofatfsg\SIOFS\siofatfs$2405    siofatfs
C:   000032B6  A$siofatfsg\SIOFS\siofatfs$2406    siofatfs
C:   000032B9  A$siofatfsg\SIOFS\siofatfs$2407    siofatfs
C:   000032BC  A$siofatfsg\SIOFS\siofatfs$2408    siofatfs
C:   000032BE  A$siofatfsg\SIOFS\siofatfs$2409    siofatfs
C:   000032C0  A$siofatfsg\SIOFS\siofatfs$2410    siofatfs
C:   000032C2  A$siofatfsg\SIOFS\siofatfs$2413    siofatfs
C:   000032C2  C$siofatfs.c$413$1_0$118           siofatfs
C:   000032C4  A$siofatfsg\SIOFS\siofatfs$2414    siofatfs
C:   000032C5  A$siofatfsg\SIOFS\siofatfs$2415    siofatfs
C:   000032C7  A$siofatfsg\SIOFS\siofatfs$2416    siofatfs
C:   000032C9  A$siofatfsg\SIOFS\siofatfs$2417    siofatfs
C:   000032CB  A$siofatfsg\SIOFS\siofatfs$2418    siofatfs
C:   000032CD  A$siofatfsg\SIOFS\siofatfs$2419    siofatfs
C:   000032CF  A$siofatfsg\SIOFS\siofatfs$2420    siofatfs
C:   000032D1  A$siofatfsg\SIOFS\siofatfs$2421    siofatfs
C:   000032D2  A$siofatfsg\SIOFS\siofatfs$2422    siofatfs
C:   000032D4  A$siofatfsg\SIOFS\siofatfs$2423    siofatfs
C:   000032D6  A$siofatfsg\SIOFS\siofatfs$2424    siofatfs
C:   000032D8  A$siofatfsg\SIOFS\siofatfs$2425    siofatfs
C:   000032DA  A$siofatfsg\SIOFS\siofatfs$2426    siofatfs
C:   000032DD  A$siofatfsg\SIOFS\siofatfs$2427    siofatfs
C:   000032E0  A$siofatfsg\SIOFS\siofatfs$2428    siofatfs
C:   000032E2  A$siofatfsg\SIOFS\siofatfs$2429    siofatfs
C:   000032E4  A$siofatfsg\SIOFS\siofatfs$2430    siofatfs
C:   000032E6  A$siofatfsg\SIOFS\siofatfs$2431    siofatfs
C:   000032E8  A$siofatfsg\SIOFS\siofatfs$2432    siofatfs
C:   000032EA  A$siofatfsg\SIOFS\siofatfs$2435    siofatfs
C:   000032EA  C$siofatfs.c$414$1_0$118           siofatfs
C:   000032EC  A$siofatfsg\SIOFS\siofatfs$2436    siofatfs
C:   000032EF  A$siofatfsg\SIOFS\siofatfs$2437    siofatfs
C:   000032F1  A$siofatfsg\SIOFS\siofatfs$2438    siofatfs
C:   000032F3  A$siofatfsg\SIOFS\siofatfs$2439    siofatfs
C:   000032F5  A$siofatfsg\SIOFS\siofatfs$2440    siofatfs
C:   000032F6  A$siofatfsg\SIOFS\siofatfs$2441    siofatfs
C:   000032F9  A$siofatfsg\SIOFS\siofatfs$2442    siofatfs
C:   000032FA  A$siofatfsg\SIOFS\siofatfs$2443    siofatfs
C:   000032FD  A$siofatfsg\SIOFS\siofatfs$2446    siofatfs
C:   000032FD  C$siofatfs.c$416$2_0$119           siofatfs
C:   000032FE  A$siofatfsg\SIOFS\siofatfs$2447    siofatfs
C:   00003300  A$siofatfsg\SIOFS\siofatfs$2448    siofatfs
C:   00003301  A$siofatfsg\SIOFS\siofatfs$2449    siofatfs
C:   00003303  A$siofatfsg\SIOFS\siofatfs$2450    siofatfs
C:   00003305  A$siofatfsg\SIOFS\siofatfs$2451    siofatfs
C:   00003307  A$siofatfsg\SIOFS\siofatfs$2452    siofatfs
C:   00003309  A$siofatfsg\SIOFS\siofatfs$2456    siofatfs
C:   00003309  C$siofatfs.c$420$2_0$120           siofatfs
C:   0000330C  A$siofatfsg\SIOFS\siofatfs$2460    siofatfs
C:   0000330F  A$siofatfsg\SIOFS\siofatfs$2461    siofatfs
ASxxxx Linker V03.00 + NoICE + sdld,  page 184.
Hexadecimal  [32-Bits]

Area                                    Addr        Size        Decimal Bytes (Attributes)
--------------------------------        ----        ----        ------- ----- ------------
CSEG                                00000062    00003CB7 =       15543. bytes (REL,CON,CODE)

      Value  Global                              Global Defined In Module
      -----  --------------------------------   ------------------------
C:   00003311  A$siofatfsg\SIOFS\siofatfs$2464    siofatfs
C:   00003311  C$siofatfs.c$422$1_0$118           siofatfs
C:   00003311  XG$siof_eof$0$0                    siofatfs
C:   00003312  A$siofatfsg\SIOFS\siofatfs$2480    siofatfs
C:   00003312  C$siofatfs.c$434$1_0$122           siofatfs
C:   00003312  G$siof_error$0$0                   siofatfs
C:   00003312  _siof_error                        siofatfs
C:   00003314  A$siofatfsg\SIOFS\siofatfs$2481    siofatfs
C:   00003316  A$siofatfsg\SIOFS\siofatfs$2482    siofatfs
C:   00003318  A$siofatfsg\SIOFS\siofatfs$2483    siofatfs
C:   0000331A  A$siofatfsg\SIOFS\siofatfs$2484    siofatfs
C:   0000331C  A$siofatfsg\SIOFS\siofatfs$2485    siofatfs
C:   0000331E  A$siofatfsg\SIOFS\siofatfs$2486    siofatfs
C:   00003320  A$siofatfsg\SIOFS\siofatfs$2487    siofatfs
C:   00003322  A$siofatfsg\SIOFS\siofatfs$2490    siofatfs
C:   00003322  C$siofatfs.c$437$2_0$122           siofatfs
C:   00003324  A$siofatfsg\SIOFS\siofatfs$2491    siofatfs
C:   00003325  A$siofatfsg\SIOFS\siofatfs$2492    siofatfs
C:   00003326  A$siofatfsg\SIOFS\siofatfs$2493    siofatfs
C:   00003328  A$siofatfsg\SIOFS\siofatfs$2494    siofatfs
C:   0000332A  A$siofatfsg\SIOFS\siofatfs$2495    siofatfs
C:   0000332B  A$siofatfsg\SIOFS\siofatfs$2496    siofatfs
C:   0000332C  A$siofatfsg\SIOFS\siofatfs$2497    siofatfs
C:   0000332D  A$siofatfsg\SIOFS\siofatfs$2498    siofatfs
C:   0000332E  A$siofatfsg\SIOFS\siofatfs$2499    siofatfs
C:   00003330  A$siofatfsg\SIOFS\siofatfs$2500    siofatfs
C:   00003332  A$siofatfsg\SIOFS\siofatfs$2501    siofatfs
C:   00003334  A$siofatfsg\SIOFS\siofatfs$2502    siofatfs
C:   00003337  A$siofatfsg\SIOFS\siofatfs$2503    siofatfs
C:   00003338  A$siofatfsg\SIOFS\siofatfs$2504    siofatfs
C:   0000333A  A$siofatfsg\SIOFS\siofatfs$2505    siofatfs
C:   0000333C  A$siofatfsg\SIOFS\siofatfs$2506    siofatfs
C:   0000333E  A$siofatfsg\SIOFS\siofatfs$2507    siofatfs
C:   00003340  A$siofatfsg\SIOFS\siofatfs$2508    siofatfs
C:   00003341  A$siofatfsg\SIOFS\siofatfs$2509    siofatfs
C:   00003343  A$siofatfsg\SIOFS\siofatfs$2510    siofatfs
C:   00003344  A$siofatfsg\SIOFS\siofatfs$2511    siofatfs
C:   00003346  A$siofatfsg\SIOFS\siofatfs$2512    siofatfs
C:   00003347  A$siofatfsg\SIOFS\siofatfs$2513    siofatfs
C:   00003349  A$siofatfsg\SIOFS\siofatfs$2516    siofatfs
C:   00003349  C$siofatfs.c$440$1_0$122           siofatfs
C:   0000334B  A$siofatfsg\SIOFS\siofatfs$2517    siofatfs
C:   0000334D  A$siofatfsg\SIOFS\siofatfs$2518    siofatfs
C:   0000334F  A$siofatfsg\SIOFS\siofatfs$2519    siofatfs
C:   00003351  A$siofatfsg\SIOFS\siofatfs$2520    siofatfs
C:   00003353  A$siofatfsg\SIOFS\siofatfs$2521    siofatfs
C:   00003355  A$siofatfsg\SIOFS\siofatfs$2522    siofatfs
C:   00003356  A$siofatfsg\SIOFS\siofatfs$2523    siofatfs
C:   00003358  A$siofatfsg\SIOFS\siofatfs$2524    siofatfs
C:   0000335A  A$siofatfsg\SIOFS\siofatfs$2525    siofatfs
C:   0000335C  A$siofatfsg\SIOFS\siofatfs$2526    siofatfs
ASxxxx Linker V03.00 + NoICE + sdld,  page 185.
Hexadecimal  [32-Bits]

Area                                    Addr        Size        Decimal Bytes (Attributes)
--------------------------------        ----        ----        ------- ----- ------------
CSEG                                00000062    00003CB7 =       15543. bytes (REL,CON,CODE)

      Value  Global                              Global Defined In Module
      -----  --------------------------------   ------------------------
C:   0000335E  A$siofatfsg\SIOFS\siofatfs$2527    siofatfs
C:   00003361  A$siofatfsg\SIOFS\siofatfs$2528    siofatfs
C:   00003364  A$siofatfsg\SIOFS\siofatfs$2529    siofatfs
C:   00003366  A$siofatfsg\SIOFS\siofatfs$2530    siofatfs
C:   00003368  A$siofatfsg\SIOFS\siofatfs$2531    siofatfs
C:   0000336A  A$siofatfsg\SIOFS\siofatfs$2534    siofatfs
C:   0000336A  C$siofatfs.c$441$1_0$122           siofatfs
C:   0000336C  A$siofatfsg\SIOFS\siofatfs$2535    siofatfs
C:   0000336E  A$siofatfsg\SIOFS\siofatfs$2536    siofatfs
C:   0000336F  A$siofatfsg\SIOFS\siofatfs$2537    siofatfs
C:   00003370  A$siofatfsg\SIOFS\siofatfs$2538    siofatfs
C:   00003372  A$siofatfsg\SIOFS\siofatfs$2539    siofatfs
C:   00003374  A$siofatfsg\SIOFS\siofatfs$2540    siofatfs
C:   00003376  A$siofatfsg\SIOFS\siofatfs$2541    siofatfs
C:   00003378  A$siofatfsg\SIOFS\siofatfs$2542    siofatfs
C:   0000337A  A$siofatfsg\SIOFS\siofatfs$2543    siofatfs
C:   0000337B  A$siofatfsg\SIOFS\siofatfs$2544    siofatfs
C:   0000337D  A$siofatfsg\SIOFS\siofatfs$2545    siofatfs
C:   0000337F  A$siofatfsg\SIOFS\siofatfs$2546    siofatfs
C:   00003381  A$siofatfsg\SIOFS\siofatfs$2547    siofatfs
C:   00003383  A$siofatfsg\SIOFS\siofatfs$2548    siofatfs
C:   00003386  A$siofatfsg\SIOFS\siofatfs$2549    siofatfs
C:   00003389  A$siofatfsg\SIOFS\siofatfs$2550    siofatfs
C:   0000338B  A$siofatfsg\SIOFS\siofatfs$2551    siofatfs
C:   0000338D  A$siofatfsg\SIOFS\siofatfs$2552    siofatfs
C:   0000338F  A$siofatfsg\SIOFS\siofatfs$2553    siofatfs
C:   00003391  A$siofatfsg\SIOFS\siofatfs$2554    siofatfs
C:   00003393  A$siofatfsg\SIOFS\siofatfs$2557    siofatfs
C:   00003393  C$siofatfs.c$442$1_0$122           siofatfs
C:   00003395  A$siofatfsg\SIOFS\siofatfs$2558    siofatfs
C:   00003398  A$siofatfsg\SIOFS\siofatfs$2559    siofatfs
C:   0000339A  A$siofatfsg\SIOFS\siofatfs$2560    siofatfs
C:   0000339C  A$siofatfsg\SIOFS\siofatfs$2561    siofatfs
C:   0000339E  A$siofatfsg\SIOFS\siofatfs$2562    siofatfs
C:   0000339F  A$siofatfsg\SIOFS\siofatfs$2563    siofatfs
C:   000033A2  A$siofatfsg\SIOFS\siofatfs$2564    siofatfs
C:   000033A3  A$siofatfsg\SIOFS\siofatfs$2565    siofatfs
C:   000033A6  A$siofatfsg\SIOFS\siofatfs$2568    siofatfs
C:   000033A6  C$siofatfs.c$444$2_0$123           siofatfs
C:   000033A7  A$siofatfsg\SIOFS\siofatfs$2569    siofatfs
C:   000033A9  A$siofatfsg\SIOFS\siofatfs$2570    siofatfs
C:   000033AA  A$siofatfsg\SIOFS\siofatfs$2571    siofatfs
C:   000033AC  A$siofatfsg\SIOFS\siofatfs$2572    siofatfs
C:   000033AE  A$siofatfsg\SIOFS\siofatfs$2573    siofatfs
C:   000033B0  A$siofatfsg\SIOFS\siofatfs$2574    siofatfs
C:   000033B2  A$siofatfsg\SIOFS\siofatfs$2578    siofatfs
C:   000033B2  C$siofatfs.c$448$2_0$124           siofatfs
C:   000033B5  A$siofatfsg\SIOFS\siofatfs$2582    siofatfs
C:   000033B8  A$siofatfsg\SIOFS\siofatfs$2583    siofatfs
C:   000033BA  A$siofatfsg\SIOFS\siofatfs$2586    siofatfs
C:   000033BA  C$siofatfs.c$450$1_0$122           siofatfs
ASxxxx Linker V03.00 + NoICE + sdld,  page 186.
Hexadecimal  [32-Bits]

Area                                    Addr        Size        Decimal Bytes (Attributes)
--------------------------------        ----        ----        ------- ----- ------------
CSEG                                00000062    00003CB7 =       15543. bytes (REL,CON,CODE)

      Value  Global                              Global Defined In Module
      -----  --------------------------------   ------------------------
C:   000033BA  XG$siof_error$0$0                  siofatfs
C:   000033BB  A$siofatfsg\SIOFS\siofatfs$2602    siofatfs
C:   000033BB  C$siofatfs.c$462$1_0$126           siofatfs
C:   000033BB  G$siof_tell$0$0                    siofatfs
C:   000033BB  _siof_tell                         siofatfs
C:   000033BD  A$siofatfsg\SIOFS\siofatfs$2603    siofatfs
C:   000033BF  A$siofatfsg\SIOFS\siofatfs$2604    siofatfs
C:   000033C1  A$siofatfsg\SIOFS\siofatfs$2605    siofatfs
C:   000033C3  A$siofatfsg\SIOFS\siofatfs$2606    siofatfs
C:   000033C5  A$siofatfsg\SIOFS\siofatfs$2607    siofatfs
C:   000033C7  A$siofatfsg\SIOFS\siofatfs$2608    siofatfs
C:   000033C9  A$siofatfsg\SIOFS\siofatfs$2609    siofatfs
C:   000033CB  A$siofatfsg\SIOFS\siofatfs$2612    siofatfs
C:   000033CB  C$siofatfs.c$465$2_0$126           siofatfs
C:   000033CD  A$siofatfsg\SIOFS\siofatfs$2613    siofatfs
C:   000033CF  A$siofatfsg\SIOFS\siofatfs$2614    siofatfs
C:   000033D0  A$siofatfsg\SIOFS\siofatfs$2615    siofatfs
C:   000033D2  A$siofatfsg\SIOFS\siofatfs$2616    siofatfs
C:   000033D4  A$siofatfsg\SIOFS\siofatfs$2617    siofatfs
C:   000033D6  A$siofatfsg\SIOFS\siofatfs$2618    siofatfs
C:   000033D7  A$siofatfsg\SIOFS\siofatfs$2619    siofatfs
C:   000033D8  A$siofatfsg\SIOFS\siofatfs$2620    siofatfs
C:   000033D9  A$siofatfsg\SIOFS\siofatfs$2621    siofatfs
C:   000033DB  A$siofatfsg\SIOFS\siofatfs$2622    siofatfs
C:   000033DD  A$siofatfsg\SIOFS\siofatfs$2623    siofatfs
C:   000033DF  A$siofatfsg\SIOFS\siofatfs$2624    siofatfs
C:   000033E2  A$siofatfsg\SIOFS\siofatfs$2625    siofatfs
C:   000033E3  A$siofatfsg\SIOFS\siofatfs$2626    siofatfs
C:   000033E5  A$siofatfsg\SIOFS\siofatfs$2627    siofatfs
C:   000033E7  A$siofatfsg\SIOFS\siofatfs$2628    siofatfs
C:   000033E9  A$siofatfsg\SIOFS\siofatfs$2629    siofatfs
C:   000033EB  A$siofatfsg\SIOFS\siofatfs$2630    siofatfs
C:   000033EC  A$siofatfsg\SIOFS\siofatfs$2631    siofatfs
C:   000033EE  A$siofatfsg\SIOFS\siofatfs$2632    siofatfs
C:   000033EF  A$siofatfsg\SIOFS\siofatfs$2633    siofatfs
C:   000033F1  A$siofatfsg\SIOFS\siofatfs$2634    siofatfs
C:   000033F2  A$siofatfsg\SIOFS\siofatfs$2635    siofatfs
C:   000033F4  A$siofatfsg\SIOFS\siofatfs$2638    siofatfs
C:   000033F4  C$siofatfs.c$468$1_0$126           siofatfs
C:   000033F6  A$siofatfsg\SIOFS\siofatfs$2639    siofatfs
C:   000033F8  A$siofatfsg\SIOFS\siofatfs$2640    siofatfs
C:   000033FA  A$siofatfsg\SIOFS\siofatfs$2641    siofatfs
C:   000033FC  A$siofatfsg\SIOFS\siofatfs$2642    siofatfs
C:   000033FE  A$siofatfsg\SIOFS\siofatfs$2643    siofatfs
C:   00003400  A$siofatfsg\SIOFS\siofatfs$2644    siofatfs
C:   00003401  A$siofatfsg\SIOFS\siofatfs$2645    siofatfs
C:   00003403  A$siofatfsg\SIOFS\siofatfs$2646    siofatfs
C:   00003405  A$siofatfsg\SIOFS\siofatfs$2647    siofatfs
C:   00003407  A$siofatfsg\SIOFS\siofatfs$2648    siofatfs
C:   00003409  A$siofatfsg\SIOFS\siofatfs$2649    siofatfs
C:   0000340C  A$siofatfsg\SIOFS\siofatfs$2650    siofatfs
ASxxxx Linker V03.00 + NoICE + sdld,  page 187.
Hexadecimal  [32-Bits]

Area                                    Addr        Size        Decimal Bytes (Attributes)
--------------------------------        ----        ----        ------- ----- ------------
CSEG                                00000062    00003CB7 =       15543. bytes (REL,CON,CODE)

      Value  Global                              Global Defined In Module
      -----  --------------------------------   ------------------------
C:   0000340F  A$siofatfsg\SIOFS\siofatfs$2651    siofatfs
C:   00003411  A$siofatfsg\SIOFS\siofatfs$2652    siofatfs
C:   00003413  A$siofatfsg\SIOFS\siofatfs$2653    siofatfs
C:   00003415  A$siofatfsg\SIOFS\siofatfs$2656    siofatfs
C:   00003415  C$siofatfs.c$469$1_0$126           siofatfs
C:   00003417  A$siofatfsg\SIOFS\siofatfs$2657    siofatfs
C:   00003418  A$siofatfsg\SIOFS\siofatfs$2658    siofatfs
C:   0000341A  A$siofatfsg\SIOFS\siofatfs$2659    siofatfs
C:   0000341C  A$siofatfsg\SIOFS\siofatfs$2660    siofatfs
C:   0000341E  A$siofatfsg\SIOFS\siofatfs$2661    siofatfs
C:   00003420  A$siofatfsg\SIOFS\siofatfs$2662    siofatfs
C:   00003422  A$siofatfsg\SIOFS\siofatfs$2663    siofatfs
C:   00003424  A$siofatfsg\SIOFS\siofatfs$2664    siofatfs
C:   00003425  A$siofatfsg\SIOFS\siofatfs$2665    siofatfs
C:   00003427  A$siofatfsg\SIOFS\siofatfs$2666    siofatfs
C:   00003429  A$siofatfsg\SIOFS\siofatfs$2667    siofatfs
C:   0000342B  A$siofatfsg\SIOFS\siofatfs$2668    siofatfs
C:   0000342D  A$siofatfsg\SIOFS\siofatfs$2669    siofatfs
C:   00003430  A$siofatfsg\SIOFS\siofatfs$2670    siofatfs
C:   00003433  A$siofatfsg\SIOFS\siofatfs$2671    siofatfs
C:   00003435  A$siofatfsg\SIOFS\siofatfs$2672    siofatfs
C:   00003437  A$siofatfsg\SIOFS\siofatfs$2673    siofatfs
C:   00003439  A$siofatfsg\SIOFS\siofatfs$2674    siofatfs
C:   0000343B  A$siofatfsg\SIOFS\siofatfs$2675    siofatfs
C:   0000343D  A$siofatfsg\SIOFS\siofatfs$2678    siofatfs
C:   0000343D  C$siofatfs.c$470$1_0$126           siofatfs
C:   0000343F  A$siofatfsg\SIOFS\siofatfs$2679    siofatfs
C:   00003442  A$siofatfsg\SIOFS\siofatfs$2680    siofatfs
C:   00003444  A$siofatfsg\SIOFS\siofatfs$2681    siofatfs
C:   00003446  A$siofatfsg\SIOFS\siofatfs$2682    siofatfs
C:   00003448  A$siofatfsg\SIOFS\siofatfs$2683    siofatfs
C:   00003449  A$siofatfsg\SIOFS\siofatfs$2684    siofatfs
C:   0000344C  A$siofatfsg\SIOFS\siofatfs$2685    siofatfs
C:   0000344D  A$siofatfsg\SIOFS\siofatfs$2686    siofatfs
C:   00003450  A$siofatfsg\SIOFS\siofatfs$2689    siofatfs
C:   00003450  C$siofatfs.c$472$2_0$127           siofatfs
C:   00003451  A$siofatfsg\SIOFS\siofatfs$2690    siofatfs
C:   00003453  A$siofatfsg\SIOFS\siofatfs$2691    siofatfs
C:   00003454  A$siofatfsg\SIOFS\siofatfs$2692    siofatfs
C:   00003456  A$siofatfsg\SIOFS\siofatfs$2693    siofatfs
C:   00003458  A$siofatfsg\SIOFS\siofatfs$2694    siofatfs
C:   0000345A  A$siofatfsg\SIOFS\siofatfs$2695    siofatfs
C:   0000345C  A$siofatfsg\SIOFS\siofatfs$2699    siofatfs
C:   0000345C  C$siofatfs.c$476$2_0$128           siofatfs
C:   0000345F  A$siofatfsg\SIOFS\siofatfs$2703    siofatfs
C:   00003462  A$siofatfsg\SIOFS\siofatfs$2704    siofatfs
C:   00003464  A$siofatfsg\SIOFS\siofatfs$2707    siofatfs
C:   00003464  C$siofatfs.c$478$1_0$126           siofatfs
C:   00003464  XG$siof_tell$0$0                   siofatfs
C:   00003465  A$siofatfsg\SIOFS\siofatfs$2723    siofatfs
C:   00003465  C$siofatfs.c$490$1_0$130           siofatfs
ASxxxx Linker V03.00 + NoICE + sdld,  page 188.
Hexadecimal  [32-Bits]

Area                                    Addr        Size        Decimal Bytes (Attributes)
--------------------------------        ----        ----        ------- ----- ------------
CSEG                                00000062    00003CB7 =       15543. bytes (REL,CON,CODE)

      Value  Global                              Global Defined In Module
      -----  --------------------------------   ------------------------
C:   00003465  G$siof_size$0$0                    siofatfs
C:   00003465  _siof_size                         siofatfs
C:   00003467  A$siofatfsg\SIOFS\siofatfs$2724    siofatfs
C:   00003469  A$siofatfsg\SIOFS\siofatfs$2725    siofatfs
C:   0000346B  A$siofatfsg\SIOFS\siofatfs$2726    siofatfs
C:   0000346D  A$siofatfsg\SIOFS\siofatfs$2727    siofatfs
C:   0000346F  A$siofatfsg\SIOFS\siofatfs$2728    siofatfs
C:   00003471  A$siofatfsg\SIOFS\siofatfs$2729    siofatfs
C:   00003473  A$siofatfsg\SIOFS\siofatfs$2730    siofatfs
C:   00003475  A$siofatfsg\SIOFS\siofatfs$2733    siofatfs
C:   00003475  C$siofatfs.c$493$2_0$130           siofatfs
C:   00003477  A$siofatfsg\SIOFS\siofatfs$2734    siofatfs
C:   00003478  A$siofatfsg\SIOFS\siofatfs$2735    siofatfs
C:   00003479  A$siofatfsg\SIOFS\siofatfs$2736    siofatfs
C:   0000347B  A$siofatfsg\SIOFS\siofatfs$2737    siofatfs
C:   0000347D  A$siofatfsg\SIOFS\siofatfs$2738    siofatfs
C:   0000347E  A$siofatfsg\SIOFS\siofatfs$2739    siofatfs
C:   0000347F  A$siofatfsg\SIOFS\siofatfs$2740    siofatfs
C:   00003480  A$siofatfsg\SIOFS\siofatfs$2741    siofatfs
C:   00003481  A$siofatfsg\SIOFS\siofatfs$2742    siofatfs
C:   00003483  A$siofatfsg\SIOFS\siofatfs$2743    siofatfs
C:   00003485  A$siofatfsg\SIOFS\siofatfs$2744    siofatfs
C:   00003487  A$siofatfsg\SIOFS\siofatfs$2745    siofatfs
C:   0000348A  A$siofatfsg\SIOFS\siofatfs$2746    siofatfs
C:   0000348B  A$siofatfsg\SIOFS\siofatfs$2747    siofatfs
C:   0000348D  A$siofatfsg\SIOFS\siofatfs$2748    siofatfs
C:   0000348F  A$siofatfsg\SIOFS\siofatfs$2749    siofatfs
C:   00003491  A$siofatfsg\SIOFS\siofatfs$2750    siofatfs
C:   00003493  A$siofatfsg\SIOFS\siofatfs$2751    siofatfs
C:   00003494  A$siofatfsg\SIOFS\siofatfs$2752    siofatfs
C:   00003496  A$siofatfsg\SIOFS\siofatfs$2753    siofatfs
C:   00003497  A$siofatfsg\SIOFS\siofatfs$2754    siofatfs
C:   00003499  A$siofatfsg\SIOFS\siofatfs$2755    siofatfs
C:   0000349A  A$siofatfsg\SIOFS\siofatfs$2756    siofatfs
C:   0000349C  A$siofatfsg\SIOFS\siofatfs$2759    siofatfs
C:   0000349C  C$siofatfs.c$496$1_0$130           siofatfs
C:   0000349E  A$siofatfsg\SIOFS\siofatfs$2760    siofatfs
C:   000034A0  A$siofatfsg\SIOFS\siofatfs$2761    siofatfs
C:   000034A2  A$siofatfsg\SIOFS\siofatfs$2762    siofatfs
C:   000034A4  A$siofatfsg\SIOFS\siofatfs$2763    siofatfs
C:   000034A6  A$siofatfsg\SIOFS\siofatfs$2764    siofatfs
C:   000034A8  A$siofatfsg\SIOFS\siofatfs$2765    siofatfs
C:   000034A9  A$siofatfsg\SIOFS\siofatfs$2766    siofatfs
C:   000034AB  A$siofatfsg\SIOFS\siofatfs$2767    siofatfs
C:   000034AD  A$siofatfsg\SIOFS\siofatfs$2768    siofatfs
C:   000034AF  A$siofatfsg\SIOFS\siofatfs$2769    siofatfs
C:   000034B1  A$siofatfsg\SIOFS\siofatfs$2770    siofatfs
C:   000034B4  A$siofatfsg\SIOFS\siofatfs$2771    siofatfs
C:   000034B7  A$siofatfsg\SIOFS\siofatfs$2772    siofatfs
C:   000034B9  A$siofatfsg\SIOFS\siofatfs$2773    siofatfs
C:   000034BB  A$siofatfsg\SIOFS\siofatfs$2774    siofatfs
ASxxxx Linker V03.00 + NoICE + sdld,  page 189.
Hexadecimal  [32-Bits]

Area                                    Addr        Size        Decimal Bytes (Attributes)
--------------------------------        ----        ----        ------- ----- ------------
CSEG                                00000062    00003CB7 =       15543. bytes (REL,CON,CODE)

      Value  Global                              Global Defined In Module
      -----  --------------------------------   ------------------------
C:   000034BD  A$siofatfsg\SIOFS\siofatfs$2777    siofatfs
C:   000034BD  C$siofatfs.c$497$1_0$130           siofatfs
C:   000034BF  A$siofatfsg\SIOFS\siofatfs$2778    siofatfs
C:   000034C1  A$siofatfsg\SIOFS\siofatfs$2779    siofatfs
C:   000034C2  A$siofatfsg\SIOFS\siofatfs$2780    siofatfs
C:   000034C3  A$siofatfsg\SIOFS\siofatfs$2781    siofatfs
C:   000034C5  A$siofatfsg\SIOFS\siofatfs$2782    siofatfs
C:   000034C7  A$siofatfsg\SIOFS\siofatfs$2783    siofatfs
C:   000034C9  A$siofatfsg\SIOFS\siofatfs$2784    siofatfs
C:   000034CB  A$siofatfsg\SIOFS\siofatfs$2785    siofatfs
C:   000034CD  A$siofatfsg\SIOFS\siofatfs$2786    siofatfs
C:   000034CE  A$siofatfsg\SIOFS\siofatfs$2787    siofatfs
C:   000034D0  A$siofatfsg\SIOFS\siofatfs$2788    siofatfs
C:   000034D2  A$siofatfsg\SIOFS\siofatfs$2789    siofatfs
C:   000034D4  A$siofatfsg\SIOFS\siofatfs$2790    siofatfs
C:   000034D6  A$siofatfsg\SIOFS\siofatfs$2791    siofatfs
C:   000034D9  A$siofatfsg\SIOFS\siofatfs$2792    siofatfs
C:   000034DC  A$siofatfsg\SIOFS\siofatfs$2793    siofatfs
C:   000034DE  A$siofatfsg\SIOFS\siofatfs$2794    siofatfs
C:   000034E0  A$siofatfsg\SIOFS\siofatfs$2795    siofatfs
C:   000034E2  A$siofatfsg\SIOFS\siofatfs$2796    siofatfs
C:   000034E4  A$siofatfsg\SIOFS\siofatfs$2797    siofatfs
C:   000034E6  A$siofatfsg\SIOFS\siofatfs$2800    siofatfs
C:   000034E6  C$siofatfs.c$498$1_0$130           siofatfs
C:   000034E8  A$siofatfsg\SIOFS\siofatfs$2801    siofatfs
C:   000034EB  A$siofatfsg\SIOFS\siofatfs$2802    siofatfs
C:   000034ED  A$siofatfsg\SIOFS\siofatfs$2803    siofatfs
C:   000034EF  A$siofatfsg\SIOFS\siofatfs$2804    siofatfs
C:   000034F1  A$siofatfsg\SIOFS\siofatfs$2805    siofatfs
C:   000034F2  A$siofatfsg\SIOFS\siofatfs$2806    siofatfs
C:   000034F5  A$siofatfsg\SIOFS\siofatfs$2807    siofatfs
C:   000034F6  A$siofatfsg\SIOFS\siofatfs$2808    siofatfs
C:   000034F9  A$siofatfsg\SIOFS\siofatfs$2811    siofatfs
C:   000034F9  C$siofatfs.c$500$2_0$131           siofatfs
C:   000034FA  A$siofatfsg\SIOFS\siofatfs$2812    siofatfs
C:   000034FC  A$siofatfsg\SIOFS\siofatfs$2813    siofatfs
C:   000034FD  A$siofatfsg\SIOFS\siofatfs$2814    siofatfs
C:   000034FF  A$siofatfsg\SIOFS\siofatfs$2815    siofatfs
C:   00003501  A$siofatfsg\SIOFS\siofatfs$2816    siofatfs
C:   00003503  A$siofatfsg\SIOFS\siofatfs$2817    siofatfs
C:   00003505  A$siofatfsg\SIOFS\siofatfs$2821    siofatfs
C:   00003505  C$siofatfs.c$504$2_0$132           siofatfs
C:   00003508  A$siofatfsg\SIOFS\siofatfs$2825    siofatfs
C:   0000350B  A$siofatfsg\SIOFS\siofatfs$2826    siofatfs
C:   0000350D  A$siofatfsg\SIOFS\siofatfs$2829    siofatfs
C:   0000350D  C$siofatfs.c$506$1_0$130           siofatfs
C:   0000350D  XG$siof_size$0$0                   siofatfs
C:   0000350E  A$testDebug\test$449               test
C:   0000350E  C$test.c$16$0_0$69                 test
C:   0000350E  C$test.c$18$1_0$69                 test
C:   0000350E  G$ledTest$0$0                      test
ASxxxx Linker V03.00 + NoICE + sdld,  page 190.
Hexadecimal  [32-Bits]

Area                                    Addr        Size        Decimal Bytes (Attributes)
--------------------------------        ----        ----        ------- ----- ------------
CSEG                                00000062    00003CB7 =       15543. bytes (REL,CON,CODE)

      Value  Global                              Global Defined In Module
      -----  --------------------------------   ------------------------
C:   0000350E  _ledTest                           test
C:   00003511  A$testDebug\test$452               test
C:   00003511  C$test.c$19$1_0$69                 test
C:   00003514  A$testDebug\test$453               test
C:   00003517  A$testDebug\test$456               test
C:   00003517  C$test.c$21$1_0$69                 test
C:   0000351A  A$testDebug\test$459               test
C:   0000351A  C$test.c$22$1_0$69                 test
C:   0000351D  A$testDebug\test$460               test
C:   00003520  A$testDebug\test$463               test
C:   00003520  C$test.c$24$1_0$69                 test
C:   00003523  A$testDebug\test$466               test
C:   00003523  C$test.c$25$1_0$69                 test
C:   00003526  A$testDebug\test$467               test
C:   00003529  A$testDebug\test$470               test
C:   00003529  C$test.c$27$1_0$69                 test
C:   0000352C  A$testDebug\test$473               test
C:   0000352C  C$test.c$28$1_0$69                 test
C:   0000352F  A$testDebug\test$474               test
C:   00003532  A$testDebug\test$477               test
C:   00003532  C$test.c$30$1_0$69                 test
C:   00003535  A$testDebug\test$480               test
C:   00003535  C$test.c$31$1_0$69                 test
C:   00003538  A$testDebug\test$481               test
C:   0000353B  A$testDebug\test$484               test
C:   0000353B  C$test.c$33$1_0$69                 test
C:   0000353E  A$testDebug\test$487               test
C:   0000353E  C$test.c$34$1_0$69                 test
C:   00003541  A$testDebug\test$488               test
C:   00003544  A$testDebug\test$491               test
C:   00003544  C$test.c$36$1_0$69                 test
C:   00003547  A$testDebug\test$494               test
C:   00003547  C$test.c$37$1_0$69                 test
C:   0000354A  A$testDebug\test$495               test
C:   0000354D  A$testDebug\test$498               test
C:   0000354D  C$test.c$39$1_0$69                 test
C:   00003550  A$testDebug\test$501               test
C:   00003550  C$test.c$40$1_0$69                 test
C:   00003553  A$testDebug\test$502               test
C:   00003556  A$testDebug\test$507               test
C:   00003556  C$test.c$41$1_0$69                 test
C:   00003556  XG$ledTest$0$0                     test
C:   00003557  A$testDebug\test$521               test
C:   00003557  C$test.c$45$1_0$71                 test
C:   00003557  G$pioTest$0$0                      test
C:   00003557  _pioTest                           test
C:   00003559  A$testDebug\test$524               test
C:   00003559  C$test.c$48$1_0$71                 test
C:   0000355B  A$testDebug\test$525               test
C:   0000355D  A$testDebug\test$526               test
C:   0000355E  A$testDebug\test$527               test
ASxxxx Linker V03.00 + NoICE + sdld,  page 191.
Hexadecimal  [32-Bits]

Area                                    Addr        Size        Decimal Bytes (Attributes)
--------------------------------        ----        ----        ------- ----- ------------
CSEG                                00000062    00003CB7 =       15543. bytes (REL,CON,CODE)

      Value  Global                              Global Defined In Module
      -----  --------------------------------   ------------------------
C:   0000355F  A$testDebug\test$528               test
C:   00003561  A$testDebug\test$529               test
C:   00003562  A$testDebug\test$530               test
C:   00003563  A$testDebug\test$531               test
C:   00003565  A$testDebug\test$532               test
C:   00003566  A$testDebug\test$533               test
C:   00003567  A$testDebug\test$534               test
C:   00003568  A$testDebug\test$535               test
C:   00003569  A$testDebug\test$536               test
C:   0000356A  A$testDebug\test$537               test
C:   0000356C  A$testDebug\test$538               test
C:   0000356D  A$testDebug\test$539               test
C:   0000356E  A$testDebug\test$540               test
C:   0000356F  A$testDebug\test$541               test
C:   00003571  A$testDebug\test$542               test
C:   00003573  A$testDebug\test$543               test
C:   00003575  A$testDebug\test$544               test
C:   00003576  A$testDebug\test$547               test
C:   00003576  C$test.c$51$2_0$72                 test
C:   00003578  A$testDebug\test$548               test
C:   0000357A  A$testDebug\test$549               test
C:   0000357B  A$testDebug\test$550               test
C:   0000357C  A$testDebug\test$551               test
C:   0000357E  A$testDebug\test$552               test
C:   0000357F  A$testDebug\test$553               test
C:   00003580  A$testDebug\test$554               test
C:   00003581  A$testDebug\test$555               test
C:   00003582  A$testDebug\test$556               test
C:   00003583  A$testDebug\test$557               test
C:   00003585  A$testDebug\test$558               test
C:   00003586  A$testDebug\test$559               test
C:   00003587  A$testDebug\test$560               test
C:   00003588  A$testDebug\test$561               test
C:   0000358A  A$testDebug\test$565               test
C:   0000358A  C$test.c$53$2_0$72                 test
C:   0000358D  A$testDebug\test$566               test
C:   0000358F  A$testDebug\test$567               test
C:   00003591  A$testDebug\test$568               test
C:   00003593  A$testDebug\test$569               test
C:   00003595  A$testDebug\test$570               test
C:   00003597  A$testDebug\test$571               test
C:   0000359A  A$testDebug\test$572               test
C:   0000359C  A$testDebug\test$573               test
C:   0000359E  A$testDebug\test$574               test
C:   000035A0  A$testDebug\test$575               test
C:   000035A2  A$testDebug\test$576               test
C:   000035A4  A$testDebug\test$579               test
C:   000035A4  C$test.c$54$2_0$72                 test
C:   000035A6  A$testDebug\test$580               test
C:   000035A8  A$testDebug\test$581               test
C:   000035A9  A$testDebug\test$582               test
ASxxxx Linker V03.00 + NoICE + sdld,  page 192.
Hexadecimal  [32-Bits]

Area                                    Addr        Size        Decimal Bytes (Attributes)
--------------------------------        ----        ----        ------- ----- ------------
CSEG                                00000062    00003CB7 =       15543. bytes (REL,CON,CODE)

      Value  Global                              Global Defined In Module
      -----  --------------------------------   ------------------------
C:   000035AA  A$testDebug\test$585               test
C:   000035AA  C$test.c$55$1_0$71                 test
C:   000035AC  A$testDebug\test$586               test
C:   000035AD  A$testDebug\test$587               test
C:   000035AE  A$testDebug\test$588               test
C:   000035B0  A$testDebug\test$591               test
C:   000035B0  C$test.c$58$2_0$73                 test
C:   000035B2  A$testDebug\test$592               test
C:   000035B3  A$testDebug\test$593               test
C:   000035B4  A$testDebug\test$594               test
C:   000035B6  A$testDebug\test$595               test
C:   000035B7  A$testDebug\test$596               test
C:   000035B8  A$testDebug\test$597               test
C:   000035BA  A$testDebug\test$598               test
C:   000035BB  A$testDebug\test$599               test
C:   000035BC  A$testDebug\test$600               test
C:   000035BD  A$testDebug\test$601               test
C:   000035BE  A$testDebug\test$602               test
C:   000035BF  A$testDebug\test$603               test
C:   000035C1  A$testDebug\test$604               test
C:   000035C2  A$testDebug\test$605               test
C:   000035C3  A$testDebug\test$606               test
C:   000035C4  A$testDebug\test$607               test
C:   000035C6  A$testDebug\test$611               test
C:   000035C6  C$test.c$60$2_0$73                 test
C:   000035C9  A$testDebug\test$612               test
C:   000035CB  A$testDebug\test$613               test
C:   000035CD  A$testDebug\test$614               test
C:   000035CF  A$testDebug\test$615               test
C:   000035D1  A$testDebug\test$616               test
C:   000035D3  A$testDebug\test$617               test
C:   000035D6  A$testDebug\test$618               test
C:   000035D8  A$testDebug\test$619               test
C:   000035DA  A$testDebug\test$620               test
C:   000035DC  A$testDebug\test$621               test
C:   000035DE  A$testDebug\test$622               test
C:   000035E0  A$testDebug\test$625               test
C:   000035E0  C$test.c$61$2_0$73                 test
C:   000035E2  A$testDebug\test$626               test
C:   000035E4  A$testDebug\test$627               test
C:   000035E5  A$testDebug\test$628               test
C:   000035E6  A$testDebug\test$631               test
C:   000035E6  C$test.c$62$1_0$71                 test
C:   000035E8  A$testDebug\test$632               test
C:   000035E9  A$testDebug\test$633               test
C:   000035EA  A$testDebug\test$634               test
C:   000035EC  A$testDebug\test$637               test
C:   000035EC  C$test.c$65$2_0$74                 test
C:   000035EE  A$testDebug\test$638               test
C:   000035EF  A$testDebug\test$639               test
C:   000035F0  A$testDebug\test$640               test
ASxxxx Linker V03.00 + NoICE + sdld,  page 193.
Hexadecimal  [32-Bits]

Area                                    Addr        Size        Decimal Bytes (Attributes)
--------------------------------        ----        ----        ------- ----- ------------
CSEG                                00000062    00003CB7 =       15543. bytes (REL,CON,CODE)

      Value  Global                              Global Defined In Module
      -----  --------------------------------   ------------------------
C:   000035F2  A$testDebug\test$641               test
C:   000035F3  A$testDebug\test$642               test
C:   000035F4  A$testDebug\test$643               test
C:   000035F6  A$testDebug\test$644               test
C:   000035F7  A$testDebug\test$645               test
C:   000035F8  A$testDebug\test$646               test
C:   000035F9  A$testDebug\test$647               test
C:   000035FA  A$testDebug\test$648               test
C:   000035FB  A$testDebug\test$649               test
C:   000035FD  A$testDebug\test$650               test
C:   000035FE  A$testDebug\test$651               test
C:   000035FF  A$testDebug\test$652               test
C:   00003600  A$testDebug\test$653               test
C:   00003602  A$testDebug\test$657               test
C:   00003602  C$test.c$67$2_0$74                 test
C:   00003605  A$testDebug\test$658               test
C:   00003607  A$testDebug\test$659               test
C:   00003609  A$testDebug\test$660               test
C:   0000360B  A$testDebug\test$661               test
C:   0000360E  A$testDebug\test$662               test
C:   00003610  A$testDebug\test$663               test
C:   00003612  A$testDebug\test$664               test
C:   00003614  A$testDebug\test$667               test
C:   00003614  C$test.c$68$2_0$74                 test
C:   00003616  A$testDebug\test$668               test
C:   00003618  A$testDebug\test$669               test
C:   00003619  A$testDebug\test$670               test
C:   0000361A  A$testDebug\test$673               test
C:   0000361A  C$test.c$69$1_0$71                 test
C:   0000361C  A$testDebug\test$674               test
C:   0000361D  A$testDebug\test$675               test
C:   0000361E  A$testDebug\test$676               test
C:   00003620  A$testDebug\test$681               test
C:   00003620  C$test.c$70$1_0$71                 test
C:   00003620  XG$pioTest$0$0                     test
C:   00003621  A$testDebug\test$696               test
C:   00003621  C$test.c$74$1_0$76                 test
C:   00003621  C$test.c$76$1_0$76                 test
C:   00003621  G$sioTest1$0$0                     test
C:   00003621  _sioTest1                          test
C:   00003623  A$testDebug\test$697               test
C:   00003625  A$testDebug\test$698               test
C:   00003628  A$testDebug\test$699               test
C:   0000362A  A$testDebug\test$705               test
C:   0000362A  C$test.c$77$1_0$76                 test
C:   0000362A  C$test.c$79$2_0$77                 test
C:   0000362C  A$testDebug\test$706               test
C:   0000362E  A$testDebug\test$707               test
C:   00003631  A$testDebug\test$708               test
C:   00003633  A$testDebug\test$709               test
C:   00003635  A$testDebug\test$710               test
ASxxxx Linker V03.00 + NoICE + sdld,  page 194.
Hexadecimal  [32-Bits]

Area                                    Addr        Size        Decimal Bytes (Attributes)
--------------------------------        ----        ----        ------- ----- ------------
CSEG                                00000062    00003CB7 =       15543. bytes (REL,CON,CODE)

      Value  Global                              Global Defined In Module
      -----  --------------------------------   ------------------------
C:   00003637  A$testDebug\test$711               test
C:   00003639  A$testDebug\test$712               test
C:   0000363B  A$testDebug\test$713               test
C:   0000363E  A$testDebug\test$714               test
C:   00003640  A$testDebug\test$715               test
C:   00003642  A$testDebug\test$716               test
C:   00003644  A$testDebug\test$721               test
C:   00003644  C$test.c$81$1_0$76                 test
C:   00003644  XG$sioTest1$0$0                    test
C:   00003645  A$testDebug\test$736               test
C:   00003645  C$test.c$92$1_0$79                 test
C:   00003645  C$test.c$94$1_0$79                 test
C:   00003645  G$sioTest2$0$0                     test
C:   00003645  _sioTest2                          test
C:   00003647  A$testDebug\test$737               test
C:   00003649  A$testDebug\test$738               test
C:   0000364C  A$testDebug\test$739               test
C:   0000364E  A$testDebug\test$745               test
C:   0000364E  C$test.c$95$1_0$79                 test
C:   0000364E  C$test.c$97$2_0$80                 test
C:   00003650  A$testDebug\test$746               test
C:   00003652  A$testDebug\test$747               test
C:   00003654  A$testDebug\test$748               test
C:   00003656  A$testDebug\test$749               test
C:   00003658  A$testDebug\test$750               test
C:   0000365A  A$testDebug\test$751               test
C:   0000365C  A$testDebug\test$752               test
C:   0000365E  A$testDebug\test$753               test
C:   00003661  A$testDebug\test$754               test
C:   00003663  A$testDebug\test$755               test
C:   00003665  A$testDebug\test$756               test
C:   00003667  A$testDebug\test$757               test
C:   00003669  A$testDebug\test$760               test
C:   00003669  C$test.c$98$2_0$80                 test
C:   0000366B  A$testDebug\test$761               test
C:   0000366D  A$testDebug\test$762               test
C:   0000366F  A$testDebug\test$763               test
C:   00003670  A$testDebug\test$764               test
C:   00003672  A$testDebug\test$765               test
C:   00003674  A$testDebug\test$766               test
C:   00003676  A$testDebug\test$767               test
C:   00003678  A$testDebug\test$768               test
C:   0000367A  A$testDebug\test$769               test
C:   0000367C  A$testDebug\test$770               test
C:   0000367E  A$testDebug\test$771               test
C:   00003680  A$testDebug\test$772               test
C:   00003683  A$testDebug\test$773               test
C:   00003685  A$testDebug\test$774               test
C:   00003687  A$testDebug\test$775               test
C:   00003689  A$testDebug\test$776               test
C:   0000368B  A$testDebug\test$777               test
ASxxxx Linker V03.00 + NoICE + sdld,  page 195.
Hexadecimal  [32-Bits]

Area                                    Addr        Size        Decimal Bytes (Attributes)
--------------------------------        ----        ----        ------- ----- ------------
CSEG                                00000062    00003CB7 =       15543. bytes (REL,CON,CODE)

      Value  Global                              Global Defined In Module
      -----  --------------------------------   ------------------------
C:   0000368D  A$testDebug\test$782               test
C:   0000368D  C$test.c$100$1_0$79                test
C:   0000368D  XG$sioTest2$0$0                    test
C:   0000368E  A$testDebug\test$797               test
C:   0000368E  C$test.c$102$1_0$82                test
C:   0000368E  C$test.c$104$1_0$82                test
C:   0000368E  G$sioTest3$0$0                     test
C:   0000368E  _sioTest3                          test
C:   00003691  A$testDebug\test$802               test
C:   00003691  C$test.c$105$1_0$82                test
C:   00003691  XG$sioTest3$0$0                    test
C:   00003692  A$testDebug\test$815               test
C:   00003692  C$test.c$110$1_0$84                test
C:   00003692  G$cfTest$0$0                       test
C:   00003692  _cfTest                            test
C:   00003694  A$testDebug\test$818               test
C:   00003694  C$test.c$112$1_0$84                test
C:   00003697  A$testDebug\test$819               test
C:   00003699  A$testDebug\test$820               test
C:   0000369C  A$testDebug\test$823               test
C:   0000369C  C$test.c$114$1_0$84                test
C:   0000369E  A$testDebug\test$824               test
C:   000036A0  A$testDebug\test$825               test
C:   000036A2  A$testDebug\test$826               test
C:   000036A4  A$testDebug\test$827               test
C:   000036A6  A$testDebug\test$828               test
C:   000036A8  A$testDebug\test$829               test
C:   000036AB  A$testDebug\test$830               test
C:   000036AE  A$testDebug\test$831               test
C:   000036B0  A$testDebug\test$832               test
C:   000036B2  A$testDebug\test$833               test
C:   000036B4  A$testDebug\test$834               test
C:   000036B6  A$testDebug\test$837               test
C:   000036B6  C$test.c$115$1_0$84                test
C:   000036B8  A$testDebug\test$838               test
C:   000036BA  A$testDebug\test$839               test
C:   000036BD  A$testDebug\test$842               test
C:   000036BD  C$test.c$117$1_0$84                test
C:   000036BF  A$testDebug\test$843               test
C:   000036C1  A$testDebug\test$844               test
C:   000036C3  A$testDebug\test$845               test
C:   000036C5  A$testDebug\test$846               test
C:   000036C7  A$testDebug\test$847               test
C:   000036C9  A$testDebug\test$848               test
C:   000036CC  A$testDebug\test$849               test
C:   000036CF  A$testDebug\test$850               test
C:   000036D1  A$testDebug\test$851               test
C:   000036D3  A$testDebug\test$852               test
C:   000036D5  A$testDebug\test$853               test
C:   000036D7  A$testDebug\test$856               test
C:   000036D7  C$test.c$118$1_0$84                test
ASxxxx Linker V03.00 + NoICE + sdld,  page 196.
Hexadecimal  [32-Bits]

Area                                    Addr        Size        Decimal Bytes (Attributes)
--------------------------------        ----        ----        ------- ----- ------------
CSEG                                00000062    00003CB7 =       15543. bytes (REL,CON,CODE)

      Value  Global                              Global Defined In Module
      -----  --------------------------------   ------------------------
C:   000036D9  A$testDebug\test$857               test
C:   000036DB  A$testDebug\test$858               test
C:   000036DD  A$testDebug\test$859               test
C:   000036DE  A$testDebug\test$860               test
C:   000036E0  A$testDebug\test$861               test
C:   000036E2  A$testDebug\test$862               test
C:   000036E4  A$testDebug\test$863               test
C:   000036E6  A$testDebug\test$864               test
C:   000036E8  A$testDebug\test$865               test
C:   000036EA  A$testDebug\test$866               test
C:   000036EC  A$testDebug\test$867               test
C:   000036EE  A$testDebug\test$868               test
C:   000036F0  A$testDebug\test$869               test
C:   000036F1  A$testDebug\test$870               test
C:   000036F3  A$testDebug\test$871               test
C:   000036F5  A$testDebug\test$872               test
C:   000036F8  A$testDebug\test$873               test
C:   000036FA  A$testDebug\test$874               test
C:   000036FC  A$testDebug\test$875               test
C:   000036FE  A$testDebug\test$878               test
C:   000036FE  C$test.c$120$1_0$84                test
C:   00003700  A$testDebug\test$879               test
C:   00003702  A$testDebug\test$880               test
C:   00003704  A$testDebug\test$881               test
C:   00003706  A$testDebug\test$882               test
C:   00003708  A$testDebug\test$883               test
C:   0000370A  A$testDebug\test$884               test
C:   0000370D  A$testDebug\test$885               test
C:   00003710  A$testDebug\test$886               test
C:   00003712  A$testDebug\test$887               test
C:   00003714  A$testDebug\test$888               test
C:   00003716  A$testDebug\test$891               test
C:   00003716  C$test.c$121$1_0$84                test
C:   00003717  A$testDebug\test$892               test
C:   00003719  A$testDebug\test$893               test
C:   0000371B  A$testDebug\test$894               test
C:   0000371D  A$testDebug\test$895               test
C:   0000371F  A$testDebug\test$896               test
C:   00003721  A$testDebug\test$897               test
C:   00003723  A$testDebug\test$898               test
C:   00003725  A$testDebug\test$899               test
C:   00003726  A$testDebug\test$900               test
C:   00003728  A$testDebug\test$901               test
C:   0000372B  A$testDebug\test$902               test
C:   0000372E  A$testDebug\test$903               test
C:   00003730  A$testDebug\test$904               test
C:   00003732  A$testDebug\test$905               test
C:   00003734  A$testDebug\test$908               test
C:   00003734  C$test.c$123$1_0$84                test
C:   00003736  A$testDebug\test$909               test
C:   00003738  A$testDebug\test$910               test
ASxxxx Linker V03.00 + NoICE + sdld,  page 197.
Hexadecimal  [32-Bits]

Area                                    Addr        Size        Decimal Bytes (Attributes)
--------------------------------        ----        ----        ------- ----- ------------
CSEG                                00000062    00003CB7 =       15543. bytes (REL,CON,CODE)

      Value  Global                              Global Defined In Module
      -----  --------------------------------   ------------------------
C:   0000373A  A$testDebug\test$911               test
C:   0000373C  A$testDebug\test$912               test
C:   0000373E  A$testDebug\test$913               test
C:   00003740  A$testDebug\test$914               test
C:   00003743  A$testDebug\test$915               test
C:   00003746  A$testDebug\test$916               test
C:   00003748  A$testDebug\test$917               test
C:   0000374A  A$testDebug\test$918               test
C:   0000374C  A$testDebug\test$919               test
C:   0000374E  A$testDebug\test$922               test
C:   0000374E  C$test.c$124$1_0$84                test
C:   00003750  A$testDebug\test$923               test
C:   00003752  A$testDebug\test$924               test
C:   00003753  A$testDebug\test$925               test
C:   00003755  A$testDebug\test$926               test
C:   00003756  A$testDebug\test$927               test
C:   00003758  A$testDebug\test$928               test
C:   00003759  A$testDebug\test$929               test
C:   0000375B  A$testDebug\test$930               test
C:   0000375D  A$testDebug\test$931               test
C:   0000375F  A$testDebug\test$932               test
C:   00003761  A$testDebug\test$933               test
C:   00003763  A$testDebug\test$934               test
C:   00003765  A$testDebug\test$935               test
C:   00003767  A$testDebug\test$936               test
C:   00003768  A$testDebug\test$937               test
C:   0000376A  A$testDebug\test$938               test
C:   0000376C  A$testDebug\test$939               test
C:   0000376F  A$testDebug\test$940               test
C:   00003771  A$testDebug\test$941               test
C:   00003773  A$testDebug\test$942               test
C:   00003775  A$testDebug\test$945               test
C:   00003775  C$test.c$126$1_0$84                test
C:   00003776  A$testDebug\test$946               test
C:   00003778  A$testDebug\test$947               test
C:   0000377A  A$testDebug\test$948               test
C:   0000377C  A$testDebug\test$949               test
C:   0000377E  A$testDebug\test$950               test
C:   00003780  A$testDebug\test$951               test
C:   00003782  A$testDebug\test$952               test
C:   00003784  A$testDebug\test$953               test
C:   00003785  A$testDebug\test$954               test
C:   00003787  A$testDebug\test$955               test
C:   0000378A  A$testDebug\test$956               test
C:   0000378D  A$testDebug\test$957               test
C:   0000378F  A$testDebug\test$958               test
C:   00003791  A$testDebug\test$959               test
C:   00003793  A$testDebug\test$964               test
C:   00003793  C$test.c$127$1_0$84                test
C:   00003793  XG$cfTest$0$0                      test
C:   00003794  A$testDebug\test$980               test
ASxxxx Linker V03.00 + NoICE + sdld,  page 198.
Hexadecimal  [32-Bits]

Area                                    Addr        Size        Decimal Bytes (Attributes)
--------------------------------        ----        ----        ------- ----- ------------
CSEG                                00000062    00003CB7 =       15543. bytes (REL,CON,CODE)

      Value  Global                              Global Defined In Module
      -----  --------------------------------   ------------------------
C:   00003794  C$test.c$133$1_0$86                test
C:   00003794  G$FATTest$0$0                      test
C:   00003794  _FATTest                           test
C:   00003796  A$testDebug\test$981               test
C:   00003799  A$testDebug\test$982               test
C:   0000379B  A$testDebug\test$983               test
C:   0000379D  A$testDebug\test$986               test
C:   0000379D  C$test.c$139$1_0$86                test
C:   000037A0  A$testDebug\test$987               test
C:   000037A3  A$testDebug\test$990               test
C:   000037A3  C$test.c$141$1_0$86                test
C:   000037A5  A$testDebug\test$991               test
C:   000037A7  A$testDebug\test$992               test
C:   000037A9  A$testDebug\test$993               test
C:   000037AB  A$testDebug\test$994               test
C:   000037AD  A$testDebug\test$995               test
C:   000037AF  A$testDebug\test$996               test
C:   000037B2  A$testDebug\test$997               test
C:   000037B5  A$testDebug\test$998               test
C:   000037B7  A$testDebug\test$999               test
C:   000037B9  A$testDebug\test$1000              test
C:   000037BB  A$testDebug\test$1003              test
C:   000037BB  C$test.c$142$1_0$86                test
C:   000037BE  A$testDebug\test$1004              test
C:   000037C1  A$testDebug\test$1005              test
C:   000037C4  A$testDebug\test$1008              test
C:   000037C4  C$test.c$143$1_0$86                test
C:   000037C5  A$testDebug\test$1009              test
C:   000037C7  A$testDebug\test$1012              test
C:   000037C7  C$test.c$145$2_0$87                test
C:   000037C9  A$testDebug\test$1013              test
C:   000037CB  A$testDebug\test$1014              test
C:   000037CD  A$testDebug\test$1015              test
C:   000037CF  A$testDebug\test$1016              test
C:   000037D1  A$testDebug\test$1017              test
C:   000037D3  A$testDebug\test$1018              test
C:   000037D6  A$testDebug\test$1019              test
C:   000037D9  A$testDebug\test$1020              test
C:   000037DB  A$testDebug\test$1021              test
C:   000037DD  A$testDebug\test$1022              test
C:   000037DF  A$testDebug\test$1025              test
C:   000037DF  C$test.c$146$2_0$87                test
C:   000037E2  A$testDebug\test$1029              test
C:   000037E2  C$test.c$149$1_0$86                test
C:   000037E4  A$testDebug\test$1030              test
C:   000037E6  A$testDebug\test$1031              test
C:   000037E8  A$testDebug\test$1032              test
C:   000037EA  A$testDebug\test$1033              test
C:   000037EC  A$testDebug\test$1034              test
C:   000037EE  A$testDebug\test$1035              test
C:   000037F1  A$testDebug\test$1036              test
ASxxxx Linker V03.00 + NoICE + sdld,  page 199.
Hexadecimal  [32-Bits]

Area                                    Addr        Size        Decimal Bytes (Attributes)
--------------------------------        ----        ----        ------- ----- ------------
CSEG                                00000062    00003CB7 =       15543. bytes (REL,CON,CODE)

      Value  Global                              Global Defined In Module
      -----  --------------------------------   ------------------------
C:   000037F4  A$testDebug\test$1037              test
C:   000037F6  A$testDebug\test$1038              test
C:   000037F8  A$testDebug\test$1039              test
C:   000037FA  A$testDebug\test$1042              test
C:   000037FA  C$test.c$150$1_0$86                test
C:   000037FD  A$testDebug\test$1043              test
C:   00003800  A$testDebug\test$1044              test
C:   00003803  A$testDebug\test$1045              test
C:   00003805  A$testDebug\test$1046              test
C:   00003807  A$testDebug\test$1049              test
C:   00003807  C$test.c$151$1_0$86                test
C:   00003808  A$testDebug\test$1050              test
C:   0000380A  A$testDebug\test$1053              test
C:   0000380A  C$test.c$153$2_0$88                test
C:   0000380C  A$testDebug\test$1054              test
C:   0000380E  A$testDebug\test$1055              test
C:   00003810  A$testDebug\test$1056              test
C:   00003812  A$testDebug\test$1057              test
C:   00003814  A$testDebug\test$1058              test
C:   00003816  A$testDebug\test$1059              test
C:   00003819  A$testDebug\test$1060              test
C:   0000381C  A$testDebug\test$1061              test
C:   0000381E  A$testDebug\test$1062              test
C:   00003820  A$testDebug\test$1063              test
C:   00003822  A$testDebug\test$1066              test
C:   00003822  C$test.c$154$2_0$88                test
C:   00003825  A$testDebug\test$1070              test
C:   00003825  C$test.c$158$1_0$86                test
C:   00003827  A$testDebug\test$1071              test
C:   00003829  A$testDebug\test$1072              test
C:   0000382B  A$testDebug\test$1073              test
C:   0000382D  A$testDebug\test$1074              test
C:   0000382F  A$testDebug\test$1075              test
C:   00003831  A$testDebug\test$1076              test
C:   00003833  A$testDebug\test$1077              test
C:   00003836  A$testDebug\test$1078              test
C:   00003839  A$testDebug\test$1079              test
C:   0000383B  A$testDebug\test$1080              test
C:   0000383D  A$testDebug\test$1081              test
C:   0000383F  A$testDebug\test$1082              test
C:   00003841  A$testDebug\test$1085              test
C:   00003841  C$test.c$159$1_0$86                test
C:   00003843  A$testDebug\test$1086              test
C:   00003844  A$testDebug\test$1087              test
C:   00003846  A$testDebug\test$1088              test
C:   00003848  A$testDebug\test$1089              test
C:   0000384A  A$testDebug\test$1090              test
C:   0000384C  A$testDebug\test$1091              test
C:   0000384E  A$testDebug\test$1092              test
C:   00003850  A$testDebug\test$1093              test
C:   00003852  A$testDebug\test$1094              test
ASxxxx Linker V03.00 + NoICE + sdld,  page 200.
Hexadecimal  [32-Bits]

Area                                    Addr        Size        Decimal Bytes (Attributes)
--------------------------------        ----        ----        ------- ----- ------------
CSEG                                00000062    00003CB7 =       15543. bytes (REL,CON,CODE)

      Value  Global                              Global Defined In Module
      -----  --------------------------------   ------------------------
C:   00003854  A$testDebug\test$1095              test
C:   00003855  A$testDebug\test$1096              test
C:   00003857  A$testDebug\test$1097              test
C:   00003859  A$testDebug\test$1098              test
C:   0000385B  A$testDebug\test$1099              test
C:   0000385E  A$testDebug\test$1100              test
C:   00003861  A$testDebug\test$1101              test
C:   00003864  A$testDebug\test$1102              test
C:   00003866  A$testDebug\test$1103              test
C:   00003868  A$testDebug\test$1104              test
C:   0000386A  A$testDebug\test$1105              test
C:   0000386C  A$testDebug\test$1106              test
C:   0000386E  A$testDebug\test$1109              test
C:   0000386E  C$test.c$160$1_0$86                test
C:   0000386F  A$testDebug\test$1110              test
C:   00003871  A$testDebug\test$1113              test
C:   00003871  C$test.c$162$2_0$89                test
C:   00003873  A$testDebug\test$1114              test
C:   00003875  A$testDebug\test$1115              test
C:   00003877  A$testDebug\test$1116              test
C:   00003879  A$testDebug\test$1117              test
C:   0000387B  A$testDebug\test$1118              test
C:   0000387D  A$testDebug\test$1119              test
C:   00003880  A$testDebug\test$1120              test
C:   00003883  A$testDebug\test$1121              test
C:   00003885  A$testDebug\test$1122              test
C:   00003887  A$testDebug\test$1123              test
C:   00003889  A$testDebug\test$1126              test
C:   00003889  C$test.c$163$2_0$89                test
C:   0000388C  A$testDebug\test$1130              test
C:   0000388C  C$test.c$166$1_0$86                test
C:   0000388E  A$testDebug\test$1131              test
C:   00003890  A$testDebug\test$1132              test
C:   00003892  A$testDebug\test$1133              test
C:   00003894  A$testDebug\test$1134              test
C:   00003896  A$testDebug\test$1135              test
C:   00003898  A$testDebug\test$1136              test
C:   0000389A  A$testDebug\test$1137              test
C:   0000389C  A$testDebug\test$1138              test
C:   0000389F  A$testDebug\test$1139              test
C:   000038A2  A$testDebug\test$1140              test
C:   000038A4  A$testDebug\test$1141              test
C:   000038A6  A$testDebug\test$1142              test
C:   000038A8  A$testDebug\test$1145              test
C:   000038A8  C$test.c$167$1_0$86                test
C:   000038AA  A$testDebug\test$1146              test
C:   000038AB  A$testDebug\test$1147              test
C:   000038AD  A$testDebug\test$1148              test
C:   000038AF  A$testDebug\test$1149              test
C:   000038B1  A$testDebug\test$1150              test
C:   000038B3  A$testDebug\test$1151              test
ASxxxx Linker V03.00 + NoICE + sdld,  page 201.
Hexadecimal  [32-Bits]

Area                                    Addr        Size        Decimal Bytes (Attributes)
--------------------------------        ----        ----        ------- ----- ------------
CSEG                                00000062    00003CB7 =       15543. bytes (REL,CON,CODE)

      Value  Global                              Global Defined In Module
      -----  --------------------------------   ------------------------
C:   000038B5  A$testDebug\test$1152              test
C:   000038B7  A$testDebug\test$1153              test
C:   000038B9  A$testDebug\test$1154              test
C:   000038BB  A$testDebug\test$1155              test
C:   000038BC  A$testDebug\test$1156              test
C:   000038BE  A$testDebug\test$1157              test
C:   000038C1  A$testDebug\test$1158              test
C:   000038C4  A$testDebug\test$1159              test
C:   000038C6  A$testDebug\test$1160              test
C:   000038C8  A$testDebug\test$1161              test
C:   000038CA  A$testDebug\test$1164              test
C:   000038CA  C$test.c$169$1_0$86                test
C:   000038CC  A$testDebug\test$1165              test
C:   000038CE  A$testDebug\test$1166              test
C:   000038D0  A$testDebug\test$1167              test
C:   000038D2  A$testDebug\test$1168              test
C:   000038D4  A$testDebug\test$1169              test
C:   000038D6  A$testDebug\test$1170              test
C:   000038D9  A$testDebug\test$1171              test
C:   000038DC  A$testDebug\test$1172              test
C:   000038DE  A$testDebug\test$1173              test
C:   000038E0  A$testDebug\test$1174              test
C:   000038E2  A$testDebug\test$1175              test
C:   000038E4  A$testDebug\test$1176              test
C:   000038E6  A$testDebug\test$1179              test
C:   000038E6  C$test.c$179$1_0$86                test
C:   000038E8  A$testDebug\test$1180              test
C:   000038EA  A$testDebug\test$1181              test
C:   000038EC  A$testDebug\test$1182              test
C:   000038EE  A$testDebug\test$1183              test
C:   000038F0  A$testDebug\test$1184              test
C:   000038F2  A$testDebug\test$1185              test
C:   000038F3  A$testDebug\test$1186              test
C:   000038F5  A$testDebug\test$1187              test
C:   000038F7  A$testDebug\test$1188              test
C:   000038F9  A$testDebug\test$1189              test
C:   000038FC  A$testDebug\test$1190              test
C:   000038FF  A$testDebug\test$1191              test
C:   00003902  A$testDebug\test$1192              test
C:   00003904  A$testDebug\test$1193              test
C:   00003906  A$testDebug\test$1194              test
C:   00003908  A$testDebug\test$1195              test
C:   0000390A  A$testDebug\test$1198              test
C:   0000390A  C$test.c$180$1_0$86                test
C:   0000390B  A$testDebug\test$1199              test
C:   0000390D  A$testDebug\test$1205              test
C:   0000390D  C$test.c$181$1_0$86                test
C:   00003910  A$testDebug\test$1206              test
C:   00003912  A$testDebug\test$1209              test
C:   00003912  C$test.c$197$1_0$86                test
C:   00003912  XG$FATTest$0$0                     test
ASxxxx Linker V03.00 + NoICE + sdld,  page 202.
Hexadecimal  [32-Bits]

Area                                    Addr        Size        Decimal Bytes (Attributes)
--------------------------------        ----        ----        ------- ----- ------------
CSEG                                00000062    00003CB7 =       15543. bytes (REL,CON,CODE)

      Value  Global                              Global Defined In Module
      -----  --------------------------------   ------------------------
C:   00003913  A$testDebug\test$1225              test
C:   00003913  C$test.c$204$1_0$91                test
C:   00003913  G$SIOFATFSTest$0$0                 test
C:   00003913  _SIOFATFSTest                      test
C:   00003915  A$testDebug\test$1226              test
C:   00003918  A$testDebug\test$1227              test
C:   0000391A  A$testDebug\test$1228              test
C:   0000391C  A$testDebug\test$1229              test
C:   0000391E  A$testDebug\test$1232              test
C:   0000391E  C$test.c$210$1_0$91                test
C:   00003921  A$testDebug\test$1235              test
C:   00003921  C$test.c$212$1_0$91                test
C:   00003924  A$testDebug\test$1238              test
C:   00003924  C$test.c$213$1_0$91                test
C:   00003925  A$testDebug\test$1239              test
C:   00003927  A$testDebug\test$1240              test
C:   00003929  A$testDebug\test$1241              test
C:   0000392B  A$testDebug\test$1242              test
C:   0000392D  A$testDebug\test$1243              test
C:   0000392F  A$testDebug\test$1244              test
C:   00003931  A$testDebug\test$1245              test
C:   00003933  A$testDebug\test$1246              test
C:   00003936  A$testDebug\test$1247              test
C:   00003939  A$testDebug\test$1248              test
C:   0000393C  A$testDebug\test$1249              test
C:   0000393E  A$testDebug\test$1250              test
C:   00003940  A$testDebug\test$1251              test
C:   00003942  A$testDebug\test$1254              test
C:   00003942  C$test.c$214$1_0$91                test
C:   00003943  A$testDebug\test$1255              test
C:   00003945  A$testDebug\test$1258              test
C:   00003945  C$test.c$216$2_0$92                test
C:   00003948  A$testDebug\test$1261              test
C:   00003948  C$test.c$217$2_0$92                test
C:   0000394B  A$testDebug\test$1265              test
C:   0000394B  C$test.c$220$1_0$91                test
C:   0000394E  A$testDebug\test$1268              test
C:   0000394E  C$test.c$221$1_0$91                test
C:   0000394F  A$testDebug\test$1269              test
C:   00003951  A$testDebug\test$1270              test
C:   00003953  A$testDebug\test$1271              test
C:   00003955  A$testDebug\test$1272              test
C:   00003957  A$testDebug\test$1273              test
C:   00003959  A$testDebug\test$1274              test
C:   0000395B  A$testDebug\test$1275              test
C:   0000395D  A$testDebug\test$1276              test
C:   00003960  A$testDebug\test$1277              test
C:   00003963  A$testDebug\test$1278              test
C:   00003966  A$testDebug\test$1279              test
C:   00003968  A$testDebug\test$1280              test
C:   0000396A  A$testDebug\test$1281              test
ASxxxx Linker V03.00 + NoICE + sdld,  page 203.
Hexadecimal  [32-Bits]

Area                                    Addr        Size        Decimal Bytes (Attributes)
--------------------------------        ----        ----        ------- ----- ------------
CSEG                                00000062    00003CB7 =       15543. bytes (REL,CON,CODE)

      Value  Global                              Global Defined In Module
      -----  --------------------------------   ------------------------
C:   0000396C  A$testDebug\test$1282              test
C:   0000396E  A$testDebug\test$1285              test
C:   0000396E  C$test.c$222$1_0$91                test
C:   0000396F  A$testDebug\test$1286              test
C:   00003971  A$testDebug\test$1289              test
C:   00003971  C$test.c$224$2_0$93                test
C:   00003974  A$testDebug\test$1292              test
C:   00003974  C$test.c$225$2_0$93                test
C:   00003977  A$testDebug\test$1296              test
C:   00003977  C$test.c$228$1_0$91                test
C:   0000397A  A$testDebug\test$1299              test
C:   0000397A  C$test.c$229$1_0$91                test
C:   0000397C  A$testDebug\test$1300              test
C:   0000397E  A$testDebug\test$1301              test
C:   0000397F  A$testDebug\test$1302              test
C:   00003980  A$testDebug\test$1303              test
C:   00003982  A$testDebug\test$1304              test
C:   00003984  A$testDebug\test$1305              test
C:   00003986  A$testDebug\test$1306              test
C:   00003988  A$testDebug\test$1307              test
C:   0000398A  A$testDebug\test$1308              test
C:   0000398C  A$testDebug\test$1309              test
C:   0000398D  A$testDebug\test$1310              test
C:   0000398F  A$testDebug\test$1311              test
C:   00003991  A$testDebug\test$1312              test
C:   00003993  A$testDebug\test$1313              test
C:   00003995  A$testDebug\test$1314              test
C:   00003997  A$testDebug\test$1315              test
C:   00003999  A$testDebug\test$1316              test
C:   0000399B  A$testDebug\test$1317              test
C:   0000399C  A$testDebug\test$1318              test
C:   0000399E  A$testDebug\test$1319              test
C:   000039A1  A$testDebug\test$1320              test
C:   000039A4  A$testDebug\test$1321              test
C:   000039A7  A$testDebug\test$1322              test
C:   000039A9  A$testDebug\test$1323              test
C:   000039AB  A$testDebug\test$1324              test
C:   000039AD  A$testDebug\test$1325              test
C:   000039AF  A$testDebug\test$1326              test
C:   000039B1  A$testDebug\test$1329              test
C:   000039B1  C$test.c$230$1_0$91                test
C:   000039B2  A$testDebug\test$1330              test
C:   000039B4  A$testDebug\test$1333              test
C:   000039B4  C$test.c$232$2_0$94                test
C:   000039B7  A$testDebug\test$1336              test
C:   000039B7  C$test.c$233$2_0$94                test
C:   000039BA  A$testDebug\test$1340              test
C:   000039BA  C$test.c$236$1_0$91                test
C:   000039BD  A$testDebug\test$1343              test
C:   000039BD  C$test.c$237$1_0$91                test
C:   000039BF  A$testDebug\test$1344              test
ASxxxx Linker V03.00 + NoICE + sdld,  page 204.
Hexadecimal  [32-Bits]

Area                                    Addr        Size        Decimal Bytes (Attributes)
--------------------------------        ----        ----        ------- ----- ------------
CSEG                                00000062    00003CB7 =       15543. bytes (REL,CON,CODE)

      Value  Global                              Global Defined In Module
      -----  --------------------------------   ------------------------
C:   000039C1  A$testDebug\test$1345              test
C:   000039C2  A$testDebug\test$1346              test
C:   000039C4  A$testDebug\test$1347              test
C:   000039C6  A$testDebug\test$1348              test
C:   000039C8  A$testDebug\test$1349              test
C:   000039CA  A$testDebug\test$1350              test
C:   000039CC  A$testDebug\test$1351              test
C:   000039CE  A$testDebug\test$1352              test
C:   000039D0  A$testDebug\test$1353              test
C:   000039D2  A$testDebug\test$1354              test
C:   000039D4  A$testDebug\test$1355              test
C:   000039D5  A$testDebug\test$1356              test
C:   000039D7  A$testDebug\test$1357              test
C:   000039DA  A$testDebug\test$1358              test
C:   000039DD  A$testDebug\test$1359              test
C:   000039DF  A$testDebug\test$1360              test
C:   000039E1  A$testDebug\test$1361              test
C:   000039E3  A$testDebug\test$1364              test
C:   000039E3  C$test.c$239$1_0$91                test
C:   000039E6  A$testDebug\test$1367              test
C:   000039E6  C$test.c$240$1_0$91                test
C:   000039E8  A$testDebug\test$1368              test
C:   000039EA  A$testDebug\test$1369              test
C:   000039EB  A$testDebug\test$1370              test
C:   000039ED  A$testDebug\test$1371              test
C:   000039EF  A$testDebug\test$1372              test
C:   000039F1  A$testDebug\test$1373              test
C:   000039F4  A$testDebug\test$1374              test
C:   000039F7  A$testDebug\test$1375              test
C:   000039FA  A$testDebug\test$1376              test
C:   000039FC  A$testDebug\test$1377              test
C:   000039FE  A$testDebug\test$1378              test
C:   00003A00  A$testDebug\test$1379              test
C:   00003A02  A$testDebug\test$1380              test
C:   00003A04  A$testDebug\test$1381              test
C:   00003A06  A$testDebug\test$1384              test
C:   00003A06  C$test.c$241$1_0$91                test
C:   00003A07  A$testDebug\test$1389              test
C:   00003A07  C$test.c$242$1_0$91                test
C:   00003A07  C$test.c$244$1_0$91                test
C:   00003A09  A$testDebug\test$1390              test
C:   00003A0A  A$testDebug\test$1391              test
C:   00003A0C  A$testDebug\test$1392              test
C:   00003A0E  A$testDebug\test$1393              test
C:   00003A10  A$testDebug\test$1394              test
C:   00003A12  A$testDebug\test$1395              test
C:   00003A13  A$testDebug\test$1396              test
C:   00003A15  A$testDebug\test$1397              test
C:   00003A17  A$testDebug\test$1398              test
C:   00003A19  A$testDebug\test$1399              test
C:   00003A1B  A$testDebug\test$1400              test
ASxxxx Linker V03.00 + NoICE + sdld,  page 205.
Hexadecimal  [32-Bits]

Area                                    Addr        Size        Decimal Bytes (Attributes)
--------------------------------        ----        ----        ------- ----- ------------
CSEG                                00000062    00003CB7 =       15543. bytes (REL,CON,CODE)

      Value  Global                              Global Defined In Module
      -----  --------------------------------   ------------------------
C:   00003A1D  A$testDebug\test$1401              test
C:   00003A1F  A$testDebug\test$1402              test
C:   00003A21  A$testDebug\test$1403              test
C:   00003A22  A$testDebug\test$1404              test
C:   00003A24  A$testDebug\test$1405              test
C:   00003A27  A$testDebug\test$1406              test
C:   00003A2A  A$testDebug\test$1407              test
C:   00003A2D  A$testDebug\test$1408              test
C:   00003A2F  A$testDebug\test$1409              test
C:   00003A31  A$testDebug\test$1410              test
C:   00003A33  A$testDebug\test$1411              test
C:   00003A35  A$testDebug\test$1414              test
C:   00003A35  C$test.c$245$1_0$91                test
C:   00003A36  A$testDebug\test$1417              test
C:   00003A36  C$test.c$246$1_0$91                test
C:   00003A38  A$testDebug\test$1420              test
C:   00003A38  C$test.c$257$1_0$91                test
C:   00003A3A  A$testDebug\test$1421              test
C:   00003A3C  A$testDebug\test$1422              test
C:   00003A3D  A$testDebug\test$1423              test
C:   00003A3F  A$testDebug\test$1424              test
C:   00003A41  A$testDebug\test$1425              test
C:   00003A43  A$testDebug\test$1426              test
C:   00003A45  A$testDebug\test$1427              test
C:   00003A47  A$testDebug\test$1428              test
C:   00003A48  A$testDebug\test$1429              test
C:   00003A4A  A$testDebug\test$1430              test
C:   00003A4C  A$testDebug\test$1431              test
C:   00003A4E  A$testDebug\test$1432              test
C:   00003A50  A$testDebug\test$1433              test
C:   00003A52  A$testDebug\test$1434              test
C:   00003A54  A$testDebug\test$1435              test
C:   00003A56  A$testDebug\test$1436              test
C:   00003A57  A$testDebug\test$1437              test
C:   00003A59  A$testDebug\test$1438              test
C:   00003A5C  A$testDebug\test$1439              test
C:   00003A5F  A$testDebug\test$1440              test
C:   00003A62  A$testDebug\test$1441              test
C:   00003A64  A$testDebug\test$1442              test
C:   00003A66  A$testDebug\test$1443              test
C:   00003A68  A$testDebug\test$1444              test
C:   00003A6A  A$testDebug\test$1447              test
C:   00003A6A  C$test.c$258$1_0$91                test
C:   00003A6B  A$testDebug\test$1448              test
C:   00003A6D  A$testDebug\test$1454              test
C:   00003A6D  C$test.c$259$1_0$91                test
C:   00003A70  A$testDebug\test$1455              test
C:   00003A72  A$testDebug\test$1458              test
C:   00003A72  C$test.c$260$1_0$91                test
C:   00003A72  XG$SIOFATFSTest$0$0                test
C:   00003A73  __gptrput                          _gptrput
ASxxxx Linker V03.00 + NoICE + sdld,  page 206.
Hexadecimal  [32-Bits]

Area                                    Addr        Size        Decimal Bytes (Attributes)
--------------------------------        ----        ----        ------- ----- ------------
CSEG                                00000062    00003CB7 =       15543. bytes (REL,CON,CODE)

      Value  Global                              Global Defined In Module
      -----  --------------------------------   ------------------------
C:   00003A8E  __divulong                         _divulong
C:   00003B1C  _strlen                            _strlen
C:   00003B34  __gptrget                          _gptrget
C:   00003B50  __mullong                          _mullong
C:   00003D15  __sdcc_external_startup            _startup

ASxxxx Linker V03.00 + NoICE + sdld,  page 207.
Hexadecimal  [32-Bits]

Area                                    Addr        Size        Decimal Bytes (Attributes)
--------------------------------        ----        ----        ------- ----- ------------
CONST                               00003D19    000001B3 =         435. bytes (REL,CON,CODE)

      Value  Global                              Global Defined In Module
      -----  --------------------------------   ------------------------
C:   00003D19  Fcompactflash$__str_0$0_0$0        compactflash
C:   00003D28  Fcompactflash$__str_1$0_0$0        compactflash
C:   00003D37  Fcompactflash$__str_2$0_0$0        compactflash
C:   00003D46  Fcompactflash$__str_3$0_0$0        compactflash
C:   00003D55  Fcompactflash$__str_4$0_0$0        compactflash
C:   00003D64  Fcompactflash$__str_5$0_0$0        compactflash
C:   00003D73  Fcompactflash$__str_6$0_0$0        compactflash
C:   00003D83  Lpff.create_name$cvt$1_0$42        pff
C:   00003E03  G$data$0_0$0                       test
C:   00003E03  _data                              test
C:   00003E37  Ftest$__str_0$0_0$0                test
C:   00003E4B  Ftest$__str_1$0_0$0                test
C:   00003E55  Ftest$__str_2$0_0$0                test
C:   00003E5F  Ftest$__str_3$0_0$0                test
C:   00003E69  Ftest$__str_4$0_0$0                test
C:   00003E73  Ftest$__str_5$0_0$0                test
C:   00003E7D  Ftest$__str_6$0_0$0                test
C:   00003E87  Ftest$__str_7$0_0$0                test
C:   00003E91  Ftest$__str_8$0_0$0                test
C:   00003E97  Ftest$__str_9$0_0$0                test
C:   00003EA1  Ftest$__str_10$0_0$0               test
C:   00003EAB  Ftest$__str_11$0_0$0               test
C:   00003EB5  Ftest$__str_12$0_0$0               test
C:   00003EBF  Ftest$__str_13$0_0$0               test
C:   00003EC9  Ftest$__str_14$0_0$0               test

ASxxxx Linker V03.00 + NoICE + sdld,  page 208.
Hexadecimal  [32-Bits]

Area                                    Addr        Size        Decimal Bytes (Attributes)
--------------------------------        ----        ----        ------- ----- ------------
XINIT                               00003ECC    00000002 =           2. bytes (REL,CON,CODE)

      Value  Global                              Global Defined In Module
      -----  --------------------------------   ------------------------
C:   00003ECC  Fmain$__xinit_PSBANK$0_0$0         main
C:   00003ECD  Fdiskio$__xinit_firstRead$0_0$0    diskio

ASxxxx Linker V03.00 + NoICE + sdld,  page 209.

Files Linked                              [ module(s) ]

obj\Debug\compactflash.rel                [  ]
obj\Debug\delay.rel                       [  ]
obj\Debug\led.rel                         [  ]
obj\Debug\main.rel                        [  ]
obj\Debug\pff3a\diskio.rel                [  ]
obj\Debug\pff3a\pff.rel                   [  ]
obj\Debug\pio.rel                         [  ]
obj\Debug\sio.rel                         [  ]
obj\Debug\SIOFS\siofatfs.rel              [  ]
obj\Debug\sysctrl.rel                     [  ]
obj\Debug\test.rel                        [  ]


Libraries Linked                          [ object file ]

C:\Program Files (x86)\SDCC\bin\..\lib\large-stack-auto/mcs51.lib
                                          [ crtclear.rel ]
C:\Program Files (x86)\SDCC\bin\..\lib\large-stack-auto/mcs51.lib
                                          [ crtxinit.rel ]
C:\Program Files (x86)\SDCC\bin\..\lib\large-stack-auto/libsdcc.lib
                                          [ _gptrput.rel ]
C:\Program Files (x86)\SDCC\bin\..\lib\large-stack-auto/mcs51.lib
                                          [ crtxclear.rel ]
C:\Program Files (x86)\SDCC\bin\..\lib\large-stack-auto/liblong.lib
                                          [ _divulong.rel ]
C:\Program Files (x86)\SDCC\bin\..\lib\large-stack-auto/libsdcc.lib
                                          [ _bp.rel ]
C:\Program Files (x86)\SDCC\bin\..\lib\large-stack-auto/mcs51.lib
                                          [ crtpagesfr.rel ]
C:\Program Files (x86)\SDCC\bin\..\lib\large-stack-auto/libsdcc.lib
                                          [ _strlen.rel ]
C:\Program Files (x86)\SDCC\bin\..\lib\large-stack-auto/mcs51.lib
                                          [ crtstart.rel ]
C:\Program Files (x86)\SDCC\bin\..\lib\large-stack-auto/libsdcc.lib
                                          [ _gptrget.rel ]
C:\Program Files (x86)\SDCC\bin\..\lib\large-stack-auto/liblong.lib
                                          [ _mullong.rel ]
C:\Program Files (x86)\SDCC\bin\..\lib\large-stack-auto/libsdcc.lib
                                          [ _startup.rel ]

ASxxxx Linker V03.00 + NoICE + sdld,  page 210.

User Base Address Definitions

HOME = 0x0000
XSEG = 0x8000
PSEG = 0x8000
ISEG = 0x0000
BSEG = 0x0000

