ASxxxx Linker V03.00 + NoICE + sdld,  page 1.
Hexadecimal  [32-Bits]

Area                                    Addr        Size        Decimal Bytes (Attributes)
--------------------------------        ----        ----        ------- ----- ------------
CABS                                00000000    00000000 =           0. bytes (ABS,CON,CODE)

      Value  Global                              Global Defined In Module
      -----  --------------------------------   ------------------------
C:   00000000  l_BIT_BANK                      
C:   00000000  l_BSEG                          
C:   00000000  l_BSEG_BYTES                    
C:   00000000  l_CABS                          
C:   00000000  l_GSINIT                        
C:   00000000  l_GSINIT1                       
C:   00000000  l_GSINIT5                       
C:   00000000  l_IABS                          
C:   00000000  l_ISEG                          
C:   00000000  l_OSEG                          
C:   00000000  l_PSEG                          
C:   00000000  l_REG_BANK_1                    
C:   00000000  l_REG_BANK_2                    
C:   00000000  l_REG_BANK_3                    
C:   00000000  l_RSEG                          
C:   00000000  l_RSEG0                         
C:   00000000  l_RSEG1                         
C:   00000000  l_XABS                          
C:   00000000  l__CODE                         
C:   00000000  s_BSEG                          
C:   00000000  s_CABS                          
C:   00000000  s_DSEG                          
C:   00000000  s_HOME                          
C:   00000000  s_IABS                          
C:   00000000  s_ISEG                          
C:   00000000  s_REG_BANK_0                    
C:   00000000  s_RSEG                          
C:   00000000  s_RSEG0                         
C:   00000000  s_RSEG1                         
C:   00000000  s_XABS                          
C:   00000001  l_XINIT                         
C:   00000001  l_XISEG                         
C:   00000003  l_GSFINAL                       
C:   00000003  l_GSINIT0                       
C:   00000008  l_REG_BANK_0                    
C:   00000008  s_REG_BANK_1                    
C:   0000000A  l_GSINIT2                       
C:   00000010  s_REG_BANK_2                    
C:   00000018  s_BIT_BANK                      
C:   00000018  s_OSEG                          
C:   00000018  s_REG_BANK_3                    
C:   0000001B  l_HOME                          
C:   0000001B  s_GSINIT0                       
C:   0000001C  s_SSEG                          
C:   0000001E  s_GSINIT1                       
C:   0000001E  s_GSINIT2                       
C:   00000020  s_BSEG_BYTES                    
C:   00000020  s__CODE                         
C:   00000022  l_GSINIT3                       
C:   00000028  s_GSINIT3                       
ASxxxx Linker V03.00 + NoICE + sdld,  page 2.
Hexadecimal  [32-Bits]

Area                                    Addr        Size        Decimal Bytes (Attributes)
--------------------------------        ----        ----        ------- ----- ------------
CABS                                00000000    00000000 =           0. bytes (ABS,CON,CODE)

      Value  Global                              Global Defined In Module
      -----  --------------------------------   ------------------------
C:   0000002A  l_GSINIT4                       
C:   00000047  l_CONST                         
C:   0000004A  s_GSINIT4                       
C:   00000074  s_GSFINAL                       
C:   00000074  s_GSINIT                        
C:   00000074  s_GSINIT5                       
C:   00000077  s_CSEG                          
C:   00000080  l_DSEG                          
C:   000000E4  l_SSEG                          
C:   00000100  l_IRAM                          
C:   00000233  l_XSEG                          
C:   0000091E  l_CSEG                          
C:   00000995  s_CONST                         
C:   000009DC  s_XINIT                         
C:   0000A000  s_PSEG                          
C:   0000A000  s_XSEG                          
C:   0000A233  s_XISEG                         

ASxxxx Linker V03.00 + NoICE + sdld,  page 3.
Hexadecimal  [32-Bits]

Area                                    Addr        Size        Decimal Bytes (Attributes)
--------------------------------        ----        ----        ------- ----- ------------
.  .ABS.                            00000000    00000000 =           0. bytes (ABS,CON)

      Value  Global                              Global Defined In Module
      -----  --------------------------------   ------------------------
     00000000  .__.ABS.                           _startup
     00000080  _P0                                sysctrl
     00000080  _P0_0                              sysctrl
     00000081  _P0_1                              sysctrl
     00000081  _SP                                sysctrl
     00000082  _DPL                               sysctrl
     00000082  _P0_2                              sysctrl
     00000083  _DPH                               sysctrl
     00000083  _P0_3                              sysctrl
     00000084  _P0_4                              sysctrl
     00000085  _P0_5                              sysctrl
     00000086  _P0_6                              sysctrl
     00000087  _P0_7                              sysctrl
     00000087  _PCON                              sysctrl
     00000088  _IT0                               sysctrl
     00000088  _TCON                              sysctrl
     00000089  _IE0                               sysctrl
     00000089  _TMOD                              sysctrl
     0000008A  _IT1                               sysctrl
     0000008A  _TL0                               sysctrl
     0000008B  _IE1                               sysctrl
     0000008B  _TL1                               sysctrl
     0000008C  _TH0                               sysctrl
     0000008C  _TR0                               sysctrl
     0000008D  _TF0                               sysctrl
     0000008D  _TH1                               sysctrl
     0000008E  _TR1                               sysctrl
     0000008F  _TF1                               sysctrl
     00000090  _P1                                sysctrl
     00000090  _P1_0                              sysctrl
     00000091  _P1_1                              sysctrl
     00000092  _P1_2                              sysctrl
     00000093  _P1_3                              sysctrl
     00000094  _P1_4                              sysctrl
     00000095  _P1_5                              sysctrl
     00000096  _P1_6                              sysctrl
     00000097  _P1_7                              sysctrl
     00000098  _RI                                sysctrl
     00000098  _SCON                              sysctrl
     00000099  _SBUF                              sysctrl
     00000099  _TI                                sysctrl
     0000009A  _RB8                               sysctrl
     0000009B  _TB8                               sysctrl
     0000009C  _REN                               sysctrl
     0000009D  _SM2                               sysctrl
     0000009E  _SM1                               sysctrl
     0000009F  _SM0                               sysctrl
     000000A0  _P2                                sysctrl
     000000A0  _P2_0                              sysctrl
     000000A0  __XPAGE                            
ASxxxx Linker V03.00 + NoICE + sdld,  page 4.
Hexadecimal  [32-Bits]

Area                                    Addr        Size        Decimal Bytes (Attributes)
--------------------------------        ----        ----        ------- ----- ------------
.  .ABS.                            00000000    00000000 =           0. bytes (ABS,CON)

      Value  Global                              Global Defined In Module
      -----  --------------------------------   ------------------------
     000000A1  _P2_1                              sysctrl
     000000A2  _P2_2                              sysctrl
     000000A3  _P2_3                              sysctrl
     000000A4  _P2_4                              sysctrl
     000000A5  _P2_5                              sysctrl
     000000A6  _P2_6                              sysctrl
     000000A7  _P2_7                              sysctrl
     000000A8  _EX0                               sysctrl
     000000A8  _IE                                sysctrl
     000000A9  _ET0                               sysctrl
     000000AA  _EX1                               sysctrl
     000000AB  _ET1                               sysctrl
     000000AC  _ES                                sysctrl
     000000AF  _EA                                sysctrl
     000000B0  _P3                                sysctrl
     000000B0  _P3_0                              sysctrl
     000000B0  _RXD                               sysctrl
     000000B1  _P3_1                              sysctrl
     000000B1  _TXD                               sysctrl
     000000B2  _INT0                              sysctrl
     000000B2  _P3_2                              sysctrl
     000000B3  _INT1                              sysctrl
     000000B3  _P3_3                              sysctrl
     000000B4  _P3_4                              sysctrl
     000000B4  _T0                                sysctrl
     000000B5  _P3_5                              sysctrl
     000000B5  _T1                                sysctrl
     000000B6  _P3_6                              sysctrl
     000000B6  _WR                                sysctrl
     000000B7  _P3_7                              sysctrl
     000000B7  _RD                                sysctrl
     000000B8  _IP                                sysctrl
     000000B8  _PX0                               sysctrl
     000000B9  _PT0                               sysctrl
     000000BA  _PX1                               sysctrl
     000000BB  _PT1                               sysctrl
     000000BC  _PS                                sysctrl
     000000D0  _P                                 sysctrl
     000000D0  _PSW                               sysctrl
     000000D1  _F1                                sysctrl
     000000D2  _OV                                sysctrl
     000000D3  _RS0                               sysctrl
     000000D4  _RS1                               sysctrl
     000000D5  _F0                                sysctrl
     000000D6  _AC                                sysctrl
     000000D7  _CY                                sysctrl
     000000E0  _ACC                               sysctrl
     000000F0  _B                                 sysctrl
     000000F5  _B_5                               _gptrget
     000000F6  _B_6                               _gptrget
     000000F7  _B_7                               _gptrget

ASxxxx Linker V03.00 + NoICE + sdld,  page 5.
Hexadecimal  [32-Bits]

Area                                    Addr        Size        Decimal Bytes (Attributes)
--------------------------------        ----        ----        ------- ----- ------------
REG_BANK_0                          00000000    00000008 =           8. bytes (REL,OVR)

      Value  Global                              Global Defined In Module
      -----  --------------------------------   ------------------------
ASxxxx Linker V03.00 + NoICE + sdld,  page 6.
Hexadecimal  [32-Bits]

Area                                    Addr        Size        Decimal Bytes (Attributes)
--------------------------------        ----        ----        ------- ----- ------------
DSEG                                00000000    00000080 =         128. bytes (REL,CON)

      Value  Global                              Global Defined In Module
      -----  --------------------------------   ------------------------
ASxxxx Linker V03.00 + NoICE + sdld,  page 7.
Hexadecimal  [32-Bits]

Area                                    Addr        Size        Decimal Bytes (Attributes)
--------------------------------        ----        ----        ------- ----- ------------
SSEG                                0000001C    000000E4 =         228. bytes (REL,OVR)

      Value  Global                              Global Defined In Module
      -----  --------------------------------   ------------------------
     0000001C  __start__stack                     main

ASxxxx Linker V03.00 + NoICE + sdld,  page 8.
Hexadecimal  [32-Bits]

Area                                    Addr        Size        Decimal Bytes (Attributes)
--------------------------------        ----        ----        ------- ----- ------------
XSEG                                0000A000    00000233 =         563. bytes (REL,CON,XDATA)

      Value  Global                              Global Defined In Module
      -----  --------------------------------   ------------------------
D:   0000A004  _cfReadSector_PARM_2               compactflash
D:   0000A007  _cfReadSector_PARM_3               compactflash
D:   0000A00B  _cfReadSector_PARM_4               compactflash
D:   0000A00E  _cfTest_PARM_2                     compactflash
D:   0000A012  _buf                               main
D:   0000A218  _sioTX_PARM_2                      sio
D:   0000A219  _sioTXStr_PARM_2                   sio
D:   0000A21D  _sioTXBuf_PARM_2                   sio
D:   0000A220  _sioTXBuf_PARM_3                   sio
D:   0000A224  _sioRXStr_PARM_2                   sio
D:   0000A227  _sioRXStr_PARM_3                   sio
D:   0000A22A  _sioRXBuf_PARM_2                   sio
D:   0000A22D  _sioRXBuf_PARM_3                   sio
D:   0000A232  __gptrput_PARM_2                   _gptrput

ASxxxx Linker V03.00 + NoICE + sdld,  page 9.
Hexadecimal  [32-Bits]

Area                                    Addr        Size        Decimal Bytes (Attributes)
--------------------------------        ----        ----        ------- ----- ------------
XISEG                               0000A233    00000001 =           1. bytes (REL,CON,XDATA)

      Value  Global                              Global Defined In Module
      -----  --------------------------------   ------------------------
D:   0000A233  _PSBANK                            main

ASxxxx Linker V03.00 + NoICE + sdld,  page 10.
Hexadecimal  [32-Bits]

Area                                    Addr        Size        Decimal Bytes (Attributes)
--------------------------------        ----        ----        ------- ----- ------------
HOME                                00000000    0000001B =          27. bytes (REL,CON,CODE)

      Value  Global                              Global Defined In Module
      -----  --------------------------------   ------------------------
C:   00000003  __sdcc_program_startup             main
C:   00000006  __sdcc_banked_call                 
C:   00000018  __sdcc_banked_ret                  
ASxxxx Linker V03.00 + NoICE + sdld,  page 11.
Hexadecimal  [32-Bits]

Area                                    Addr        Size        Decimal Bytes (Attributes)
--------------------------------        ----        ----        ------- ----- ------------
GSINIT0                             0000001B    00000003 =           3. bytes (REL,CON,CODE)

      Value  Global                              Global Defined In Module
      -----  --------------------------------   ------------------------
C:   0000001B  __sdcc_gsinit_startup              

ASxxxx Linker V03.00 + NoICE + sdld,  page 12.
Hexadecimal  [32-Bits]

Area                                    Addr        Size        Decimal Bytes (Attributes)
--------------------------------        ----        ----        ------- ----- ------------
GSINIT2                             0000001E    0000000A =          10. bytes (REL,CON,CODE)

      Value  Global                              Global Defined In Module
      -----  --------------------------------   ------------------------
ASxxxx Linker V03.00 + NoICE + sdld,  page 13.
Hexadecimal  [32-Bits]

Area                                    Addr        Size        Decimal Bytes (Attributes)
--------------------------------        ----        ----        ------- ----- ------------
GSINIT3                             00000028    00000022 =          34. bytes (REL,CON,CODE)

      Value  Global                              Global Defined In Module
      -----  --------------------------------   ------------------------
C:   00000028  __mcs51_genXINIT                   

ASxxxx Linker V03.00 + NoICE + sdld,  page 14.
Hexadecimal  [32-Bits]

Area                                    Addr        Size        Decimal Bytes (Attributes)
--------------------------------        ----        ----        ------- ----- ------------
GSINIT4                             0000004A    0000002A =          42. bytes (REL,CON,CODE)

      Value  Global                              Global Defined In Module
      -----  --------------------------------   ------------------------
C:   0000004A  __mcs51_genRAMCLEAR                
C:   00000050  __mcs51_genXRAMCLEAR               

ASxxxx Linker V03.00 + NoICE + sdld,  page 15.
Hexadecimal  [32-Bits]

Area                                    Addr        Size        Decimal Bytes (Attributes)
--------------------------------        ----        ----        ------- ----- ------------
GSFINAL                             00000074    00000003 =           3. bytes (REL,CON,CODE)

      Value  Global                              Global Defined In Module
      -----  --------------------------------   ------------------------
ASxxxx Linker V03.00 + NoICE + sdld,  page 16.
Hexadecimal  [32-Bits]

Area                                    Addr        Size        Decimal Bytes (Attributes)
--------------------------------        ----        ----        ------- ----- ------------
CSEG                                00000077    0000091E =        2334. bytes (REL,CON,CODE)

      Value  Global                              Global Defined In Module
      -----  --------------------------------   ------------------------
C:   00000077  _cfInit                            compactflash
C:   000000AE  _cfWaitIdle                        compactflash
C:   000000DA  _cfWaitCommandReady                compactflash
C:   0000010E  _cfWaitDataReady                   compactflash
C:   00000142  _cfReadSector                      compactflash
C:   0000034C  _cfTest                            compactflash
C:   0000042A  _delay_us                          delay
C:   0000043D  _delay_ms                          delay
C:   00000460  _ledTest                           led
C:   000004DB  _main                              main
C:   000005C6  _pioTest                           pio
C:   0000069F  _sioInit                           sio
C:   000006BC  _sioClose                          sio
C:   000006CA  _sioWaitTXDone                     sio
C:   000006D0  _sioTX                             sio
C:   000006DE  _sioTXStr                          sio
C:   0000072E  _sioTXBuf                          sio
C:   000007A5  _sioWaitRXDone                     sio
C:   000007AB  _sioRX                             sio
C:   000007C0  _sioRXStr                          sio
C:   00000840  _sioRXBuf                          sio
C:   000008BD  _sioTest1                          sio
C:   000008FB  _sioTest2                          sio
C:   00000957  _sioTest3                          sio
C:   0000095A  __gptrput                          _gptrput
C:   00000975  __gptrget                          _gptrget
C:   00000991  __sdcc_external_startup            _startup
ASxxxx Linker V03.00 + NoICE + sdld,  page 17.
Hexadecimal  [32-Bits]

Area                                    Addr        Size        Decimal Bytes (Attributes)
--------------------------------        ----        ----        ------- ----- ------------
CONST                               00000995    00000047 =          71. bytes (REL,CON,CODE)

      Value  Global                              Global Defined In Module
      -----  --------------------------------   ------------------------
C:   00000995  _data                              sio

ASxxxx Linker V03.00 + NoICE + sdld,  page 18.
Hexadecimal  [32-Bits]

Area                                    Addr        Size        Decimal Bytes (Attributes)
--------------------------------        ----        ----        ------- ----- ------------
XINIT                               000009DC    00000001 =           1. bytes (REL,CON,CODE)

      Value  Global                              Global Defined In Module
      -----  --------------------------------   ------------------------
ASxxxx Linker V03.00 + NoICE + sdld,  page 19.

Files Linked                              [ module(s) ]

obj\Debug\compactflash.rel                [  ]
obj\Debug\delay.rel                       [  ]
obj\Debug\led.rel                         [  ]
obj\Debug\main.rel                        [  ]
obj\Debug\pio.rel                         [  ]
obj\Debug\sio.rel                         [  ]
obj\Debug\sysctrl.rel                     [  ]


Libraries Linked                          [ object file ]

C:\Program Files (x86)\SDCC\bin\..\lib\huge/mcs51.lib
                                          [ crtclear.rel ]
C:\Program Files (x86)\SDCC\bin\..\lib\huge/mcs51.lib
                                          [ crtbank.rel ]
C:\Program Files (x86)\SDCC\bin\..\lib\huge/mcs51.lib
                                          [ crtxinit.rel ]
C:\Program Files (x86)\SDCC\bin\..\lib\huge/libsdcc.lib
                                          [ _gptrput.rel ]
C:\Program Files (x86)\SDCC\bin\..\lib\huge/mcs51.lib
                                          [ crtxclear.rel ]
C:\Program Files (x86)\SDCC\bin\..\lib\huge/mcs51.lib
                                          [ crtpagesfr.rel ]
C:\Program Files (x86)\SDCC\bin\..\lib\huge/mcs51.lib
                                          [ crtstart.rel ]
C:\Program Files (x86)\SDCC\bin\..\lib\huge/libsdcc.lib
                                          [ _gptrget.rel ]
C:\Program Files (x86)\SDCC\bin\..\lib\huge/libsdcc.lib
                                          [ _startup.rel ]

ASxxxx Linker V03.00 + NoICE + sdld,  page 20.

User Base Address Definitions

HOME = 0x0000
XSEG = 0xa000
PSEG = 0xa000
ISEG = 0x0000
BSEG = 0x0000

